 suikagame

 Timestamp is 677dc953 (Wed Jan  8 00:39:47 2025)

 Preferred load address is 0000000140000000

 Start         Length     Name                   Class
 0001:00000000 00000700H .text$di                CODE
 0001:00000700 000a1480H .text$mn                CODE
 0001:000a1b80 00000040H .text$mn$00             CODE
 0001:000a1bc0 00000fd0H .text$x                 CODE
 0001:000a2b90 0000040fH .text$yd                CODE
 0002:00000000 00000930H .idata$5                DATA
 0002:00000930 00000038H .00cfg                  DATA
 0002:00000968 00000008H .CRT$XCA                DATA
 0002:00000970 00000008H .CRT$XCAA               DATA
 0002:00000978 00000008H .CRT$XCL                DATA
 0002:00000980 00000028H .CRT$XCU                DATA
 0002:000009a8 00000008H .CRT$XCZ                DATA
 0002:000009b0 00000008H .CRT$XDA                DATA
 0002:000009b8 00000008H .CRT$XDZ                DATA
 0002:000009c0 00000008H .CRT$XIA                DATA
 0002:000009c8 00000008H .CRT$XIAA               DATA
 0002:000009d0 00000008H .CRT$XIAC               DATA
 0002:000009d8 00000008H .CRT$XIZ                DATA
 0002:000009e0 00000008H .CRT$XLA                DATA
 0002:000009e8 00000008H .CRT$XLC                DATA
 0002:000009f0 00000008H .CRT$XLD                DATA
 0002:000009f8 00000008H .CRT$XLZ                DATA
 0002:00000a00 00000008H .CRT$XPA                DATA
 0002:00000a08 00000008H .CRT$XPZ                DATA
 0002:00000a10 00000008H .CRT$XTA                DATA
 0002:00000a18 00000008H .CRT$XTZ                DATA
 0002:00000a20 00000000H .gehcont$y              DATA
 0002:00000a20 00000000H .gfids$y                DATA
 0002:00000a20 00000000H .giats$y                DATA
 0002:00000a20 00026a60H .rdata                  DATA
 0002:00027480 00000000H .rdata$CastGuardVftablesA DATA
 0002:00027480 00000000H .rdata$CastGuardVftablesC DATA
 0002:00027480 00000028H .rdata$T                DATA
 0002:000274a8 00001744H .rdata$r                DATA
 0002:00028bec 000003b4H .rdata$voltmd           DATA
 0002:00028fa0 00000470H .rdata$zzzdbg           DATA
 0002:00029410 00000008H .rtc$IAA                DATA
 0002:00029418 00000008H .rtc$IZZ                DATA
 0002:00029420 00000008H .rtc$TAA                DATA
 0002:00029428 00000008H .rtc$TZZ                DATA
 0002:00029430 00000010H .tls                    DATA
 0002:00029440 000001c1H .tls$                   DATA
 0002:00029601 00000007H .tls$ZZZ                DATA
 0002:00029608 0000b6e8H .xdata                  DATA
 0002:00034cf0 0000034cH .xdata$x                DATA
 0002:0003503c 00000000H .edata                  DATA
 0002:0003503c 00000168H .idata$2                DATA
 0002:000351a4 00000014H .idata$3                DATA
 0002:000351b8 00000930H .idata$4                DATA
 0002:00035ae8 0000252aH .idata$6                DATA
 0003:00000000 00000348H .data                   DATA
 0003:00000348 000001b8H .data$r                 DATA
 0003:00000500 00000850H .data$rs                DATA
 0003:00000d50 000064d8H .bss                    DATA
 0004:00000000 0000834cH .pdata                  DATA
 0005:00000000 00000060H .rsrc$01                DATA
 0005:00000060 00000180H .rsrc$02                DATA

  Address         Publics by Value              Rva+Base               Lib:Object

 0000:00000000       __AbsoluteZero             0000000000000000     <absolute>
 0000:00000000       ___safe_se_handler_count   0000000000000000     <absolute>
 0000:00000000       ___safe_se_handler_table   0000000000000000     <absolute>
 0000:00000000       __arm64x_extra_rfe_table   0000000000000000     <absolute>
 0000:00000000       __arm64x_extra_rfe_table_size 0000000000000000     <absolute>
 0000:00000000       __arm64x_native_entrypoint 0000000000000000     <absolute>
 0000:00000000       __arm64x_redirection_metadata 0000000000000000     <absolute>
 0000:00000000       __arm64x_redirection_metadata_count 0000000000000000     <absolute>
 0000:00000000       __dynamic_value_reloc_table 0000000000000000     <absolute>
 0000:00000000       __enclave_config           0000000000000000     <absolute>
 0000:00000000       __guard_check_icall_a64n_fptr 0000000000000000     <absolute>
 0000:00000000       __guard_eh_cont_count      0000000000000000     <absolute>
 0000:00000000       __guard_eh_cont_table      0000000000000000     <absolute>
 0000:00000000       __guard_fids_count         0000000000000000     <absolute>
 0000:00000000       __guard_fids_table         0000000000000000     <absolute>
 0000:00000000       __guard_iat_count          0000000000000000     <absolute>
 0000:00000000       __guard_iat_table          0000000000000000     <absolute>
 0000:00000000       __guard_longjmp_count      0000000000000000     <absolute>
 0000:00000000       __guard_longjmp_table      0000000000000000     <absolute>
 0000:00000000       __hybrid_auxiliary_delayload_iat 0000000000000000     <absolute>
 0000:00000000       __hybrid_auxiliary_delayload_iat_copy 0000000000000000     <absolute>
 0000:00000000       __hybrid_auxiliary_iat     0000000000000000     <absolute>
 0000:00000000       __hybrid_auxiliary_iat_copy 0000000000000000     <absolute>
 0000:00000000       __hybrid_code_map          0000000000000000     <absolute>
 0000:00000000       __hybrid_code_map_count    0000000000000000     <absolute>
 0000:00000000       __hybrid_image_info_bitfield 0000000000000000     <absolute>
 0000:00000000       __x64_code_ranges_to_entry_points 0000000000000000     <absolute>
 0000:00000000       __x64_code_ranges_to_entry_points_count 0000000000000000     <absolute>
 0000:00000100       __guard_flags              0000000000000100     <absolute>
 0000:00000000       __ImageBase                0000000140000000     <linker-defined>
 0001:00000700       ??0RandomRangeGenerator@@QEAA@NN@Z 0000000140001700 f   Globals.obj
 0001:00000770       ?DeltaTime@Timer@@QEBAMXZ  0000000140001770 f   Timer.obj
 0001:00000790       ?Get@Timer@@SAAEAV1@XZ     0000000140001790 f   Timer.obj
 0001:00000800       ?Update@Timer@@QEAAXXZ     0000000140001800 f   Timer.obj
 0001:00000830       ?now@steady_clock@chrono@std@@SA?AV?$time_point@Usteady_clock@chrono@std@@V?$duration@_JU?$ratio@$00$0DLJKMKAA@@std@@@23@@23@XZ 0000000140001830 f i Timer.obj
 0001:00000910       ??$_Construct@$00PEBD@?$basic_string@DU?$char_traits@D@std@@V?$allocator@D@2@@std@@AEAAXQEBD_K@Z 0000000140001910 f i main.obj
 0001:00000a20       ??$_Free_non_head@V?$allocator@U?$_List_node@U?$pair@$$CBIUPage@Font@sf@@@std@@PEAX@std@@@std@@@?$_List_node@U?$pair@$$CBIUPage@Font@sf@@@std@@PEAX@std@@SAXAEAV?$allocator@U?$_List_node@U?$pair@$$CBIUPage@Font@sf@@@std@@PEAX@std@@@1@PEAU01@@Z 0000000140001a20 f i main.obj
 0001:00000ba0       ??$_Reallocate_grow_by@V<lambda_a3050a43f3157934f354774ab3dd2e02>@@_K_W@?$basic_string@_WU?$char_traits@_W@std@@V?$allocator@_W@2@@std@@AEAAAEAV01@_KV<lambda_a3050a43f3157934f354774ab3dd2e02>@@_K_W@Z 0000000140001ba0 f i main.obj
 0001:00000d50       ??0_System_error@std@@QEAA@AEBV01@@Z 0000000140001d50 f i main.obj
 0001:00000da0       ??0bad_alloc@std@@QEAA@AEBV01@@Z 0000000140001da0 f i main.obj
 0001:00000de0       ??0bad_array_new_length@std@@QEAA@AEBV01@@Z 0000000140001de0 f i main.obj
 0001:00000e20       ??0bad_array_new_length@std@@QEAA@XZ 0000000140001e20 f i main.obj
 0001:00000e50       ??0exception@std@@QEAA@AEBV01@@Z 0000000140001e50 f i main.obj
 0001:00000e90       ??0runtime_error@std@@QEAA@AEBV01@@Z 0000000140001e90 f i main.obj
 0001:00000ed0       ??0system_error@std@@QEAA@AEBV01@@Z 0000000140001ed0 f i main.obj
 0001:00000f30       ??0system_error@std@@QEAA@Verror_code@1@@Z 0000000140001f30 f i main.obj
 0001:00001000       ??1?$basic_string@_UU?$char_traits@_U@std@@V?$allocator@_U@2@@std@@QEAA@XZ 0000000140002000 f i main.obj
 0001:00001070       ??1?$basic_string@_WU?$char_traits@_W@std@@V?$allocator@_W@2@@std@@QEAA@XZ 0000000140002070 f i main.obj
 0001:00001070       ??1path@filesystem@std@@QEAA@XZ 0000000140002070 f i main.obj
 0001:00001080       ??1CircleShape@sf@@UEAA@XZ 0000000140002080 f i main.obj
 0001:000010b0       ??1Font@sf@@QEAA@XZ        00000001400020b0 f i main.obj
 0001:00001210       ??1RenderWindow@sf@@UEAA@XZ 0000000140002210 f i main.obj
 0001:00001220       ??1String@sf@@QEAA@XZ      0000000140002220 f i main.obj
 0001:00001230       ??1Text@sf@@UEAA@XZ        0000000140002230 f i main.obj
 0001:00001270       ??1VertexArray@sf@@UEAA@XZ 0000000140002270 f i main.obj
 0001:000012f0       ??1_System_error_message@std@@QEAA@XZ 00000001400022f0 f i main.obj
 0001:00001300       ??1bad_alloc@std@@UEAA@XZ  0000000140002300 f i MSVCRT:throw_bad_alloc.obj
 0001:00001300       ??1bad_array_new_length@std@@UEAA@XZ 0000000140002300 f i main.obj
 0001:00001300       ??1system_error@std@@UEAA@XZ 0000000140002300 f i main.obj
 0001:00001320       ??1locale@std@@QEAA@XZ     0000000140002320 f i main.obj
 0001:00001350       ??R?$mersenne_twister@I$0CA@$0CHA@$0BIN@$0BP@$0JJAILANP@$0L@$06$0JNCMFGIA@$0P@$0OPMGAAAA@$0BC@@std@@QEAAIXZ 0000000140002350 f i main.obj
 0001:000014e0       ??_E_Generic_error_category@std@@UEAAPEAXI@Z 00000001400024e0 f i main.obj
 0001:000014e0       ??_E_System_error_category@std@@UEAAPEAXI@Z 00000001400024e0 f i main.obj
 0001:000014e0       ??_G_Generic_error_category@std@@UEAAPEAXI@Z 00000001400024e0 f i main.obj
 0001:000014e0       ??_G_System_error_category@std@@UEAAPEAXI@Z 00000001400024e0 f i main.obj
 0001:00001510       ??_E_System_error@std@@UEAAPEAXI@Z 0000000140002510 f i main.obj
 0001:00001510       ??_Esystem_error@std@@UEAAPEAXI@Z 0000000140002510 f i main.obj
 0001:00001510       ??_G_System_error@std@@UEAAPEAXI@Z 0000000140002510 f i main.obj
 0001:00001510       ??_Gsystem_error@std@@UEAAPEAXI@Z 0000000140002510 f i main.obj
 0001:00001560       ??_Ebad_alloc@std@@UEAAPEAXI@Z 0000000140002560 f i main.obj
 0001:00001560       ??_Ebad_array_new_length@std@@UEAAPEAXI@Z 0000000140002560 f i main.obj
 0001:00001560       ??_Eexception@std@@UEAAPEAXI@Z 0000000140002560 f i main.obj
 0001:00001560       ??_Eruntime_error@std@@UEAAPEAXI@Z 0000000140002560 f i main.obj
 0001:00001560       ??_Gbad_alloc@std@@UEAAPEAXI@Z 0000000140002560 f i main.obj
 0001:00001560       ??_Gbad_array_new_length@std@@UEAAPEAXI@Z 0000000140002560 f i main.obj
 0001:00001560       ??_Gexception@std@@UEAAPEAXI@Z 0000000140002560 f i main.obj
 0001:00001560       ??_Gruntime_error@std@@UEAAPEAXI@Z 0000000140002560 f i main.obj
 0001:000015b0       ?_Make_ec@std@@YA?AVerror_code@1@W4__std_win_error@@@Z 00000001400025b0 f i main.obj
 0001:000015d0       ?_Throw_bad_array_new_length@std@@YAXXZ 00000001400025d0 f i main.obj
 0001:000015d0       ?__scrt_throw_std_bad_array_new_length@@YAXXZ 00000001400025d0 f i MSVCRT:throw_bad_alloc.obj
 0001:000015f0       ?_Throw_system_error@std@@YAXW4errc@1@@Z 00000001400025f0 f i main.obj
 0001:00001630       ?_Throw_system_error_from_std_win_error@std@@YAXW4__std_win_error@@@Z 0000000140002630 f i main.obj
 0001:00001670       ?_Tidy_deallocate@?$basic_string@_WU?$char_traits@_W@std@@V?$allocator@_W@2@@std@@AEAAXXZ 0000000140002670 f i main.obj
 0001:000016e0       ?_Xlen_string@std@@YAXXZ   00000001400026e0 f i main.obj
 0001:00001700       ?default_error_condition@_System_error_category@std@@UEBA?AVerror_condition@2@H@Z 0000000140002700 f i main.obj
 0001:00001780       ?default_error_condition@error_category@std@@UEBA?AVerror_condition@2@H@Z 0000000140002780 f i main.obj
 0001:00001790       ?equivalent@error_category@std@@UEBA_NAEBVerror_code@2@H@Z 0000000140002790 f i main.obj
 0001:000017b0       ?equivalent@error_category@std@@UEBA_NHAEBVerror_condition@2@@Z 00000001400027b0 f i main.obj
 0001:000017f0       ?make_error_code@std@@YA?AVerror_code@1@W4errc@1@@Z 00000001400027f0 f i main.obj
 0001:00001810       ?message@_Generic_error_category@std@@UEBA?AV?$basic_string@DU?$char_traits@D@std@@V?$allocator@D@2@@2@H@Z 0000000140002810 f i main.obj
 0001:00001860       ?message@_System_error_category@std@@UEBA?AV?$basic_string@DU?$char_traits@D@std@@V?$allocator@D@2@@2@H@Z 0000000140002860 f i main.obj
 0001:00001900       ?name@_Generic_error_category@std@@UEBAPEBDXZ 0000000140002900 f i main.obj
 0001:00001910       ?name@_System_error_category@std@@UEBAPEBDXZ 0000000140002910 f i main.obj
 0001:00001920       ?resize@?$basic_string@_WU?$char_traits@_W@std@@V?$allocator@_W@2@@std@@QEAAX_K_W@Z 0000000140002920 f i main.obj
 0001:000019b0       ?what@exception@std@@UEBAPEBDXZ 00000001400029b0 f i main.obj
 0001:000019d0       main                       00000001400029d0 f   main.obj
 0001:000021d0       ?getPosition@Transformable@sf@@QEBA?AV?$Vector2@M@2@XZ 00000001400031d0 f   sfml-graphics-s:Transformable.obj
 0001:000021e0       ?getTransform@Transformable@sf@@QEBAAEBVTransform@2@XZ 00000001400031e0 f   sfml-graphics-s:Transformable.obj
 0001:00002350       ?setOrigin@Transformable@sf@@QEAAXV?$Vector2@M@2@@Z 0000000140003350 f   sfml-graphics-s:Transformable.obj
 0001:00002360       ?setPosition@Transformable@sf@@QEAAXV?$Vector2@M@2@@Z 0000000140003360 f   sfml-graphics-s:Transformable.obj
 0001:00002370       ?draw@Shape@sf@@EEBAXAEAVRenderTarget@2@URenderStates@2@@Z 0000000140003370 f   sfml-graphics-s:Shape.obj
 0001:00002640       ?getGeometricCenter@Shape@sf@@UEBA?AV?$Vector2@M@2@XZ 0000000140003640 f   sfml-graphics-s:Shape.obj
 0001:000028e0       ?getGlobalBounds@Shape@sf@@QEBA?AV?$Rect@M@2@XZ 00000001400038e0 f   sfml-graphics-s:Shape.obj
 0001:00002930       ?setFillColor@Shape@sf@@QEAAXVColor@2@@Z 0000000140003930 f   sfml-graphics-s:Shape.obj
 0001:00002940       ?transformRect@Transform@sf@@QEBA?AV?$Rect@M@2@AEBV32@@Z 0000000140003940 f i sfml-graphics-s:Shape.obj
 0001:00002ba0       ?update@Shape@sf@@IEAAXXZ  0000000140003ba0 f   sfml-graphics-s:Shape.obj
 0001:00002d50       ?updateFillColors@Shape@sf@@AEAAXXZ 0000000140003d50 f   sfml-graphics-s:Shape.obj
 0001:00002dd0       ?updateOutline@Shape@sf@@AEAAXXZ 0000000140003dd0 f   sfml-graphics-s:Shape.obj
 0001:000031e0       ?updateTexCoords@Shape@sf@@AEAAXXZ 00000001400041e0 f   sfml-graphics-s:Shape.obj
 0001:000033a0       ??0CircleShape@sf@@QEAA@M_K@Z 00000001400043a0 f   sfml-graphics-s:CircleShape.obj
 0001:00003410       ??0Shape@sf@@QEAA@XZ       0000000140004410 f i sfml-graphics-s:CircleShape.obj
 0001:00003570       ??1Shape@sf@@UEAA@XZ       0000000140004570 f i sfml-graphics-s:CircleShape.obj
 0001:00003598       ??_ECircleShape@sf@@W7EAAPEAXI@Z 0000000140004598 f i sfml-graphics-s:CircleShape.obj
 0001:000035a4       ??_EShape@sf@@W7EAAPEAXI@Z 00000001400045a4 f i sfml-graphics-s:CircleShape.obj
 0001:000035b0       ??_ECircleShape@sf@@UEAAPEAXI@Z 00000001400045b0 f i sfml-graphics-s:CircleShape.obj
 0001:000035b0       ??_GCircleShape@sf@@UEAAPEAXI@Z 00000001400045b0 f i sfml-graphics-s:CircleShape.obj
 0001:00003600       ??_EShape@sf@@UEAAPEAXI@Z  0000000140004600 f i sfml-graphics-s:CircleShape.obj
 0001:00003600       ??_GShape@sf@@UEAAPEAXI@Z  0000000140004600 f i sfml-graphics-s:CircleShape.obj
 0001:00003650       ?getGeometricCenter@CircleShape@sf@@UEBA?AV?$Vector2@M@2@XZ 0000000140004650 f   sfml-graphics-s:CircleShape.obj
 0001:00003670       ?getPoint@CircleShape@sf@@UEBA?AV?$Vector2@M@2@_K@Z 0000000140004670 f   sfml-graphics-s:CircleShape.obj
 0001:00003730       ?getPointCount@CircleShape@sf@@UEBA_KXZ 0000000140004730 f   sfml-graphics-s:CircleShape.obj
 0001:00003740       ?getRadius@CircleShape@sf@@QEBAMXZ 0000000140004740 f   sfml-graphics-s:CircleShape.obj
 0001:00003750       ??$?6U?$char_traits@D@std@@@std@@YAAEAV?$basic_ostream@DU?$char_traits@D@std@@@0@AEAV10@D@Z 0000000140004750 f i sfml-graphics-s:Texture.obj
 0001:00003990       ??$?6U?$char_traits@D@std@@@std@@YAAEAV?$basic_ostream@DU?$char_traits@D@std@@@0@AEAV10@PEBD@Z 0000000140004990 f i sfml-graphics-s:Texture.obj
 0001:00003bf0       ??$endl@DU?$char_traits@D@std@@@std@@YAAEAV?$basic_ostream@DU?$char_traits@D@std@@@0@AEAV10@@Z 0000000140004bf0 f i sfml-graphics-s:Texture.obj
 0001:00003c30       ??0?$vector@EV?$allocator@E@std@@@std@@QEAA@_KAEBV?$allocator@E@1@@Z 0000000140004c30 f i sfml-graphics-s:Texture.obj
 0001:00003cf0       ??0Exception@sf@@QEAA@AEBV01@@Z 0000000140004cf0 f i sfml-graphics-s:Texture.obj
 0001:00003d30       ??0Exception@sf@@QEAA@PEBD@Z 0000000140004d30 f i sfml-graphics-s:Texture.obj
 0001:00003d80       ??0Texture@sf@@QEAA@XZ     0000000140004d80 f   sfml-graphics-s:Texture.obj
 0001:00003dc0       ??1?$vector@EV?$allocator@E@std@@@std@@QEAA@XZ 0000000140004dc0 f i sfml-graphics-s:Texture.obj
 0001:00003e20       ??1Exception@sf@@UEAA@XZ   0000000140004e20 f i sfml-graphics-s:Texture.obj
 0001:00003e20       ??1bad_cast@std@@UEAA@XZ   0000000140004e20 f i sfml-graphics-s:Shader.obj
 0001:00003e20       ??1bad_optional_access@std@@UEAA@XZ 0000000140004e20 f i sfml-graphics-s:Font.obj
 0001:00003e40       ??1?$shared_ptr@UFontHandles@Font@sf@@@std@@QEAA@XZ 0000000140004e40 f i sfml-graphics-s:Font.obj
 0001:00003e40       ??1?$shared_ptr@USharedContext@GlContext@priv@sf@@@std@@QEAA@XZ 0000000140004e40 f i sfml-window-s:GlContext.obj
 0001:00003e40       ??1?$shared_ptr@V?$vector@UUnsharedGlObject@Impl@GlContext@priv@sf@@V?$allocator@UUnsharedGlObject@Impl@GlContext@priv@sf@@@std@@@std@@@std@@QEAA@XZ 0000000140004e40 f i sfml-window-s:GlContext.obj
 0001:00003e40       ??1GlResource@sf@@QEAA@XZ  0000000140004e40 f i sfml-graphics-s:Texture.obj
 0001:00003e90       ??1Image@sf@@QEAA@XZ       0000000140004e90 f i sfml-graphics-s:Texture.obj
 0001:00003ef0       ??1Texture@sf@@QEAA@XZ     0000000140004ef0 f   sfml-graphics-s:Texture.obj
 0001:00003f70       ??1_Sentry_base@?$basic_ostream@DU?$char_traits@D@std@@@std@@QEAA@XZ 0000000140004f70 f i sfml-graphics-s:Texture.obj
 0001:00003fa0       ??1sentry@?$basic_ostream@DU?$char_traits@D@std@@@std@@QEAA@XZ 0000000140004fa0 f i sfml-graphics-s:Texture.obj
 0001:00003ff0       ??_EException@sf@@UEAAPEAXI@Z 0000000140004ff0 f i sfml-graphics-s:Texture.obj
 0001:00003ff0       ??_Ebad_cast@std@@UEAAPEAXI@Z 0000000140004ff0 f i sfml-graphics-s:Shader.obj
 0001:00003ff0       ??_Ebad_optional_access@std@@UEAAPEAXI@Z 0000000140004ff0 f i sfml-graphics-s:Font.obj
 0001:00003ff0       ??_GException@sf@@UEAAPEAXI@Z 0000000140004ff0 f i sfml-graphics-s:Texture.obj
 0001:00003ff0       ??_Gbad_cast@std@@UEAAPEAXI@Z 0000000140004ff0 f i sfml-graphics-s:Shader.obj
 0001:00003ff0       ??_Gbad_optional_access@std@@UEAAPEAXI@Z 0000000140004ff0 f i sfml-graphics-s:Font.obj
 0001:00004040       ?_Xlength@?$vector@EV?$allocator@E@std@@@std@@CAXXZ 0000000140005040 f i sfml-graphics-s:Texture.obj
 0001:00004040       ?_Xlength@?$vector@HV?$allocator@H@std@@@std@@CAXXZ 0000000140005040 f i sfml-window-s:WglContext.obj
 0001:00004040       ?_Xlength@?$vector@URow@Font@sf@@V?$allocator@URow@Font@sf@@@std@@@std@@CAXXZ 0000000140005040 f i sfml-graphics-s:Font.obj
 0001:00004040       ?_Xlength@?$vector@UVertex@sf@@V?$allocator@UVertex@sf@@@std@@@std@@CAXXZ 0000000140005040 f i sfml-graphics-s:VertexArray.obj
 0001:00004040       ?_Xlength@?$vector@V?$basic_string@DU?$char_traits@D@std@@V?$allocator@D@2@@std@@V?$allocator@V?$basic_string@DU?$char_traits@D@std@@V?$allocator@D@2@@std@@@2@@std@@CAXXZ 0000000140005040 f i sfml-window-s:GlContext.obj
 0001:00004040       ?_Xlength@?$vector@VVideoMode@sf@@V?$allocator@VVideoMode@sf@@@std@@@std@@CAXXZ 0000000140005040 f i sfml-window-s:VideoModeImpl.obj
 0001:00004060       ?bind@Texture@sf@@SAXPEBV12@W4CoordinateType@2@@Z 0000000140005060 f   sfml-graphics-s:Texture.obj
 0001:000041d0       ?copyToImage@Texture@sf@@QEBA?AVImage@2@XZ 00000001400051d0 f   sfml-graphics-s:Texture.obj
 0001:00004440       ?getMaximumSize@Texture@sf@@SAIXZ 0000000140005440 f   sfml-graphics-s:Texture.obj
 0001:000044e0       ?getSize@Texture@sf@@QEBA?AV?$Vector2@I@2@XZ 00000001400054e0 f   sfml-graphics-s:Texture.obj
 0001:000044e0       ?getSize@WindowBase@sf@@QEBA?AV?$Vector2@I@2@XZ 00000001400054e0 f   sfml-window-s:WindowBase.obj
 0001:000044f0       ?loadFromImage@Texture@sf@@QEAA_NAEBVImage@2@_NAEBV?$Rect@H@2@@Z 00000001400054f0 f   sfml-graphics-s:Texture.obj
 0001:00004730       ?resize@Texture@sf@@QEAA_NV?$Vector2@I@2@_N@Z 0000000140005730 f   sfml-graphics-s:Texture.obj
 0001:00004ca0       ?setSmooth@Texture@sf@@QEAAX_N@Z 0000000140005ca0 f   sfml-graphics-s:Texture.obj
 0001:00004d60       ?swap@Texture@sf@@QEAAXAEAV12@@Z 0000000140005d60 f   sfml-graphics-s:Texture.obj
 0001:00004e10       ?update@Texture@sf@@QEAAXAEBV12@@Z 0000000140005e10 f   sfml-graphics-s:Texture.obj
 0001:00004e20       ?update@Texture@sf@@QEAAXAEBV12@V?$Vector2@I@2@@Z 0000000140005e20 f   sfml-graphics-s:Texture.obj
 0001:00005180       ?update@Texture@sf@@QEAAXPEBEV?$Vector2@I@2@1@Z 0000000140006180 f   sfml-graphics-s:Texture.obj
 0001:00005280       ??$_Emplace_reallocate@AEAIAEBI@?$vector@URow@Font@sf@@V?$allocator@URow@Font@sf@@@std@@@std@@AEAAPEAURow@Font@sf@@QEAU234@AEAIAEBI@Z 0000000140006280 f i sfml-graphics-s:Font.obj
 0001:000054a0       ??$_Insert_string@DU?$char_traits@D@std@@_K@std@@YAAEAV?$basic_ostream@DU?$char_traits@D@std@@@0@AEAV10@QEBD_K@Z 00000001400064a0 f i sfml-graphics-s:Font.obj
 0001:000056f0       ??$_Reallocate_grow_by@V<lambda_1>@?1??append@?$basic_string@DU?$char_traits@D@std@@V?$allocator@D@2@@std@@QEAAAEAV34@_KD@Z@_KD@?$basic_string@DU?$char_traits@D@std@@V?$allocator@D@2@@std@@AEAAAEAV01@_KV<lambda_1>@?1??append@01@QEAAAEAV01@0D@Z@_KD@Z 00000001400066f0 f i sfml-graphics-s:Font.obj
 0001:00005880       ??$_Resize_reallocate@U_Value_init_tag@std@@@?$vector@EV?$allocator@E@std@@@std@@AEAAX_KAEBU_Value_init_tag@1@@Z 0000000140006880 f i sfml-graphics-s:Font.obj
 0001:000059e0       ??$_Try_emplace@AEBIAEB_N@?$_Hash@V?$_Umap_traits@IUPage@Font@sf@@V?$_Uhash_compare@IU?$hash@I@std@@U?$equal_to@I@2@@std@@V?$allocator@U?$pair@$$CBIUPage@Font@sf@@@std@@@5@$0A@@std@@@std@@IEAA?AU?$pair@PEAU?$_List_node@U?$pair@$$CBIUPage@Font@sf@@@std@@PEAX@std@@_N@1@AEBIAEB_N@Z 00000001400069e0 f i sfml-graphics-s:Font.obj
 0001:00005cb0       ??$_Try_emplace@AEB_KAEBUGlyph@sf@@@?$_Hash@V?$_Umap_traits@_KUGlyph@sf@@V?$_Uhash_compare@_KU?$hash@_K@std@@U?$equal_to@_K@2@@std@@V?$allocator@U?$pair@$$CB_KUGlyph@sf@@@std@@@4@$0A@@std@@@std@@IEAA?AU?$pair@PEAU?$_List_node@U?$pair@$$CB_KUGlyph@sf@@@std@@PEAX@std@@_N@1@AEB_KAEBUGlyph@sf@@@Z 0000000140006cb0 f i sfml-graphics-s:Font.obj
 0001:00005fc0       ??$fill@PEAV?$_List_unchecked_iterator@V?$_List_val@U?$_List_simple_types@U?$pair@$$CBIUPage@Font@sf@@@std@@@std@@@std@@@std@@V12@@std@@YAXQEAV?$_List_unchecked_iterator@V?$_List_val@U?$_List_simple_types@U?$pair@$$CBIUPage@Font@sf@@@std@@@std@@@std@@@0@0AEBV10@@Z 0000000140006fc0 f i sfml-graphics-s:Font.obj
 0001:00005fc0       ??$fill@PEAV?$_List_unchecked_iterator@V?$_List_val@U?$_List_simple_types@U?$pair@$$CB_KUGlyph@sf@@@std@@@std@@@std@@@std@@V12@@std@@YAXQEAV?$_List_unchecked_iterator@V?$_List_val@U?$_List_simple_types@U?$pair@$$CB_KUGlyph@sf@@@std@@@std@@@std@@@0@0AEBV10@@Z 0000000140006fc0 f i sfml-graphics-s:Font.obj
 0001:00005fc0       ??$fill@PEAV?$_List_unchecked_iterator@V?$_List_val@U?$_List_simple_types@U?$pair@$$CB_K_K@std@@@std@@@std@@@std@@V12@@std@@YAXQEAV?$_List_unchecked_iterator@V?$_List_val@U?$_List_simple_types@U?$pair@$$CB_K_K@std@@@std@@@std@@@0@0AEBV10@@Z 0000000140006fc0 f i sfml-graphics-s:RenderTarget.obj
 0001:00006050       ??0?$unordered_map@IUPage@Font@sf@@U?$hash@I@std@@U?$equal_to@I@5@V?$allocator@U?$pair@$$CBIUPage@Font@sf@@@std@@@5@@std@@QEAA@XZ 0000000140007050 f i sfml-graphics-s:Font.obj
 0001:000060d0       ??0Font@sf@@QEAA@AEBVpath@filesystem@std@@@Z 00000001400070d0 f   sfml-graphics-s:Font.obj
 0001:00006170       ??0Page@Font@sf@@QEAA@_N@Z 0000000140007170 f   sfml-graphics-s:Font.obj
 0001:00006350       ??0bad_optional_access@std@@QEAA@AEBV01@@Z 0000000140007350 f i sfml-graphics-s:Font.obj
 0001:00006390       ??0bad_optional_access@std@@QEAA@XZ 0000000140007390 f i sfml-graphics-s:Font.obj
 0001:000063b0       ??1?$_Alloc_construct_ptr@V?$allocator@U?$_List_node@U?$pair@$$CBIUPage@Font@sf@@@std@@PEAX@std@@@std@@@std@@QEAA@XZ 00000001400073b0 f i sfml-graphics-s:Font.obj
 0001:000063d0       ??1?$_Alloc_construct_ptr@V?$allocator@U?$_List_node@U?$pair@$$CB_KUGlyph@sf@@@std@@PEAX@std@@@std@@@std@@QEAA@XZ 00000001400073d0 f i sfml-graphics-s:Font.obj
 0001:000063d0       ??1?$_List_node_emplace_op2@V?$allocator@U?$_List_node@U?$pair@$$CB_KUGlyph@sf@@@std@@PEAX@std@@@std@@@std@@QEAA@XZ 00000001400073d0 f i sfml-graphics-s:Font.obj
 0001:000063f0       ??1?$_Hash@V?$_Umap_traits@IUPage@Font@sf@@V?$_Uhash_compare@IU?$hash@I@std@@U?$equal_to@I@2@@std@@V?$allocator@U?$pair@$$CBIUPage@Font@sf@@@std@@@5@$0A@@std@@@std@@QEAA@XZ 00000001400073f0 f i sfml-graphics-s:Font.obj
 0001:00006470       ??1?$_Hash@V?$_Umap_traits@_KUGlyph@sf@@V?$_Uhash_compare@_KU?$hash@_K@std@@U?$equal_to@_K@2@@std@@V?$allocator@U?$pair@$$CB_KUGlyph@sf@@@std@@@4@$0A@@std@@@std@@QEAA@XZ 0000000140007470 f i sfml-graphics-s:Font.obj
 0001:00006520       ??1?$_Hash_vec@V?$allocator@V?$_List_unchecked_iterator@V?$_List_val@U?$_List_simple_types@U?$pair@$$CBIUPage@Font@sf@@@std@@@std@@@std@@@std@@@std@@@std@@QEAA@XZ 0000000140007520 f i sfml-graphics-s:Font.obj
 0001:00006520       ??1?$_Hash_vec@V?$allocator@V?$_List_unchecked_iterator@V?$_List_val@U?$_List_simple_types@U?$pair@$$CB_KUGlyph@sf@@@std@@@std@@@std@@@std@@@std@@@std@@QEAA@XZ 0000000140007520 f i sfml-graphics-s:Font.obj
 0001:00006520       ??1?$_Hash_vec@V?$allocator@V?$_List_unchecked_iterator@V?$_List_val@U?$_List_simple_types@U?$pair@$$CB_K_K@std@@@std@@@std@@@std@@@std@@@std@@QEAA@XZ 0000000140007520 f i sfml-graphics-s:RenderTarget.obj
 0001:00006580       ??1?$_List_node_emplace_op2@V?$allocator@U?$_List_node@U?$pair@$$CBIUPage@Font@sf@@@std@@PEAX@std@@@std@@@std@@QEAA@XZ 0000000140007580 f i sfml-graphics-s:Font.obj
 0001:000065e0       ??1?$basic_string@DU?$char_traits@D@std@@V?$allocator@D@2@@std@@QEAA@XZ 00000001400075e0 f i sfml-graphics-s:Font.obj
 0001:000065e0       ??1Info@Font@sf@@QEAA@XZ   00000001400075e0 f i sfml-graphics-s:Font.obj
 0001:00006640       ??1?$list@U?$pair@$$CBIUPage@Font@sf@@@std@@V?$allocator@U?$pair@$$CBIUPage@Font@sf@@@std@@@2@@std@@QEAA@XZ 0000000140007640 f i sfml-graphics-s:Font.obj
 0001:00006670       ??1?$list@U?$pair@$$CB_KUGlyph@sf@@@std@@V?$allocator@U?$pair@$$CB_KUGlyph@sf@@@std@@@2@@std@@QEAA@XZ 0000000140007670 f i sfml-graphics-s:Font.obj
 0001:000066d0       ??1?$unordered_map@IUPage@Font@sf@@U?$hash@I@std@@U?$equal_to@I@5@V?$allocator@U?$pair@$$CBIUPage@Font@sf@@@std@@@5@@std@@QEAA@XZ 00000001400076d0 f i sfml-graphics-s:Font.obj
 0001:000066e0       ??1?$unordered_map@_KUGlyph@sf@@U?$hash@_K@std@@U?$equal_to@_K@4@V?$allocator@U?$pair@$$CB_KUGlyph@sf@@@std@@@4@@std@@QEAA@XZ 00000001400076e0 f i sfml-graphics-s:Font.obj
 0001:000066f0       ??1?$vector@URow@Font@sf@@V?$allocator@URow@Font@sf@@@std@@@std@@QEAA@XZ 00000001400076f0 f i sfml-graphics-s:Font.obj
 0001:000066f0       ??1?$vector@VVideoMode@sf@@V?$allocator@VVideoMode@sf@@@std@@@std@@QEAA@XZ 00000001400076f0 f i sfml-window-s:VideoMode.obj
 0001:00006770       ??4?$basic_string@DU?$char_traits@D@std@@V?$allocator@D@2@@std@@QEAAAEAV01@$$QEAV01@@Z 0000000140007770 f i sfml-graphics-s:Font.obj
 0001:00006800       ??4?$shared_ptr@UFontHandles@Font@sf@@@std@@QEAAAEAV01@$$QEAV01@@Z 0000000140007800 f i sfml-graphics-s:Font.obj
 0001:00006880       ??_E?$_Ref_count_obj2@UFontHandles@Font@sf@@@std@@UEAAPEAXI@Z 0000000140007880 f i sfml-graphics-s:Font.obj
 0001:00006880       ??_G?$_Ref_count_obj2@UFontHandles@Font@sf@@@std@@UEAAPEAXI@Z 0000000140007880 f i sfml-graphics-s:Font.obj
 0001:000068b0       ?_Assign_grow@?$_Hash_vec@V?$allocator@V?$_List_unchecked_iterator@V?$_List_val@U?$_List_simple_types@U?$pair@$$CBIUPage@Font@sf@@@std@@@std@@@std@@@std@@@std@@@std@@QEAAX_KV?$_List_unchecked_iterator@V?$_List_val@U?$_List_simple_types@U?$pair@$$CBIUPage@Font@sf@@@std@@@std@@@std@@@2@@Z 00000001400078b0 f i sfml-graphics-s:Font.obj
 0001:000068b0       ?_Assign_grow@?$_Hash_vec@V?$allocator@V?$_List_unchecked_iterator@V?$_List_val@U?$_List_simple_types@U?$pair@$$CB_KUGlyph@sf@@@std@@@std@@@std@@@std@@@std@@@std@@QEAAX_KV?$_List_unchecked_iterator@V?$_List_val@U?$_List_simple_types@U?$pair@$$CB_KUGlyph@sf@@@std@@@std@@@std@@@2@@Z 00000001400078b0 f i sfml-graphics-s:Font.obj
 0001:000068b0       ?_Assign_grow@?$_Hash_vec@V?$allocator@V?$_List_unchecked_iterator@V?$_List_val@U?$_List_simple_types@U?$pair@$$CB_K_K@std@@@std@@@std@@@std@@@std@@@std@@QEAAX_KV?$_List_unchecked_iterator@V?$_List_val@U?$_List_simple_types@U?$pair@$$CB_K_K@std@@@std@@@std@@@2@@Z 00000001400078b0 f i sfml-graphics-s:RenderTarget.obj
 0001:000069f0       ?_Delete_this@?$_Ref_count_obj2@UFontHandles@Font@sf@@@std@@EEAAXXZ 00000001400079f0 f i sfml-graphics-s:Font.obj
 0001:000069f0       ?_Delete_this@?$_Ref_count_obj2@USharedContext@GlContext@priv@sf@@@std@@EEAAXXZ 00000001400079f0 f i sfml-window-s:GlContext.obj
 0001:000069f0       ?_Delete_this@?$_Ref_count_obj2@V?$vector@UUnsharedGlObject@Impl@GlContext@priv@sf@@V?$allocator@UUnsharedGlObject@Impl@GlContext@priv@sf@@@std@@@std@@@std@@EEAAXXZ 00000001400079f0 f i sfml-window-s:GlContext.obj
 0001:00006a10       ?_Destroy@?$_Ref_count_obj2@UFontHandles@Font@sf@@@std@@EEAAXXZ 0000000140007a10 f i sfml-graphics-s:Font.obj
 0001:00006a40       ?_Forced_rehash@?$_Hash@V?$_Umap_traits@IUPage@Font@sf@@V?$_Uhash_compare@IU?$hash@I@std@@U?$equal_to@I@2@@std@@V?$allocator@U?$pair@$$CBIUPage@Font@sf@@@std@@@5@$0A@@std@@@std@@IEAAX_K@Z 0000000140007a40 f i sfml-graphics-s:Font.obj
 0001:00006c00       ?_Forced_rehash@?$_Hash@V?$_Umap_traits@_KUGlyph@sf@@V?$_Uhash_compare@_KU?$hash@_K@std@@U?$equal_to@_K@2@@std@@V?$allocator@U?$pair@$$CB_KUGlyph@sf@@@std@@@4@$0A@@std@@@std@@IEAAX_K@Z 0000000140007c00 f i sfml-graphics-s:Font.obj
 0001:00006c00       ?_Forced_rehash@?$_Hash@V?$_Umap_traits@_K_KV?$_Uhash_compare@_KU?$hash@_K@std@@U?$equal_to@_K@2@@std@@V?$allocator@U?$pair@$$CB_K_K@std@@@2@$0A@@std@@@std@@IEAAX_K@Z 0000000140007c00 f i sfml-graphics-s:RenderTarget.obj
 0001:00006df0       ?_Get_deleter@_Ref_count_base@std@@UEBAPEAXAEBVtype_info@@@Z 0000000140007df0 f i sfml-graphics-s:Font.obj
 0001:00006e00       ?_Throw_bad_optional_access@std@@YAXXZ 0000000140007e00 f i sfml-graphics-s:Font.obj
 0001:00006e30       ?_Unchecked_erase@?$_Hash@V?$_Umap_traits@IUPage@Font@sf@@V?$_Uhash_compare@IU?$hash@I@std@@U?$equal_to@I@2@@std@@V?$allocator@U?$pair@$$CBIUPage@Font@sf@@@std@@@5@$0A@@std@@@std@@AEAAPEAU?$_List_node@U?$pair@$$CBIUPage@Font@sf@@@std@@PEAX@2@PEAU32@QEAU32@@Z 0000000140007e30 f i sfml-graphics-s:Font.obj
 0001:00007090       ?cleanup@Font@sf@@AEAAXXZ  0000000140008090 f   sfml-graphics-s:Font.obj
 0001:00007160       ?clear@?$_Hash@V?$_Umap_traits@IUPage@Font@sf@@V?$_Uhash_compare@IU?$hash@I@std@@U?$equal_to@I@2@@std@@V?$allocator@U?$pair@$$CBIUPage@Font@sf@@@std@@@5@$0A@@std@@@std@@QEAAXXZ 0000000140008160 f i sfml-graphics-s:Font.obj
 0001:000071f0       ?deallocate@?$allocator@D@std@@QEAAXQEAD_K@Z 00000001400081f0 f i sfml-graphics-s:Shader.obj
 0001:000071f0       ?deallocate@?$allocator@E@std@@QEAAXQEAE_K@Z 00000001400081f0 f i sfml-graphics-s:Font.obj
 0001:00007230       ?deallocate@?$allocator@URow@Font@sf@@@std@@QEAAXQEAURow@Font@sf@@_K@Z 0000000140008230 f i sfml-graphics-s:Font.obj
 0001:00007230       ?deallocate@?$allocator@VVideoMode@sf@@@std@@QEAAXQEAVVideoMode@sf@@_K@Z 0000000140008230 f i sfml-window-s:VideoModeImpl.obj
 0001:00007280       ?findGlyphRect@Font@sf@@AEBA?AV?$Rect@H@2@AEAUPage@12@V?$Vector2@I@2@@Z 0000000140008280 f   sfml-graphics-s:Font.obj
 0001:00007590       ?getGlyph@Font@sf@@QEBAAEBUGlyph@2@_UI_NM@Z 0000000140008590 f   sfml-graphics-s:Font.obj
 0001:00007760       ?getKerning@Font@sf@@QEBAMIII_N@Z 0000000140008760 f   sfml-graphics-s:Font.obj
 0001:000078e0       ?getLineSpacing@Font@sf@@QEBAMI@Z 00000001400088e0 f   sfml-graphics-s:Font.obj
 0001:00007930       ?getTexture@Font@sf@@QEBAAEBVTexture@2@I@Z 0000000140008930 f   sfml-graphics-s:Font.obj
 0001:00007960       ?getUnderlinePosition@Font@sf@@QEBAMI@Z 0000000140008960 f   sfml-graphics-s:Font.obj
 0001:000079f0       ?getUnderlineThickness@Font@sf@@QEBAMI@Z 00000001400089f0 f   sfml-graphics-s:Font.obj
 0001:00007a80       ?loadGlyph@Font@sf@@AEBA?AUGlyph@2@_UI_NM@Z 0000000140008a80 f   sfml-graphics-s:Font.obj
 0001:00007f60       ?openFromFile@Font@sf@@QEAA_NAEBVpath@filesystem@std@@@Z 0000000140008f60 f   sfml-graphics-s:Font.obj
 0001:000085d0       ?resize@?$basic_string@DU?$char_traits@D@std@@V?$allocator@D@2@@std@@QEAAX_KD@Z 00000001400095d0 f i sfml-graphics-s:Font.obj
 0001:00008670       ?setCurrentSize@Font@sf@@AEBA_NI@Z 0000000140009670 f   sfml-graphics-s:Font.obj
 0001:000087d0       ?what@bad_optional_access@std@@UEBAPEBDXZ 00000001400097d0 f i sfml-graphics-s:Font.obj
 0001:000087e0       ??$_Try_emplace@AEB_K$$V@?$_Hash@V?$_Umap_traits@_K_KV?$_Uhash_compare@_KU?$hash@_K@std@@U?$equal_to@_K@2@@std@@V?$allocator@U?$pair@$$CB_K_K@std@@@2@$0A@@std@@@std@@IEAA?AU?$pair@PEAU?$_List_node@U?$pair@$$CB_K_K@std@@PEAX@std@@_N@1@AEB_K@Z 00000001400097e0 f i sfml-graphics-s:RenderTarget.obj
 0001:00008ae0       ??1?$_Alloc_construct_ptr@V?$allocator@U?$_List_node@U?$pair@$$CB_K_K@std@@PEAX@std@@@std@@@std@@QEAA@XZ 0000000140009ae0 f i sfml-graphics-s:RenderTarget.obj
 0001:00008ae0       ??1?$_List_node_emplace_op2@V?$allocator@U?$_List_node@U?$pair@$$CB_K_K@std@@PEAX@std@@@std@@@std@@QEAA@XZ 0000000140009ae0 f i sfml-graphics-s:RenderTarget.obj
 0001:00008b00       ??1?$_Hash@V?$_Umap_traits@_K_KV?$_Uhash_compare@_KU?$hash@_K@std@@U?$equal_to@_K@2@@std@@V?$allocator@U?$pair@$$CB_K_K@std@@@2@$0A@@std@@@std@@QEAA@XZ 0000000140009b00 f i sfml-graphics-s:RenderTarget.obj
 0001:00008bb0       ??1?$list@U?$pair@$$CB_K_K@std@@V?$allocator@U?$pair@$$CB_K_K@std@@@2@@std@@QEAA@XZ 0000000140009bb0 f i sfml-graphics-s:RenderTarget.obj
 0001:00008c10       ??1?$lock_guard@Vmutex@std@@@std@@QEAA@XZ 0000000140009c10 f i sfml-window-s:GlContext.obj
 0001:00008c10       ??1?$lock_guard@Vrecursive_mutex@std@@@std@@QEAA@XZ 0000000140009c10 f i sfml-graphics-s:RenderTarget.obj
 0001:00008c20       ?applyBlendMode@RenderTarget@sf@@AEAAXAEBUBlendMode@2@@Z 0000000140009c20 f   sfml-graphics-s:RenderTarget.obj
 0001:00008dc0       ?applyCurrentView@RenderTarget@sf@@AEAAXXZ 0000000140009dc0 f   sfml-graphics-s:RenderTarget.obj
 0001:00009000       ?applyStencilMode@RenderTarget@sf@@AEAAXAEBUStencilMode@2@@Z 000000014000a000 f   sfml-graphics-s:RenderTarget.obj
 0001:000091d0       ?cleanupDraw@RenderTarget@sf@@AEAAXAEBURenderStates@2@@Z 000000014000a1d0 f   sfml-graphics-s:RenderTarget.obj
 0001:00009250       ?clear@RenderTarget@sf@@QEAAXVColor@2@@Z 000000014000a250 f   sfml-graphics-s:RenderTarget.obj
 0001:00009330       ?draw@RenderTarget@sf@@QEAAXAEBVDrawable@2@AEBURenderStates@2@@Z 000000014000a330 f   sfml-graphics-s:RenderTarget.obj
 0001:000093a0       ?draw@RenderTarget@sf@@QEAAXPEBUVertex@2@_KW4PrimitiveType@2@AEBURenderStates@2@@Z 000000014000a3a0 f   sfml-graphics-s:RenderTarget.obj
 0001:00009a10       ?getView@RenderTarget@sf@@QEBAAEBVView@2@XZ 000000014000aa10 f   sfml-graphics-s:RenderTarget.obj
 0001:00009a20       ?getViewport@RenderTarget@sf@@QEBA?AV?$Rect@H@2@AEBVView@2@@Z 000000014000aa20 f   sfml-graphics-s:RenderTarget.obj
 0001:00009b10       ?initialize@RenderTarget@sf@@IEAAXXZ 000000014000ab10 f   sfml-graphics-s:RenderTarget.obj
 0001:00009e30       ?isAvailable@SensorImpl@priv@sf@@SA_NW4Type@Sensor@3@@Z 000000014000ae30 f   sfml-window-s:SensorImpl.obj
 0001:00009e30       ?isSrgb@RenderTarget@sf@@UEBA_NXZ 000000014000ae30 f   sfml-graphics-s:RenderTarget.obj
 0001:00009e30       ?open@SensorImpl@priv@sf@@QEAA_NW4Type@Sensor@3@@Z 000000014000ae30 f   sfml-window-s:SensorImpl.obj
 0001:00009e40       ?resetGLStates@RenderTarget@sf@@QEAAXXZ 000000014000ae40 f   sfml-graphics-s:RenderTarget.obj
 0001:0000a020       ?setActive@RenderTarget@sf@@UEAA_N_N@Z 000000014000b020 f   sfml-graphics-s:RenderTarget.obj
 0001:0000a290       ?setView@RenderTarget@sf@@QEAAXAEBVView@2@@Z 000000014000b290 f   sfml-graphics-s:RenderTarget.obj
 0001:0000a320       ?setupDraw@RenderTarget@sf@@AEAAX_NAEBURenderStates@2@@Z 000000014000b320 f   sfml-graphics-s:RenderTarget.obj
 0001:0000a5e0       ??0RenderTarget@sf@@IEAA@XZ 000000014000b5e0 f i sfml-graphics-s:RenderWindow.obj
 0001:0000a760       ??0RenderWindow@sf@@QEAA@VVideoMode@1@AEBVString@1@W4State@1@AEBUContextSettings@1@@Z 000000014000b760 f   sfml-graphics-s:RenderWindow.obj
 0001:0000a810       ??0View@sf@@QEAA@XZ        000000014000b810 f i sfml-graphics-s:RenderWindow.obj
 0001:0000a8f0       ??_ERenderWindow@sf@@WEI@EAAPEAXI@Z 000000014000b8f0 f i sfml-graphics-s:RenderWindow.obj
 0001:0000a900       ??_ERenderTarget@sf@@UEAAPEAXI@Z 000000014000b900 f i sfml-graphics-s:RenderWindow.obj
 0001:0000a900       ??_GRenderTarget@sf@@UEAAPEAXI@Z 000000014000b900 f i sfml-graphics-s:RenderWindow.obj
 0001:0000a930       ??_ERenderWindow@sf@@UEAAPEAXI@Z 000000014000b930 f i sfml-graphics-s:RenderWindow.obj
 0001:0000a930       ??_GRenderWindow@sf@@UEAAPEAXI@Z 000000014000b930 f i sfml-graphics-s:RenderWindow.obj
 0001:0000a970       ?getSize@RenderWindow@sf@@UEBA?AV?$Vector2@I@2@XZ 000000014000b970 f   sfml-graphics-s:RenderWindow.obj
 0001:0000a990       ?isSrgb@RenderWindow@sf@@UEBA_NXZ 000000014000b990 f   sfml-graphics-s:RenderWindow.obj
 0001:0000a9b0       ?onCreate@RenderWindow@sf@@MEAAXXZ 000000014000b9b0 f   sfml-graphics-s:RenderWindow.obj
 0001:0000a9f0       ?onResize@RenderWindow@sf@@MEAAXXZ 000000014000b9f0 f   sfml-graphics-s:RenderWindow.obj
 0001:0000aa20       ?setActive@RenderWindow@sf@@UEAA_N_N@Z 000000014000ba20 f   sfml-graphics-s:RenderWindow.obj
 0001:0000aaa0       ??0Text@sf@@QEAA@AEBVFont@1@VString@1@I@Z 000000014000baa0 f   sfml-graphics-s:Text.obj
 0001:0000acbc       ??_EText@sf@@W7EAAPEAXI@Z  000000014000bcbc f i sfml-graphics-s:Text.obj
 0001:0000acd0       ??_EText@sf@@UEAAPEAXI@Z   000000014000bcd0 f i sfml-graphics-s:Text.obj
 0001:0000acd0       ??_GText@sf@@UEAAPEAXI@Z   000000014000bcd0 f i sfml-graphics-s:Text.obj
 0001:0000b190       ?draw@Text@sf@@EEBAXAEAVRenderTarget@2@URenderStates@2@@Z 000000014000c190 f   sfml-graphics-s:Text.obj
 0001:0000b460       ?ensureGeometryUpdate@Text@sf@@AEBAXXZ 000000014000c460 f   sfml-graphics-s:Text.obj
 0001:0000bc00       ?setFillColor@Text@sf@@QEAAXVColor@2@@Z 000000014000cc00 f   sfml-graphics-s:Text.obj
 0001:0000bcd0       ??$_Emplace_reallocate@AEBUVertex@sf@@@?$vector@UVertex@sf@@V?$allocator@UVertex@sf@@@std@@@std@@AEAAPEAUVertex@sf@@QEAU23@AEBU23@@Z 000000014000ccd0 f i sfml-graphics-s:VertexArray.obj
 0001:0000be70       ??$_Resize_reallocate@U_Value_init_tag@std@@@?$vector@UVertex@sf@@V?$allocator@UVertex@sf@@@std@@@std@@AEAAX_KAEBU_Value_init_tag@1@@Z 000000014000ce70 f i sfml-graphics-s:VertexArray.obj
 0001:0000c000       ??0?$vector@UVertex@sf@@V?$allocator@UVertex@sf@@@std@@@std@@QEAA@_KAEBV?$allocator@UVertex@sf@@@1@@Z 000000014000d000 f i sfml-graphics-s:VertexArray.obj
 0001:0000c110       ??0VertexArray@sf@@QEAA@W4PrimitiveType@1@_K@Z 000000014000d110 f   sfml-graphics-s:VertexArray.obj
 0001:0000c150       ??AVertexArray@sf@@QEAAAEAUVertex@1@_K@Z 000000014000d150 f   sfml-graphics-s:VertexArray.obj
 0001:0000c160       ??_EVertexArray@sf@@UEAAPEAXI@Z 000000014000d160 f i sfml-graphics-s:VertexArray.obj
 0001:0000c160       ??_GVertexArray@sf@@UEAAPEAXI@Z 000000014000d160 f i sfml-graphics-s:VertexArray.obj
 0001:0000c1a0       ?_Change_array@?$vector@UVertex@sf@@V?$allocator@UVertex@sf@@@std@@@std@@AEAAXQEAUVertex@sf@@_K1@Z 000000014000d1a0 f i sfml-graphics-s:VertexArray.obj
 0001:0000c260       ?_Tidy@?$vector@UVertex@sf@@V?$allocator@UVertex@sf@@@std@@@std@@AEAAXXZ 000000014000d260 f i sfml-graphics-s:VertexArray.obj
 0001:0000c2e0       ?append@VertexArray@sf@@QEAAXAEBUVertex@2@@Z 000000014000d2e0 f   sfml-graphics-s:VertexArray.obj
 0001:0000c310       ?clear@VertexArray@sf@@QEAAXXZ 000000014000d310 f   sfml-graphics-s:VertexArray.obj
 0001:0000c320       ?deallocate@?$allocator@UVertex@sf@@@std@@QEAAXQEAUVertex@sf@@_K@Z 000000014000d320 f i sfml-graphics-s:VertexArray.obj
 0001:0000c370       ?draw@VertexArray@sf@@EEBAXAEAVRenderTarget@2@URenderStates@2@@Z 000000014000d370 f   sfml-graphics-s:VertexArray.obj
 0001:0000c3c0       ?getBounds@VertexArray@sf@@QEBA?AV?$Rect@M@2@XZ 000000014000d3c0 f   sfml-graphics-s:VertexArray.obj
 0001:0000c480       ?getVertexCount@VertexArray@sf@@QEBA_KXZ 000000014000d480 f   sfml-graphics-s:VertexArray.obj
 0001:0000c4b0       ?resize@VertexArray@sf@@QEAAX_K@Z 000000014000d4b0 f   sfml-graphics-s:VertexArray.obj
 0001:0000c560       ?ensureExtensionsInit@priv@sf@@YAXXZ 000000014000d560 f   sfml-graphics-s:GLExtensions.obj
 0001:0000c8a0       __local_stdio_scanf_options 000000014000d8a0 f i sfml-graphics-s:GLExtensions.obj
 0001:0001c8c0       sscanf_s                   000000014001d8c0 f i sfml-graphics-s:GLExtensions.obj
 0001:0001c9c0       ??$?6DU?$char_traits@D@std@@@filesystem@std@@YAAEAV?$basic_ostream@DU?$char_traits@D@std@@@1@AEAV21@AEBVpath@01@@Z 000000014001d9c0 f i sfml-graphics-s:Image.obj
 0001:0001cbd0       ??$?6U?$char_traits@D@std@@U01@@std@@YAAEAV?$basic_ostream@DU?$char_traits@D@std@@@0@AEAV10@AEBU?$_Quote_out@DU?$char_traits@D@std@@_K@0@@Z 000000014001dbd0 f i sfml-graphics-s:Image.obj
 0001:0001cbd0       ??$?6U?$char_traits@D@std@@X@std@@YAAEAV?$basic_ostream@DU?$char_traits@D@std@@@0@AEAV10@AEBU?$_Quote_out@DX_K@0@@Z 000000014001dbd0 f i sfml-window-s:GlContext.obj
 0001:0001cef0       ??$_Reallocate_grow_by@V<lambda_1>@?1??append@?$basic_string@_WU?$char_traits@_W@std@@V?$allocator@_W@2@@std@@QEAAAEAV34@_K_W@Z@_K_W@?$basic_string@_WU?$char_traits@_W@std@@V?$allocator@_W@2@@std@@AEAAAEAV01@_KV<lambda_1>@?1??append@01@QEAAAEAV01@0_W@Z@_K_W@Z 000000014001def0 f i sfml-graphics-s:Image.obj
 0001:0001d0a0       ??0Image@sf@@QEAA@V?$Vector2@I@1@PEBE@Z 000000014001e0a0 f   sfml-graphics-s:Image.obj
 0001:0001d0d0       ??0Image@sf@@QEAA@V?$Vector2@I@1@VColor@1@@Z 000000014001e0d0 f   sfml-graphics-s:Image.obj
 0001:0001d100       ??4?$vector@EV?$allocator@E@std@@@std@@QEAAAEAV01@$$QEAV01@@Z 000000014001e100 f i sfml-graphics-s:Image.obj
 0001:0001d1a0       ?getPixelsPtr@Image@sf@@QEBAPEBEXZ 000000014001e1a0 f   sfml-graphics-s:Image.obj
 0001:0001d1e0       ?getSize@Image@sf@@QEBA?AV?$Vector2@I@2@XZ 000000014001e1e0 f   sfml-graphics-s:Image.obj
 0001:0001d1f0       ?resize@Image@sf@@QEAAXV?$Vector2@I@2@PEBE@Z 000000014001e1f0 f   sfml-graphics-s:Image.obj
 0001:0001d380       ?resize@Image@sf@@QEAAXV?$Vector2@I@2@VColor@2@@Z 000000014001e380 f   sfml-graphics-s:Image.obj
 0001:0001d560       ?setPixel@Image@sf@@QEAAXV?$Vector2@I@2@VColor@2@@Z 000000014001e560 f   sfml-graphics-s:Image.obj
 0001:0001d5a0       __local_stdio_printf_options 000000014001e5a0 f i sfml-graphics-s:Image.obj
 0001:0001d5b0       ??0TextureSaver@priv@sf@@QEAA@XZ 000000014001e5b0 f   sfml-graphics-s:TextureSaver.obj
 0001:0001d5e0       ??1TextureSaver@priv@sf@@QEAA@XZ 000000014001e5e0 f   sfml-graphics-s:TextureSaver.obj
 0001:0001d600       ??0BlendMode@sf@@QEAA@W4Factor@01@0W4Equation@01@001@Z 000000014001e600 f   sfml-graphics-s:BlendMode.obj
 0001:0001d630       ??9sf@@YA_NAEBUBlendMode@0@0@Z 000000014001e630 f   sfml-graphics-s:BlendMode.obj
 0001:0001d670       ??0StencilValue@sf@@QEAA@H@Z 000000014001e670 f   sfml-graphics-s:StencilMode.obj
 0001:0001d670       ??0StencilValue@sf@@QEAA@I@Z 000000014001e670 f   sfml-graphics-s:StencilMode.obj
 0001:0001d680       ??8sf@@YA_NAEBUStencilMode@0@0@Z 000000014001e680 f   sfml-graphics-s:StencilMode.obj
 0001:0001d6b0       ??9sf@@YA_NAEBUStencilMode@0@0@Z 000000014001e6b0 f   sfml-graphics-s:StencilMode.obj
 0001:0001d6e0       ??0View@sf@@QEAA@AEBV?$Rect@M@1@@Z 000000014001e6e0 f   sfml-graphics-s:View.obj
 0001:0001d7f0       ?getScissor@View@sf@@QEBAAEBV?$Rect@M@2@XZ 000000014001e7f0 f   sfml-graphics-s:View.obj
 0001:0001d800       ?getTransform@View@sf@@QEBAAEBVTransform@2@XZ 000000014001e800 f   sfml-graphics-s:View.obj
 0001:0001da00       ?getViewport@View@sf@@QEBAAEBV?$Rect@M@2@XZ 000000014001ea00 f   sfml-graphics-s:View.obj
 0001:0001da10       ??$_Reallocate_grow_by@V<lambda_1>@?1??push_back@?$basic_string@DU?$char_traits@D@std@@V?$allocator@D@2@@std@@QEAAXD@Z@D@?$basic_string@DU?$char_traits@D@std@@V?$allocator@D@2@@std@@AEAAAEAV01@_KV<lambda_1>@?1??push_back@01@QEAAXD@Z@D@Z 000000014001ea10 f i sfml-graphics-s:Shader.obj
 0001:0001db80       ??0?$basic_string@DU?$char_traits@D@std@@V?$allocator@D@2@@std@@QEAA@AEBV01@@Z 000000014001eb80 f i sfml-graphics-s:Shader.obj
 0001:0001dca0       ??0bad_cast@std@@QEAA@AEBV01@@Z 000000014001eca0 f i sfml-graphics-s:Shader.obj
 0001:0001dce0       ??0bad_cast@std@@QEAA@XZ   000000014001ece0 f i sfml-graphics-s:Shader.obj
 0001:0001dd10       ??1?$unique_ptr@VGlContext@priv@sf@@U?$default_delete@VGlContext@priv@sf@@@std@@@std@@QEAA@XZ 000000014001ed10 f i sfml-window-s:Window.obj
 0001:0001dd10       ??1?$unique_ptr@V_Facet_base@std@@U?$default_delete@V_Facet_base@std@@@2@@std@@QEAA@XZ 000000014001ed10 f i sfml-graphics-s:Shader.obj
 0001:0001dd30       ?_Throw_bad_cast@std@@YAXXZ 000000014001ed30 f i sfml-graphics-s:Shader.obj
 0001:0001dd50       ?bind@Shader@sf@@SAXPEBV12@@Z 000000014001ed50 f   sfml-graphics-s:Shader.obj
 0001:0001de50       ?isAvailable@Shader@sf@@SA_NXZ 000000014001ee50 f   sfml-graphics-s:Shader.obj
 0001:0001df10       ?bind@VertexBuffer@sf@@SAXPEBV12@@Z 000000014001ef10 f   sfml-graphics-s:VertexBuffer.obj
 0001:0001df60       ?isAvailable@VertexBuffer@sf@@SA_NXZ 000000014001ef60 f   sfml-graphics-s:VertexBuffer.obj
 0001:0001dff0       ?isAvailable@RenderTextureImplFBO@priv@sf@@SA_NXZ 000000014001eff0 f   sfml-graphics-s:RenderTextureImplFBO.obj
 0001:0001e030       ??0?$Vector2@M@sf@@QEAA@MVAngle@1@@Z 000000014001f030 f i sfml-system-s:Vector2.obj
 0001:0001e080       ?length@?$Vector2@M@sf@@QEBAMXZ 000000014001f080 f i sfml-system-s:Vector2.obj
 0001:0001e0b0       ?normalized@?$Vector2@M@sf@@QEBA?AV12@XZ 000000014001f0b0 f i sfml-system-s:Vector2.obj
 0001:0001e120       ??$_Reallocate_grow_by@V<lambda_1>@?1??push_back@?$basic_string@_UU?$char_traits@_U@std@@V?$allocator@_U@2@@std@@QEAAX_U@Z@_U@?$basic_string@_UU?$char_traits@_U@std@@V?$allocator@_U@2@@std@@AEAAAEAV01@_KV<lambda_1>@?1??push_back@01@QEAAX_U@Z@_U@Z 000000014001f120 f i sfml-system-s:String.obj
 0001:0001e2c0       ??$_Reallocate_grow_by@V<lambda_1>@?1??push_back@?$basic_string@_WU?$char_traits@_W@std@@V?$allocator@_W@2@@std@@QEAAX_W@Z@_W@?$basic_string@_WU?$char_traits@_W@std@@V?$allocator@_W@2@@std@@AEAAAEAV01@_KV<lambda_1>@?1??push_back@01@QEAAX_W@Z@_W@Z 000000014001f2c0 f i sfml-system-s:String.obj
 0001:0001e450       ??$_Reallocate_grow_by@V<lambda_1>@?L@??reserve@?$basic_string@DU?$char_traits@D@std@@V?$allocator@D@2@@std@@QEAAX_K@Z@$$V@?$basic_string@DU?$char_traits@D@std@@V?$allocator@D@2@@std@@AEAAAEAV01@_KV<lambda_1>@?L@??reserve@01@QEAAX0@Z@@Z 000000014001f450 f i sfml-system-s:String.obj
 0001:0001e5a0       ??$_Reallocate_grow_by@V<lambda_1>@?L@??reserve@?$basic_string@_UU?$char_traits@_U@std@@V?$allocator@_U@2@@std@@QEAAX_K@Z@$$V@?$basic_string@_UU?$char_traits@_U@std@@V?$allocator@_U@2@@std@@AEAAAEAV01@_KV<lambda_1>@?L@??reserve@01@QEAAX0@Z@@Z 000000014001f5a0 f i sfml-system-s:String.obj
 0001:0001e720       ??$_Reallocate_grow_by@V<lambda_1>@?L@??reserve@?$basic_string@_WU?$char_traits@_W@std@@V?$allocator@_W@2@@std@@QEAAX_K@Z@$$V@?$basic_string@_WU?$char_traits@_W@std@@V?$allocator@_W@2@@std@@AEAAAEAV01@_KV<lambda_1>@?L@??reserve@01@QEAAX0@Z@@Z 000000014001f720 f i sfml-system-s:String.obj
 0001:0001e890       ??$use_facet@V?$ctype@_W@std@@@std@@YAAEBV?$ctype@_W@0@AEBVlocale@0@@Z 000000014001f890 f i sfml-system-s:String.obj
 0001:0001e970       ??0String@sf@@QEAA@PEBDAEBVlocale@std@@@Z 000000014001f970 f   sfml-system-s:String.obj
 0001:0001ea60       ??0String@sf@@QEAA@PEB_W@Z 000000014001fa60 f   sfml-system-s:String.obj
 0001:0001eb30       ?begin@String@sf@@QEBA?AV?$_String_const_iterator@V?$_String_val@U?$_Simple_types@_U@std@@@std@@@std@@XZ 000000014001fb30 f   sfml-system-s:String.obj
 0001:0001eb50       ?end@String@sf@@QEBA?AV?$_String_const_iterator@V?$_String_val@U?$_Simple_types@_U@std@@@std@@@std@@XZ 000000014001fb50 f   sfml-system-s:String.obj
 0001:0001eb70       ?isEmpty@String@sf@@QEBA_NXZ 000000014001fb70 f   sfml-system-s:String.obj
 0001:0001eb80       ?reserve@?$basic_string@_UU?$char_traits@_U@std@@V?$allocator@_U@2@@std@@QEAAX_K@Z 000000014001fb80 f i sfml-system-s:String.obj
 0001:0001ec40       ?toAnsiString@String@sf@@QEBA?AV?$basic_string@DU?$char_traits@D@std@@V?$allocator@D@2@@std@@AEBVlocale@4@@Z 000000014001fc40 f   sfml-system-s:String.obj
 0001:0001ed40       ?toWideString@String@sf@@QEBA?AV?$basic_string@_WU?$char_traits@_W@std@@V?$allocator@_W@2@@std@@XZ 000000014001fd40 f   sfml-system-s:String.obj
 0001:0001ef50       ?err@sf@@YAAEAV?$basic_ostream@DU?$char_traits@D@std@@@std@@XZ 000000014001ff50 f   sfml-system-s:Err.obj
 0001:0001f190       ??$_Convert_wide_to_narrow_replace_chars@U?$char_traits@D@std@@V?$allocator@D@2@@filesystem@std@@YA?AV?$basic_string@DU?$char_traits@D@std@@V?$allocator@D@2@@1@W4__std_code_page@@V?$basic_string_view@_WU?$char_traits@_W@std@@@1@AEBV?$allocator@D@1@@Z 0000000140020190 f i sfml-system-s:Utils.obj
 0001:0001f280       ??$_Reallocate_grow_by@V<lambda_1>@?1??append@?$basic_string@DU?$char_traits@D@std@@V?$allocator@D@2@@std@@QEAAAEAV34@QEBD_K@Z@PEBD_K@?$basic_string@DU?$char_traits@D@std@@V?$allocator@D@2@@std@@AEAAAEAV01@_KV<lambda_1>@?1??append@01@QEAAAEAV01@QEBD0@Z@PEBD_K@Z 0000000140020280 f i sfml-system-s:Utils.obj
 0001:0001f410       ??0?$basic_string@DU?$char_traits@D@std@@V?$allocator@D@2@@std@@QEAA@QEBD@Z 0000000140020410 f i sfml-system-s:Utils.obj
 0001:0001f450       ??0?$basic_string@_WU?$char_traits@_W@std@@V?$allocator@_W@2@@std@@QEAA@AEBV01@@Z 0000000140020450 f i sfml-system-s:Utils.obj
 0001:0001f580       ??0_System_error@std@@IEAA@Verror_code@1@AEBV?$basic_string@DU?$char_traits@D@std@@V?$allocator@D@2@@1@@Z 0000000140020580 f i sfml-system-s:Utils.obj
 0001:0001f7b0       ??0filesystem_error@filesystem@std@@QEAA@AEBV012@@Z 00000001400207b0 f i sfml-system-s:Utils.obj
 0001:0001f840       ??0filesystem_error@filesystem@std@@QEAA@AEBV?$basic_string@DU?$char_traits@D@std@@V?$allocator@D@2@@2@AEBVpath@12@Verror_code@2@@Z 0000000140020840 f i sfml-system-s:Utils.obj
 0001:0001f970       ??1?$basic_stringbuf@DU?$char_traits@D@std@@V?$allocator@D@2@@std@@UEAA@XZ 0000000140020970 f i sfml-system-s:Utils.obj
 0001:0001fa40       ??1filesystem_error@filesystem@std@@UEAA@XZ 0000000140020a40 f i sfml-system-s:Utils.obj
 0001:0001fad0       ??_D?$basic_ostringstream@DU?$char_traits@D@std@@V?$allocator@D@2@@std@@QEAAXXZ 0000000140020ad0 f i sfml-system-s:Utils.obj
 0001:0001fb2c       ??_E?$basic_ostringstream@DU?$char_traits@D@std@@V?$allocator@D@2@@std@@$4PPPPPPPM@A@EAAPEAXI@Z 0000000140020b2c f i sfml-system-s:Utils.obj
 0001:0001fb40       ??_E?$basic_ostringstream@DU?$char_traits@D@std@@V?$allocator@D@2@@std@@UEAAPEAXI@Z 0000000140020b40 f i sfml-system-s:Utils.obj
 0001:0001fb40       ??_G?$basic_ostringstream@DU?$char_traits@D@std@@V?$allocator@D@2@@std@@UEAAPEAXI@Z 0000000140020b40 f i sfml-system-s:Utils.obj
 0001:0001fbe0       ??_E?$basic_stringbuf@DU?$char_traits@D@std@@V?$allocator@D@2@@std@@UEAAPEAXI@Z 0000000140020be0 f i sfml-system-s:Utils.obj
 0001:0001fbe0       ??_G?$basic_stringbuf@DU?$char_traits@D@std@@V?$allocator@D@2@@std@@UEAAPEAXI@Z 0000000140020be0 f i sfml-system-s:Utils.obj
 0001:0001fc20       ??_Efilesystem_error@filesystem@std@@UEAAPEAXI@Z 0000000140020c20 f i sfml-system-s:Utils.obj
 0001:0001fc20       ??_Gfilesystem_error@filesystem@std@@UEAAPEAXI@Z 0000000140020c20 f i sfml-system-s:Utils.obj
 0001:0001fcd0       ?_Pretty_message@filesystem_error@filesystem@std@@CA?AV?$basic_string@DU?$char_traits@D@std@@V?$allocator@D@2@@3@V?$basic_string_view@DU?$char_traits@D@std@@@3@AEBVpath@23@1@Z 0000000140020cd0 f i sfml-system-s:Utils.obj
 0001:0001ffc0       ?_Throw_fs_error@filesystem@std@@YAXPEBDAEBVerror_code@2@AEBVpath@12@@Z 0000000140020fc0 f i sfml-system-s:Utils.obj
 0001:00020020       ?absolute@filesystem@std@@YA?AVpath@12@AEBV312@AEAVerror_code@2@@Z 0000000140021020 f i sfml-system-s:Utils.obj
 0001:00020190       ?append@?$basic_string@DU?$char_traits@D@std@@V?$allocator@D@2@@std@@QEAAAEAV12@QEBD_K@Z 0000000140021190 f i sfml-system-s:Utils.obj
 0001:00020220       ?assign@?$basic_string@DU?$char_traits@D@std@@V?$allocator@D@2@@std@@QEAAAEAV12@QEBD_K@Z 0000000140021220 f i sfml-system-s:Utils.obj
 0001:00020390       ?formatDebugPathInfo@sf@@YA?AV?$basic_string@DU?$char_traits@D@std@@V?$allocator@D@2@@std@@AEBVpath@filesystem@3@@Z 0000000140021390 f   sfml-system-s:Utils.obj
 0001:00020620       ?overflow@?$basic_stringbuf@DU?$char_traits@D@std@@V?$allocator@D@2@@std@@MEAAHH@Z 0000000140021620 f i sfml-system-s:Utils.obj
 0001:000207d0       ?pbackfail@?$basic_stringbuf@DU?$char_traits@D@std@@V?$allocator@D@2@@std@@MEAAHH@Z 00000001400217d0 f i sfml-system-s:Utils.obj
 0001:00020860       ?seekoff@?$basic_stringbuf@DU?$char_traits@D@std@@V?$allocator@D@2@@std@@MEAA?AV?$fpos@U_Mbstatet@@@2@_JHH@Z 0000000140021860 f i sfml-system-s:Utils.obj
 0001:00020a10       ?seekpos@?$basic_stringbuf@DU?$char_traits@D@std@@V?$allocator@D@2@@std@@MEAA?AV?$fpos@U_Mbstatet@@@2@V32@H@Z 0000000140021a10 f i sfml-system-s:Utils.obj
 0001:00020b60       ?underflow@?$basic_stringbuf@DU?$char_traits@D@std@@V?$allocator@D@2@@std@@MEAAHXZ 0000000140021b60 f i sfml-system-s:Utils.obj
 0001:00020c30       ?what@filesystem_error@filesystem@std@@UEBAPEBDXZ 0000000140021c30 f i sfml-system-s:Utils.obj
 0001:00020c40       ??$_Make_heap_unchecked@PEAVVideoMode@sf@@U?$greater@X@std@@@std@@YAXPEAVVideoMode@sf@@0U?$greater@X@0@@Z 0000000140021c40 f i sfml-window-s:VideoMode.obj
 0001:00020de0       ??$_Med3_unchecked@PEAVVideoMode@sf@@U?$greater@X@std@@@std@@YAXPEAVVideoMode@sf@@00U?$greater@X@0@@Z 0000000140021de0 f i sfml-window-s:VideoMode.obj
 0001:00020e90       ??$_Partition_by_median_guess_unchecked@PEAVVideoMode@sf@@U?$greater@X@std@@@std@@YA?AU?$pair@PEAVVideoMode@sf@@PEAV12@@0@PEAVVideoMode@sf@@0U?$greater@X@0@@Z 0000000140021e90 f i sfml-window-s:VideoMode.obj
 0001:00021250       ??$_Pop_heap_hole_by_index@PEAVVideoMode@sf@@V12@U?$greater@X@std@@@std@@YAXPEAVVideoMode@sf@@_J1$$QEAV12@U?$greater@X@0@@Z 0000000140022250 f i sfml-window-s:VideoMode.obj
 0001:00021390       ??$_Sort_unchecked@PEAVVideoMode@sf@@U?$greater@X@std@@@std@@YAXPEAVVideoMode@sf@@0_JU?$greater@X@0@@Z 0000000140022390 f i sfml-window-s:VideoMode.obj
 0001:00021600       ??0VideoMode@sf@@QEAA@V?$Vector2@I@1@I@Z 0000000140022600 f   sfml-window-s:VideoMode.obj
 0001:00021610       ??8sf@@YA_NAEBVVideoMode@0@0@Z 0000000140022610 f   sfml-window-s:VideoMode.obj
 0001:000216b0       ?getDesktopMode@VideoMode@sf@@SA?AV12@XZ 00000001400226b0 f   sfml-window-s:VideoMode.obj
 0001:000216d0       ?getFullscreenModes@VideoMode@sf@@SAAEBV?$vector@VVideoMode@sf@@V?$allocator@VVideoMode@sf@@@std@@@std@@XZ 00000001400226d0 f   sfml-window-s:VideoMode.obj
 0001:00021760       ?isValid@VideoMode@sf@@QEBA_NXZ 0000000140022760 f   sfml-window-s:VideoMode.obj
 0001:00021820       ??0WindowBase@sf@@QEAA@XZ  0000000140022820 f   sfml-window-s:WindowBase.obj
 0001:00021840       ??1WindowBase@sf@@UEAA@XZ  0000000140022840 f   sfml-window-s:WindowBase.obj
 0001:00021860       ??_EWindowBase@sf@@UEAAPEAXI@Z 0000000140022860 f i sfml-window-s:WindowBase.obj
 0001:00021860       ??_GWindowBase@sf@@UEAAPEAXI@Z 0000000140022860 f i sfml-window-s:WindowBase.obj
 0001:000218b0       ?close@WindowBase@sf@@UEAAXXZ 00000001400228b0 f   sfml-window-s:WindowBase.obj
 0001:000218d0       ?create@WindowBase@sf@@UEAAXPEAUHWND__@@@Z 00000001400228d0 f   sfml-window-s:WindowBase.obj
 0001:00021940       ?create@WindowBase@sf@@UEAAXVVideoMode@2@AEBVString@2@IW4State@2@@Z 0000000140022940 f   sfml-window-s:WindowBase.obj
 0001:000219e0       ?create@WindowBase@sf@@UEAAXVVideoMode@2@AEBVString@2@W4State@2@@Z 00000001400229e0 f   sfml-window-s:WindowBase.obj
 0001:00021a10       ?initialize@WindowBase@sf@@AEAAXXZ 0000000140022a10 f   sfml-window-s:WindowBase.obj
 0001:00021a80       ?isOpen@WindowBase@sf@@QEBA_NXZ 0000000140022a80 f   sfml-window-s:WindowBase.obj
 0001:00021a90       ?cleanup@SensorImpl@priv@sf@@SAXXZ 0000000140022a90 f   sfml-window-s:SensorImpl.obj
 0001:00021a90       ?close@SensorImpl@priv@sf@@QEAAXXZ 0000000140022a90 f   sfml-window-s:SensorImpl.obj
 0001:00021a90       ?initialize@SensorImpl@priv@sf@@SAXXZ 0000000140022a90 f   sfml-window-s:SensorImpl.obj
 0001:00021a90       ?onCreate@WindowBase@sf@@MEAAXXZ 0000000140022a90 f   sfml-window-s:WindowBase.obj
 0001:00021a90       ?onResize@WindowBase@sf@@MEAAXXZ 0000000140022a90 f   sfml-window-s:WindowBase.obj
 0001:00021a90       ?setEnabled@SensorImpl@priv@sf@@QEAAX_N@Z 0000000140022a90 f   sfml-window-s:SensorImpl.obj
 0001:00021a90       FT_Trace_Disable           0000000140022a90 f   freetype:ftdebug.obj
 0001:00021a90       FT_Trace_Enable            0000000140022a90 f   freetype:ftdebug.obj
 0001:00021aa0       ?pollEvent@WindowBase@sf@@QEAA?AV?$optional@VEvent@sf@@@std@@XZ 0000000140022aa0 f   sfml-window-s:WindowBase.obj
 0001:00021b10       ??0Clock@sf@@QEAA@XZ       0000000140022b10 f i sfml-window-s:Window.obj
 0001:00021be0       ??0Window@sf@@QEAA@XZ      0000000140022be0 f   sfml-window-s:Window.obj
 0001:00021c30       ??1Window@sf@@UEAA@XZ      0000000140022c30 f   sfml-window-s:Window.obj
 0001:00021cb0       ??_EWindow@sf@@UEAAPEAXI@Z 0000000140022cb0 f i sfml-window-s:Window.obj
 0001:00021cb0       ??_GWindow@sf@@UEAAPEAXI@Z 0000000140022cb0 f i sfml-window-s:Window.obj
 0001:00021d50       ?close@Window@sf@@UEAAXXZ  0000000140022d50 f   sfml-window-s:Window.obj
 0001:00021d90       ?create@Window@sf@@UEAAXPEAUHWND__@@@Z 0000000140022d90 f   sfml-window-s:Window.obj
 0001:00021e30       ?create@Window@sf@@UEAAXPEAUHWND__@@AEBUContextSettings@2@@Z 0000000140022e30 f   sfml-window-s:Window.obj
 0001:00021eb0       ?create@Window@sf@@UEAAXVVideoMode@2@AEBVString@2@IW4State@2@@Z 0000000140022eb0 f   sfml-window-s:Window.obj
 0001:00021fe0       ?create@Window@sf@@UEAAXVVideoMode@2@AEBVString@2@IW4State@2@AEBUContextSettings@2@@Z 0000000140022fe0 f   sfml-window-s:Window.obj
 0001:000220e0       ?create@Window@sf@@UEAAXVVideoMode@2@AEBVString@2@W4State@2@@Z 00000001400230e0 f   sfml-window-s:Window.obj
 0001:00022210       ?create@Window@sf@@UEAAXVVideoMode@2@AEBVString@2@W4State@2@AEBUContextSettings@2@@Z 0000000140023210 f   sfml-window-s:Window.obj
 0001:00022250       ?display@Window@sf@@QEAAXXZ 0000000140023250 f   sfml-window-s:Window.obj
 0001:000222e0       ?getSettings@Window@sf@@QEBAAEBUContextSettings@2@XZ 00000001400232e0 f   sfml-window-s:Window.obj
 0001:00022300       ?initialize@Window@sf@@AEAAXXZ 0000000140023300 f   sfml-window-s:Window.obj
 0001:000223d0       ?setActive@Window@sf@@QEBA_N_N@Z 00000001400233d0 f   sfml-window-s:Window.obj
 0001:00022420       ?setVerticalSyncEnabled@Window@sf@@QEAAX_N@Z 0000000140023420 f   sfml-window-s:Window.obj
 0001:00022490       ??0GlResource@sf@@IEAA@XZ  0000000140023490 f   sfml-window-s:GlResource.obj
 0001:000224b0       ??0TransientContextLock@GlResource@sf@@QEAA@XZ 00000001400234b0 f   sfml-window-s:GlResource.obj
 0001:000224d0       ??1TransientContextLock@GlResource@sf@@QEAA@XZ 00000001400234d0 f   sfml-window-s:GlResource.obj
 0001:000224e0       ??0Context@sf@@QEAA@XZ     00000001400234e0 f   sfml-window-s:Context.obj
 0001:00022570       ??1Context@sf@@QEAA@XZ     0000000140023570 f   sfml-window-s:Context.obj
 0001:00022640       ?getActiveContextId@Context@sf@@SA_KXZ 0000000140023640 f   sfml-window-s:Context.obj
 0001:00022650       ?getFunction@Context@sf@@SAP6AXXZPEBD@Z 0000000140023650 f   sfml-window-s:Context.obj
 0001:00022660       ?isExtensionAvailable@Context@sf@@SA_NV?$basic_string_view@DU?$char_traits@D@std@@@std@@@Z 0000000140023660 f   sfml-window-s:Context.obj
 0001:00022680       ??$_Emplace_reallocate@AEBVVideoMode@sf@@@?$vector@VVideoMode@sf@@V?$allocator@VVideoMode@sf@@@std@@@std@@AEAAPEAVVideoMode@sf@@QEAV23@AEBV23@@Z 0000000140023680 f i sfml-window-s:VideoModeImpl.obj
 0001:00022890       ?getDesktopMode@VideoModeImpl@priv@sf@@SA?AVVideoMode@3@XZ 0000000140023890 f   sfml-window-s:VideoModeImpl.obj
 0001:00022910       ?getFullscreenModes@VideoModeImpl@priv@sf@@SA?AV?$vector@VVideoMode@sf@@V?$allocator@VVideoMode@sf@@@std@@@std@@XZ 0000000140023910 f   sfml-window-s:VideoModeImpl.obj
 0001:00022a60       ??0JoystickStatesImpl@WindowImpl@priv@sf@@QEAA@XZ 0000000140023a60 f i sfml-window-s:WindowImpl.obj
 0001:00022bc0       ??0WindowImpl@priv@sf@@IEAA@XZ 0000000140023bc0 f   sfml-window-s:WindowImpl.obj
 0001:00022d90       ??1?$deque@VEvent@sf@@V?$allocator@VEvent@sf@@@std@@@std@@QEAA@XZ 0000000140023d90 f i sfml-window-s:WindowImpl.obj
 0001:00022e60       ??1?$queue@VEvent@sf@@V?$deque@VEvent@sf@@V?$allocator@VEvent@sf@@@std@@@std@@@std@@QEAA@XZ 0000000140023e60 f i sfml-window-s:WindowImpl.obj
 0001:00022e70       ??1?$unique_ptr@UJoystickStatesImpl@WindowImpl@priv@sf@@U?$default_delete@UJoystickStatesImpl@WindowImpl@priv@sf@@@std@@@std@@QEAA@XZ 0000000140023e70 f i sfml-window-s:WindowImpl.obj
 0001:00022e90       ??1WindowImpl@priv@sf@@UEAA@XZ 0000000140023e90 f   sfml-window-s:WindowImpl.obj
 0001:00022ee0       ??_EWindowImpl@priv@sf@@UEAAPEAXI@Z 0000000140023ee0 f i sfml-window-s:WindowImpl.obj
 0001:00022ee0       ??_GWindowImpl@priv@sf@@UEAAPEAXI@Z 0000000140023ee0 f i sfml-window-s:WindowImpl.obj
 0001:00022f50       ?_Growmap@?$deque@VEvent@sf@@V?$allocator@VEvent@sf@@@std@@@std@@AEAAX_K@Z 0000000140023f50 f i sfml-window-s:WindowImpl.obj
 0001:00023140       ?_Xlen@?$deque@VEvent@sf@@V?$allocator@VEvent@sf@@@std@@@std@@CAXXZ 0000000140024140 f i sfml-window-s:WindowImpl.obj
 0001:00023160       ?create@WindowImpl@priv@sf@@SA?AV?$unique_ptr@VWindowImpl@priv@sf@@U?$default_delete@VWindowImpl@priv@sf@@@std@@@std@@PEAUHWND__@@@Z 0000000140024160 f   sfml-window-s:WindowImpl.obj
 0001:000231c0       ?create@WindowImpl@priv@sf@@SA?AV?$unique_ptr@VWindowImpl@priv@sf@@U?$default_delete@VWindowImpl@priv@sf@@@std@@@std@@VVideoMode@3@AEBVString@3@IW4State@3@AEBUContextSettings@3@@Z 00000001400241c0 f   sfml-window-s:WindowImpl.obj
 0001:00023380       ?getMaximumSize@WindowImpl@priv@sf@@QEBA?AV?$optional@V?$Vector2@I@sf@@@std@@XZ 0000000140024380 f   sfml-window-s:WindowImpl.obj
 0001:000233a0       ?getMinimumSize@WindowImpl@priv@sf@@QEBA?AV?$optional@V?$Vector2@I@sf@@@std@@XZ 00000001400243a0 f   sfml-window-s:WindowImpl.obj
 0001:000233c0       ?pollEvent@WindowImpl@priv@sf@@QEAA?AV?$optional@VEvent@sf@@@std@@XZ 00000001400243c0 f   sfml-window-s:WindowImpl.obj
 0001:00023450       ?populateEventQueue@WindowImpl@priv@sf@@AEAAXXZ 0000000140024450 f   sfml-window-s:WindowImpl.obj
 0001:000235e0       ?processJoystickEvents@WindowImpl@priv@sf@@AEAAXXZ 00000001400245e0 f   sfml-window-s:WindowImpl.obj
 0001:00023ad0       ?pushEvent@WindowImpl@priv@sf@@IEAAXAEBVEvent@3@@Z 0000000140024ad0 f   sfml-window-s:WindowImpl.obj
 0001:00023b80       ?setMaximumSize@WindowImpl@priv@sf@@UEAAXAEBV?$optional@V?$Vector2@I@sf@@@std@@@Z 0000000140024b80 f   sfml-window-s:WindowImpl.obj
 0001:00023ba0       ?setMinimumSize@WindowImpl@priv@sf@@UEAAXAEBV?$optional@V?$Vector2@I@sf@@@std@@@Z 0000000140024ba0 f   sfml-window-s:WindowImpl.obj
 0001:00023bc0       ??$_Destroy_range@V?$allocator@UUnsharedGlObject@Impl@GlContext@priv@sf@@@std@@@std@@YAXPEAUUnsharedGlObject@Impl@GlContext@priv@sf@@QEAU12345@AEAV?$allocator@UUnsharedGlObject@Impl@GlContext@priv@sf@@@0@@Z 0000000140024bc0 f i sfml-window-s:GlContext.obj
 0001:00023c40       ??$_Destroy_range@V?$allocator@V?$basic_string@DU?$char_traits@D@std@@V?$allocator@D@2@@std@@@std@@@std@@YAXPEAV?$basic_string@DU?$char_traits@D@std@@V?$allocator@D@2@@0@QEAV10@AEAV?$allocator@V?$basic_string@DU?$char_traits@D@std@@V?$allocator@D@2@@std@@@0@@Z 0000000140024c40 f i sfml-window-s:GlContext.obj
 0001:00023cd0       ??$_Emplace_reallocate@AEAPEBD@?$vector@V?$basic_string@DU?$char_traits@D@std@@V?$allocator@D@2@@std@@V?$allocator@V?$basic_string@DU?$char_traits@D@std@@V?$allocator@D@2@@std@@@2@@std@@AEAAPEAV?$basic_string@DU?$char_traits@D@std@@V?$allocator@D@2@@1@QEAV21@AEAPEBD@Z 0000000140024cd0 f i sfml-window-s:GlContext.obj
 0001:00023e80       ??$_Emplace_reallocate@AEAPEBDAEAPEBD@?$vector@V?$basic_string@DU?$char_traits@D@std@@V?$allocator@D@2@@std@@V?$allocator@V?$basic_string@DU?$char_traits@D@std@@V?$allocator@D@2@@std@@@2@@std@@AEAAPEAV?$basic_string@DU?$char_traits@D@std@@V?$allocator@D@2@@1@QEAV21@AEAPEBD1@Z 0000000140024e80 f i sfml-window-s:GlContext.obj
 0001:00024040       ??$_Uninitialized_move@PEAV?$basic_string@DU?$char_traits@D@std@@V?$allocator@D@2@@std@@V?$allocator@V?$basic_string@DU?$char_traits@D@std@@V?$allocator@D@2@@std@@@2@@std@@YAPEAV?$basic_string@DU?$char_traits@D@std@@V?$allocator@D@2@@0@QEAV10@0PEAV10@AEAV?$allocator@V?$basic_string@DU?$char_traits@D@std@@V?$allocator@D@2@@std@@@0@@Z 0000000140025040 f i sfml-window-s:GlContext.obj
 0001:000240c0       ??$make_shared@USharedContext@GlContext@priv@sf@@$$V@std@@YA?AV?$shared_ptr@USharedContext@GlContext@priv@sf@@@0@XZ 00000001400250c0 f i sfml-window-s:GlContext.obj
 0001:00024230       ??0GlContext@priv@sf@@IEAA@XZ 0000000140025230 f   sfml-window-s:GlContext.obj
 0001:000242b0       ??0Impl@GlContext@priv@sf@@QEAA@XZ 00000001400252b0 f i sfml-window-s:GlContext.obj
 0001:00024440       ??0TransientContext@GlContext@priv@sf@@QEAA@XZ 0000000140025440 f i sfml-window-s:GlContext.obj
 0001:000245a0       ??1?$optional@VContext@sf@@@std@@QEAA@XZ 00000001400255a0 f i sfml-window-s:GlContext.obj
 0001:000245b0       ??1?$optional@VWglContext@priv@sf@@@std@@QEAA@XZ 00000001400255b0 f i sfml-window-s:GlContext.obj
 0001:000245c0       ??1?$unique_lock@Vrecursive_mutex@std@@@std@@QEAA@XZ 00000001400255c0 f i sfml-window-s:GlContext.obj
 0001:000245d0       ??1?$unique_ptr@UImpl@GlContext@priv@sf@@U?$default_delete@UImpl@GlContext@priv@sf@@@std@@@std@@QEAA@XZ 00000001400255d0 f i sfml-window-s:GlContext.obj
 0001:00024640       ??1?$vector@V?$basic_string@DU?$char_traits@D@std@@V?$allocator@D@2@@std@@V?$allocator@V?$basic_string@DU?$char_traits@D@std@@V?$allocator@D@2@@std@@@2@@std@@QEAA@XZ 0000000140025640 f i sfml-window-s:GlContext.obj
 0001:000246b0       ??1GlContext@priv@sf@@UEAA@XZ 00000001400256b0 f   sfml-window-s:GlContext.obj
 0001:00024720       ??_E?$_Ref_count_obj2@USharedContext@GlContext@priv@sf@@@std@@UEAAPEAXI@Z 0000000140025720 f i sfml-window-s:GlContext.obj
 0001:00024720       ??_G?$_Ref_count_obj2@USharedContext@GlContext@priv@sf@@@std@@UEAAPEAXI@Z 0000000140025720 f i sfml-window-s:GlContext.obj
 0001:00024750       ??_E?$_Ref_count_obj2@V?$vector@UUnsharedGlObject@Impl@GlContext@priv@sf@@V?$allocator@UUnsharedGlObject@Impl@GlContext@priv@sf@@@std@@@std@@@std@@UEAAPEAXI@Z 0000000140025750 f i sfml-window-s:GlContext.obj
 0001:00024750       ??_G?$_Ref_count_obj2@V?$vector@UUnsharedGlObject@Impl@GlContext@priv@sf@@V?$allocator@UUnsharedGlObject@Impl@GlContext@priv@sf@@@std@@@std@@@std@@UEAAPEAXI@Z 0000000140025750 f i sfml-window-s:GlContext.obj
 0001:00024780       ??_EGlContext@priv@sf@@UEAAPEAXI@Z 0000000140025780 f i sfml-window-s:GlContext.obj
 0001:00024780       ??_GGlContext@priv@sf@@UEAAPEAXI@Z 0000000140025780 f i sfml-window-s:GlContext.obj
 0001:00024820       ??_GTransientContext@GlContext@priv@sf@@QEAAPEAXI@Z 0000000140025820 f i sfml-window-s:GlContext.obj
 0001:000248d0       ?_Change_array@?$vector@V?$basic_string@DU?$char_traits@D@std@@V?$allocator@D@2@@std@@V?$allocator@V?$basic_string@DU?$char_traits@D@std@@V?$allocator@D@2@@std@@@2@@std@@AEAAXQEAV?$basic_string@DU?$char_traits@D@std@@V?$allocator@D@2@@2@_K1@Z 00000001400258d0 f i sfml-window-s:GlContext.obj
 0001:00024970       ?_Destroy@?$_Ref_count_obj2@USharedContext@GlContext@priv@sf@@@std@@EEAAXXZ 0000000140025970 f i sfml-window-s:GlContext.obj
 0001:000249a0       ?_Destroy@?$_Ref_count_obj2@V?$vector@UUnsharedGlObject@Impl@GlContext@priv@sf@@V?$allocator@UUnsharedGlObject@Impl@GlContext@priv@sf@@@std@@@std@@@std@@EEAAXXZ 00000001400259a0 f i sfml-window-s:GlContext.obj
 0001:00024a30       ?acquireTransientContext@GlContext@priv@sf@@SAXXZ 0000000140025a30 f   sfml-window-s:GlContext.obj
 0001:00024ac0       ?boolalpha@std@@YAAEAVios_base@1@AEAV21@@Z 0000000140025ac0 f i sfml-window-s:GlContext.obj
 0001:00024ae0       ?checkSettings@GlContext@priv@sf@@AEBAXAEBUContextSettings@3@@Z 0000000140025ae0 f   sfml-window-s:GlContext.obj
 0001:00024d90       ?cleanupUnsharedResources@GlContext@priv@sf@@IEAAXXZ 0000000140025d90 f   sfml-window-s:GlContext.obj
 0001:00024f90       ?clear@?$vector@V?$basic_string@DU?$char_traits@D@std@@V?$allocator@D@2@@std@@V?$allocator@V?$basic_string@DU?$char_traits@D@std@@V?$allocator@D@2@@std@@@2@@std@@QEAAXXZ 0000000140025f90 f i sfml-window-s:GlContext.obj
 0001:00024fc0       ?create@GlContext@priv@sf@@SA?AV?$unique_ptr@VGlContext@priv@sf@@U?$default_delete@VGlContext@priv@sf@@@std@@@std@@AEBUContextSettings@3@AEBVWindowImpl@23@I@Z 0000000140025fc0 f   sfml-window-s:GlContext.obj
 0001:000251f0       ?create@GlContext@priv@sf@@SA?AV?$unique_ptr@VGlContext@priv@sf@@U?$default_delete@VGlContext@priv@sf@@@std@@@std@@XZ 00000001400261f0 f   sfml-window-s:GlContext.obj
 0001:00025370       ?deallocate@?$allocator@V?$basic_string@DU?$char_traits@D@std@@V?$allocator@D@2@@std@@@std@@QEAAXQEAV?$basic_string@DU?$char_traits@D@std@@V?$allocator@D@2@@2@_K@Z 0000000140026370 f i sfml-window-s:GlContext.obj
 0001:000253c0       ?evaluateFormat@GlContext@priv@sf@@KAHIAEBUContextSettings@3@HHHH_N1@Z 00000001400263c0 f   sfml-window-s:GlContext.obj
 0001:00025480       ?get@SharedContext@GlContext@priv@sf@@SA?AV?$shared_ptr@USharedContext@GlContext@priv@sf@@@std@@XZ 0000000140026480 f i sfml-window-s:GlContext.obj
 0001:000255d0       ?get@TransientContext@GlContext@priv@sf@@SAAEAV?$optional@UTransientContext@GlContext@priv@sf@@@std@@XZ 00000001400265d0 f i sfml-window-s:GlContext.obj
 0001:00025630       ?getActiveContextId@GlContext@priv@sf@@SA_KXZ 0000000140026630 f   sfml-window-s:GlContext.obj
 0001:00025680       ?getFunction@GlContext@priv@sf@@SAP6AXXZPEBD@Z 0000000140026680 f   sfml-window-s:GlContext.obj
 0001:000257a0       ?getSettings@GlContext@priv@sf@@QEBAAEBUContextSettings@3@XZ 00000001400267a0 f   sfml-window-s:GlContext.obj
 0001:000257b0       ?getSharedContext@GlContext@priv@sf@@SA?AV?$shared_ptr@X@std@@XZ 00000001400267b0 f   sfml-window-s:GlContext.obj
 0001:00025840       ?getWeakPtr@SharedContext@GlContext@priv@sf@@SAAEAV?$weak_ptr@USharedContext@GlContext@priv@sf@@@std@@XZ 0000000140026840 f i sfml-window-s:GlContext.obj
 0001:000258b0       ?getWeakUnsharedGlObjects@Impl@GlContext@priv@sf@@SAAEAV?$weak_ptr@V?$vector@UUnsharedGlObject@Impl@GlContext@priv@sf@@V?$allocator@UUnsharedGlObject@Impl@GlContext@priv@sf@@@std@@@std@@@std@@XZ 00000001400268b0 f i sfml-window-s:GlContext.obj
 0001:00025920       ?initialize@GlContext@priv@sf@@AEAAXAEBUContextSettings@3@@Z 0000000140026920 f   sfml-window-s:GlContext.obj
 0001:00025db0       ?isExtensionAvailable@GlContext@priv@sf@@SA_NV?$basic_string_view@DU?$char_traits@D@std@@@std@@@Z 0000000140026db0 f   sfml-window-s:GlContext.obj
 0001:00025e80       ?loadExtensions@SharedContext@GlContext@priv@sf@@QEAAXXZ 0000000140026e80 f i sfml-window-s:GlContext.obj
 0001:000260b0       ?noboolalpha@std@@YAAEAVios_base@1@AEAV21@@Z 00000001400270b0 f i sfml-window-s:GlContext.obj
 0001:000260d0       ?releaseTransientContext@GlContext@priv@sf@@SAXXZ 00000001400270d0 f   sfml-window-s:GlContext.obj
 0001:00026160       ?setActive@GlContext@priv@sf@@QEAA_N_N@Z 0000000140027160 f   sfml-window-s:GlContext.obj
 0001:00026390       ??0Item@JoystickManager@priv@sf@@QEAA@XZ 0000000140027390 f i sfml-window-s:JoystickManager.obj
 0001:00026550       ??1?$array@UItem@JoystickManager@priv@sf@@$07@std@@QEAA@XZ 0000000140027550 f i sfml-window-s:JoystickManager.obj
 0001:00026580       ??1Item@JoystickManager@priv@sf@@QEAA@XZ 0000000140027580 f i sfml-window-s:JoystickManager.obj
 0001:000265b0       ??1JoystickImpl@priv@sf@@QEAA@XZ 00000001400275b0 f i sfml-window-s:JoystickManager.obj
 0001:000265c0       ?_Tidy_deallocate@?$basic_string@_UU?$char_traits@_U@std@@V?$allocator@_U@2@@std@@AEAAXXZ 00000001400275c0 f i sfml-window-s:JoystickManager.obj
 0001:00026630       ?getCapabilities@JoystickManager@priv@sf@@QEBAAEBUJoystickCaps@23@I@Z 0000000140027630 f   sfml-window-s:JoystickManager.obj
 0001:00026650       ?getInstance@JoystickManager@priv@sf@@SAAEAV123@XZ 0000000140027650 f   sfml-window-s:JoystickManager.obj
 0001:00026700       ?getState@JoystickManager@priv@sf@@QEBAAEBUJoystickState@23@I@Z 0000000140027700 f   sfml-window-s:JoystickManager.obj
 0001:00026720       ?update@JoystickManager@priv@sf@@QEAAXXZ 0000000140027720 f   sfml-window-s:JoystickManager.obj
 0001:00026aa0       ??0SensorManager@priv@sf@@AEAA@XZ 0000000140027aa0 f   sfml-window-s:SensorManager.obj
 0001:00026e00       ?getInstance@SensorManager@priv@sf@@SAAEAV123@XZ 0000000140027e00 f   sfml-window-s:SensorManager.obj
 0001:00026e80       ?getValue@SensorManager@priv@sf@@QEBA?AV?$Vector3@M@3@W4Type@Sensor@3@@Z 0000000140027e80 f   sfml-window-s:SensorManager.obj
 0001:00026ea0       ?isEnabled@SensorManager@priv@sf@@QEBA_NW4Type@Sensor@3@@Z 0000000140027ea0 f   sfml-window-s:SensorManager.obj
 0001:00026eb0       ?update@SensorManager@priv@sf@@QEAAXXZ 0000000140027eb0 f   sfml-window-s:SensorManager.obj
 0001:00026f00       ??0WindowImplWin32@priv@sf@@QEAA@PEAUHWND__@@@Z 0000000140027f00 f   sfml-window-s:WindowImplWin32.obj
 0001:00026ff0       ??0WindowImplWin32@priv@sf@@QEAA@VVideoMode@2@AEBVString@2@IW4State@2@AEBUContextSettings@2@@Z 0000000140027ff0 f   sfml-window-s:WindowImplWin32.obj
 0001:00027460       ??_EWindowImplWin32@priv@sf@@UEAAPEAXI@Z 0000000140028460 f i sfml-window-s:WindowImplWin32.obj
 0001:00027460       ??_GWindowImplWin32@priv@sf@@UEAAPEAXI@Z 0000000140028460 f i sfml-window-s:WindowImplWin32.obj
 0001:00027520       ?contentSizeToWindowSize@WindowImplWin32@priv@sf@@AEAA?AV?$Vector2@H@3@V?$Vector2@I@3@@Z 0000000140028520 f   sfml-window-s:WindowImplWin32.obj
 0001:000275a0       ?getNativeHandle@WindowImplWin32@priv@sf@@UEBAPEAUHWND__@@XZ 00000001400285a0 f   sfml-window-s:WindowImplWin32.obj
 0001:000275b0       ?getPosition@WindowImplWin32@priv@sf@@UEBA?AV?$Vector2@H@3@XZ 00000001400285b0 f   sfml-window-s:WindowImplWin32.obj
 0001:00027600       ?getSize@WindowImplWin32@priv@sf@@UEBA?AV?$Vector2@I@3@XZ 0000000140028600 f   sfml-window-s:WindowImplWin32.obj
 0001:00027660       ?globalOnEvent@WindowImplWin32@priv@sf@@CA_JPEAUHWND__@@I_K_J@Z 0000000140028660 f   sfml-window-s:WindowImplWin32.obj
 0001:00027730       ?grabCursor@WindowImplWin32@priv@sf@@AEAAX_N@Z 0000000140028730 f   sfml-window-s:WindowImplWin32.obj
 0001:000277a0       ?hasFocus@WindowImplWin32@priv@sf@@UEBA_NXZ 00000001400287a0 f   sfml-window-s:WindowImplWin32.obj
 0001:00027820       ?processEvent@WindowImplWin32@priv@sf@@AEAAXI_K_J@Z 0000000140028820 f   sfml-window-s:WindowImplWin32.obj
 0001:00028420       ?processEvents@WindowImplWin32@priv@sf@@MEAAXXZ 0000000140029420 f   sfml-window-s:WindowImplWin32.obj
 0001:00028490       ?requestFocus@WindowImplWin32@priv@sf@@UEAAXXZ 0000000140029490 f   sfml-window-s:WindowImplWin32.obj
 0001:00028520       ?setIcon@WindowImplWin32@priv@sf@@UEAAXV?$Vector2@I@3@PEBE@Z 0000000140029520 f   sfml-window-s:WindowImplWin32.obj
 0001:00028730       ?setKeyRepeatEnabled@WindowImplWin32@priv@sf@@UEAAX_N@Z 0000000140029730 f   sfml-window-s:WindowImplWin32.obj
 0001:00028740       ?setMouseCursor@WindowImplWin32@priv@sf@@UEAAXAEBVCursorImpl@23@@Z 0000000140029740 f   sfml-window-s:WindowImplWin32.obj
 0001:00028760       ?setMouseCursorGrabbed@WindowImplWin32@priv@sf@@UEAAX_N@Z 0000000140029760 f   sfml-window-s:WindowImplWin32.obj
 0001:00028770       ?setMouseCursorVisible@WindowImplWin32@priv@sf@@UEAAX_N@Z 0000000140029770 f   sfml-window-s:WindowImplWin32.obj
 0001:000287a0       ?setPosition@WindowImplWin32@priv@sf@@UEAAXV?$Vector2@H@3@@Z 00000001400297a0 f   sfml-window-s:WindowImplWin32.obj
 0001:00028920       ?setSize@WindowImplWin32@priv@sf@@UEAAXV?$Vector2@I@3@@Z 0000000140029920 f   sfml-window-s:WindowImplWin32.obj
 0001:000289c0       ?setTitle@WindowImplWin32@priv@sf@@UEAAXAEBVString@3@@Z 00000001400299c0 f   sfml-window-s:WindowImplWin32.obj
 0001:00028a60       ?setVisible@WindowImplWin32@priv@sf@@UEAAX_N@Z 0000000140029a60 f   sfml-window-s:WindowImplWin32.obj
 0001:00028a80       ?toScancode@WindowImplWin32@priv@sf@@CA?AW4Scan@Keyboard@3@_K_J@Z 0000000140029a80 f   sfml-window-s:WindowImplWin32.obj
 0001:000293a0       ?virtualKeyCodeToSF@WindowImplWin32@priv@sf@@CA?AW4Key@Keyboard@3@_K_J@Z 000000014002a3a0 f   sfml-window-s:WindowImplWin32.obj
 0001:00029b20       ??$_Emplace_reallocate@AEBH@?$vector@HV?$allocator@H@std@@@std@@AEAAPEAHQEAHAEBH@Z 000000014002ab20 f i sfml-window-s:WglContext.obj
 0001:00029b20       ??$_Emplace_reallocate@H@?$vector@HV?$allocator@H@std@@@std@@AEAAPEAHQEAH$$QEAH@Z 000000014002ab20 f i sfml-window-s:WglContext.obj
 0001:00029e90       ??0WglContext@priv@sf@@QEAA@PEAV012@@Z 000000014002ae90 f   sfml-window-s:WglContext.obj
 0001:00029f80       ??0WglContext@priv@sf@@QEAA@PEAV012@AEBUContextSettings@2@AEBVWindowImpl@12@I@Z 000000014002af80 f   sfml-window-s:WglContext.obj
 0001:0002a060       ??0WglContext@priv@sf@@QEAA@PEAV012@AEBUContextSettings@2@V?$Vector2@I@2@@Z 000000014002b060 f   sfml-window-s:WglContext.obj
 0001:0002a120       ??1?$vector@HV?$allocator@H@std@@@std@@QEAA@XZ 000000014002b120 f i sfml-window-s:WglContext.obj
 0001:0002a180       ??1WglContext@priv@sf@@UEAA@XZ 000000014002b180 f   sfml-window-s:WglContext.obj
 0001:0002a240       ??_EWglContext@priv@sf@@UEAAPEAXI@Z 000000014002b240 f i sfml-window-s:WglContext.obj
 0001:0002a240       ??_GWglContext@priv@sf@@UEAAPEAXI@Z 000000014002b240 f i sfml-window-s:WglContext.obj
 0001:0002a280       ?_Change_array@?$vector@HV?$allocator@H@std@@@std@@AEAAXQEAH_K1@Z 000000014002b280 f i sfml-window-s:WglContext.obj
 0001:0002a330       ?createContext@WglContext@priv@sf@@AEAAXPEAV123@@Z 000000014002b330 f   sfml-window-s:WglContext.obj
 0001:0002ab70       ?createSurface@WglContext@priv@sf@@AEAAXPEAV123@V?$Vector2@I@3@I@Z 000000014002bb70 f   sfml-window-s:WglContext.obj
 0001:0002ae20       ?deallocate@?$allocator@H@std@@QEAAXQEAH_K@Z 000000014002be20 f i sfml-window-s:WglContext.obj
 0001:0002aec0       ?display@WglContext@priv@sf@@UEAAXXZ 000000014002bec0 f   sfml-window-s:WglContext.obj
 0001:0002aee0       ?getErrorString@priv@sf@@YA?AV?$basic_string@DU?$char_traits@D@std@@V?$allocator@D@2@@std@@K@Z 000000014002bee0 f i sfml-window-s:WglContext.obj
 0001:0002b050       ?getFunction@WglContext@priv@sf@@SAP6AXXZPEBD@Z 000000014002c050 f   sfml-window-s:WglContext.obj
 0001:0002b2d0       ?makeCurrent@WglContext@priv@sf@@UEAA_N_N@Z 000000014002c2d0 f   sfml-window-s:WglContext.obj
 0001:0002b430       ?selectBestPixelFormat@WglContext@priv@sf@@SAHPEAUHDC__@@IAEBUContextSettings@3@_N@Z 000000014002c430 f   sfml-window-s:WglContext.obj
 0001:0002bbd0       ?setDevicePixelFormat@WglContext@priv@sf@@AEAAXI@Z 000000014002cbd0 f   sfml-window-s:WglContext.obj
 0001:0002bdc0       ?setVerticalSyncEnabled@WglContext@priv@sf@@UEAAX_N@Z 000000014002cdc0 f   sfml-window-s:WglContext.obj
 0001:0002c560       ?updateSettingsFromPixelFormat@WglContext@priv@sf@@AEAAXXZ 000000014002d560 f   sfml-window-s:WglContext.obj
 0001:0002cbe0       ??$_Reallocate_for@V<lambda_1>@?1??assign@?$basic_string@_WU?$char_traits@_W@std@@V?$allocator@_W@2@@std@@QEAAAEAV34@QEB_W_K@Z@PEB_W@?$basic_string@_WU?$char_traits@_W@std@@V?$allocator@_W@2@@std@@AEAAAEAV01@_KV<lambda_1>@?1??assign@01@QEAAAEAV01@QEB_W0@Z@PEB_W@Z 000000014002dbe0 f i sfml-window-s:JoystickImpl.obj
 0001:0002cd50       ??$_Reallocate_grow_by@V<lambda_1>@?1??append@?$basic_string@_WU?$char_traits@_W@std@@V?$allocator@_W@2@@std@@QEAAAEAV34@QEB_W_K@Z@PEB_W_K@?$basic_string@_WU?$char_traits@_W@std@@V?$allocator@_W@2@@std@@AEAAAEAV01@_KV<lambda_1>@?1??append@01@QEAAAEAV01@QEB_W0@Z@PEB_W_K@Z 000000014002dd50 f i sfml-window-s:JoystickImpl.obj
 0001:0002cf10       ??0String@sf@@QEAA@AEBV01@@Z 000000014002df10 f i sfml-window-s:JoystickImpl.obj
 0001:0002d050       ??1?$basic_stringbuf@_WU?$char_traits@_W@std@@V?$allocator@_W@2@@std@@UEAA@XZ 000000014002e050 f i sfml-window-s:JoystickImpl.obj
 0001:0002d120       ??4String@sf@@QEAAAEAV01@$$QEAV01@@Z 000000014002e120 f i sfml-window-s:JoystickImpl.obj
 0001:0002d1c0       ??_D?$basic_ostringstream@_WU?$char_traits@_W@std@@V?$allocator@_W@2@@std@@QEAAXXZ 000000014002e1c0 f i sfml-window-s:JoystickImpl.obj
 0001:0002d21c       ??_E?$basic_ostringstream@_WU?$char_traits@_W@std@@V?$allocator@_W@2@@std@@$4PPPPPPPM@A@EAAPEAXI@Z 000000014002e21c f i sfml-window-s:JoystickImpl.obj
 0001:0002d230       ??_E?$basic_ostringstream@_WU?$char_traits@_W@std@@V?$allocator@_W@2@@std@@UEAAPEAXI@Z 000000014002e230 f i sfml-window-s:JoystickImpl.obj
 0001:0002d230       ??_G?$basic_ostringstream@_WU?$char_traits@_W@std@@V?$allocator@_W@2@@std@@UEAAPEAXI@Z 000000014002e230 f i sfml-window-s:JoystickImpl.obj
 0001:0002d2d0       ??_E?$basic_stringbuf@_WU?$char_traits@_W@std@@V?$allocator@_W@2@@std@@UEAAPEAXI@Z 000000014002e2d0 f i sfml-window-s:JoystickImpl.obj
 0001:0002d2d0       ??_G?$basic_stringbuf@_WU?$char_traits@_W@std@@V?$allocator@_W@2@@std@@UEAAPEAXI@Z 000000014002e2d0 f i sfml-window-s:JoystickImpl.obj
 0001:0002d410       ?cleanup@JoystickImpl@priv@sf@@SAXXZ 000000014002e410 f   sfml-window-s:JoystickImpl.obj
 0001:0002d450       ?close@JoystickImpl@priv@sf@@QEAAXXZ 000000014002e450 f   sfml-window-s:JoystickImpl.obj
 0001:0002d4e0       ?deallocate@?$allocator@_W@std@@QEAAXQEA_W_K@Z 000000014002e4e0 f i sfml-window-s:JoystickImpl.obj
 0001:0002d520       ?deviceEnumerationCallback@JoystickImpl@priv@sf@@CAHPEBUDIDEVICEINSTANCEW@@PEAX@Z 000000014002e520 f   sfml-window-s:JoystickImpl.obj
 0001:0002d5d0       ?deviceObjectEnumerationCallback@JoystickImpl@priv@sf@@CAHPEBUDIDEVICEOBJECTINSTANCEW@@PEAX@Z 000000014002e5d0 f   sfml-window-s:JoystickImpl.obj
 0001:0002d830       ?getCapabilities@JoystickImpl@priv@sf@@QEBA?AUJoystickCaps@23@XZ 000000014002e830 f   sfml-window-s:JoystickImpl.obj
 0001:0002e5d0       ?getIdentification@JoystickImpl@priv@sf@@QEBA?AUIdentification@Joystick@3@XZ 000000014002f5d0 f   sfml-window-s:JoystickImpl.obj
 0001:0002e610       ?initialize@JoystickImpl@priv@sf@@SAXXZ 000000014002f610 f   sfml-window-s:JoystickImpl.obj
 0001:0002e8e0       ?isConnected@JoystickImpl@priv@sf@@SA_NI@Z 000000014002f8e0 f   sfml-window-s:JoystickImpl.obj
 0001:0002e9e0       ?open@JoystickImpl@priv@sf@@QEAA_NI@Z 000000014002f9e0 f   sfml-window-s:JoystickImpl.obj
 0001:0002eb50       ?openDInput@JoystickImpl@priv@sf@@QEAA_NI@Z 000000014002fb50 f   sfml-window-s:JoystickImpl.obj
 0001:0002fdd0       ?overflow@?$basic_stringbuf@_WU?$char_traits@_W@std@@V?$allocator@_W@2@@std@@MEAAGG@Z 0000000140030dd0 f i sfml-window-s:JoystickImpl.obj
 0001:0002ffc0       ?pbackfail@?$basic_stringbuf@_WU?$char_traits@_W@std@@V?$allocator@_W@2@@std@@MEAAGG@Z 0000000140030fc0 f i sfml-window-s:JoystickImpl.obj
 0001:00030060       ?seekoff@?$basic_stringbuf@_WU?$char_traits@_W@std@@V?$allocator@_W@2@@std@@MEAA?AV?$fpos@U_Mbstatet@@@2@_JHH@Z 0000000140031060 f i sfml-window-s:JoystickImpl.obj
 0001:00030210       ?seekpos@?$basic_stringbuf@_WU?$char_traits@_W@std@@V?$allocator@_W@2@@std@@MEAA?AV?$fpos@U_Mbstatet@@@2@V32@H@Z 0000000140031210 f i sfml-window-s:JoystickImpl.obj
 0001:00030360       ?setLazyUpdates@JoystickImpl@priv@sf@@SAX_N@Z 0000000140031360 f   sfml-window-s:JoystickImpl.obj
 0001:00030370       ?underflow@?$basic_stringbuf@_WU?$char_traits@_W@std@@V?$allocator@_W@2@@std@@MEAAGXZ 0000000140031370 f i sfml-window-s:JoystickImpl.obj
 0001:00030440       ?update@JoystickImpl@priv@sf@@QEAA?AUJoystickState@23@XZ 0000000140031440 f   sfml-window-s:JoystickImpl.obj
 0001:00030870       ?updateConnections@JoystickImpl@priv@sf@@SAXXZ 0000000140031870 f   sfml-window-s:JoystickImpl.obj
 0001:00030a50       ?updateConnectionsDInput@JoystickImpl@priv@sf@@SAXXZ 0000000140031a50 f   sfml-window-s:JoystickImpl.obj
 0001:00030d20       ?updateDInputBuffered@JoystickImpl@priv@sf@@QEAA?AUJoystickState@23@XZ 0000000140031d20 f   sfml-window-s:JoystickImpl.obj
 0001:000312e0       ?updateDInputPolled@JoystickImpl@priv@sf@@QEAA?AUJoystickState@23@XZ 00000001400322e0 f   sfml-window-s:JoystickImpl.obj
 0001:000318f0       ?update@SensorImpl@priv@sf@@QEAA?AV?$Vector3@M@3@XZ 00000001400328f0 f   sfml-window-s:SensorImpl.obj
 0001:000318fc       ?_Random_device@std@@YAIXZ 00000001400328fc f   msvcprt:MSVCP140.dll
 0001:00031902       _Query_perf_counter        0000000140032902 f   msvcprt:MSVCP140.dll
 0001:00031908       _Query_perf_frequency      0000000140032908 f   msvcprt:MSVCP140.dll
 0001:0003190e       ?_Xbad_alloc@std@@YAXXZ    000000014003290e f   msvcprt:MSVCP140.dll
 0001:00031914       ?_Xlength_error@std@@YAXPEBD@Z 0000000140032914 f   msvcprt:MSVCP140.dll
 0001:0003191c       __std_system_error_allocate_message 000000014003291c f   msvcprt:syserror_import_lib.obj
 0001:000319b4       __std_system_error_deallocate_message 00000001400329b4 f   msvcprt:syserror_import_lib.obj
 0001:000319bb       ?_Syserror_map@std@@YAPEBDH@Z 00000001400329bb f   msvcprt:MSVCP140.dll
 0001:000319c1       ?_Winerror_map@std@@YAHH@Z 00000001400329c1 f   msvcprt:MSVCP140.dll
 0001:000319c7       ?_Init@locale@std@@CAPEAV_Locimp@12@_N@Z 00000001400329c7 f   msvcprt:MSVCP140.dll
 0001:000319d0       __std_fs_code_page         00000001400329d0 f   msvcprt:filesystem.obj
 0001:000319f8       __std_fs_convert_narrow_to_wide 00000001400329f8 f   msvcprt:filesystem.obj
 0001:00031a40       __std_fs_convert_wide_to_narrow 0000000140032a40 f   msvcprt:filesystem.obj
 0001:00031b64       __std_fs_convert_wide_to_narrow_replace_chars 0000000140032b64 f   msvcprt:filesystem.obj
 0001:00031c30       __std_fs_get_full_path_name 0000000140032c30 f   msvcprt:filesystem.obj
 0001:00031c60       ?uncaught_exception@std@@YA_NXZ 0000000140032c60 f   msvcprt:MSVCP140.dll
 0001:00031c66       _Mtx_lock                  0000000140032c66 f   msvcprt:MSVCP140.dll
 0001:00031c6c       _Mtx_unlock                0000000140032c6c f   msvcprt:MSVCP140.dll
 0001:00031c72       ?_Throw_Cpp_error@std@@YAXH@Z 0000000140032c72 f   msvcprt:MSVCP140.dll
 0001:00031c78       ??1_Lockit@std@@QEAA@XZ    0000000140032c78 f   msvcprt:MSVCP140.dll
 0001:00031c80       ?_Facet_Register@std@@YAXPEAV_Facet_base@1@@Z 0000000140032c80 f   msvcprt:locale0_implib.obj
 0001:00031cbd       ?_Getgloballocale@locale@std@@CAPEAV_Locimp@12@XZ 0000000140032cbd f   msvcprt:MSVCP140.dll
 0001:00031cc3       ?xsgetn@?$basic_streambuf@DU?$char_traits@D@std@@@std@@MEAA_JPEAD_J@Z 0000000140032cc3 f   msvcprt:MSVCP140.dll
 0001:00031cc9       ?xsputn@?$basic_streambuf@DU?$char_traits@D@std@@@std@@MEAA_JPEBD_J@Z 0000000140032cc9 f   msvcprt:MSVCP140.dll
 0001:00031ccf       ?showmanyc@?$basic_streambuf@DU?$char_traits@D@std@@@std@@MEAA_JXZ 0000000140032ccf f   msvcprt:MSVCP140.dll
 0001:00031cd5       ?imbue@?$basic_streambuf@DU?$char_traits@D@std@@@std@@MEAAXAEBVlocale@2@@Z 0000000140032cd5 f   msvcprt:MSVCP140.dll
 0001:00031cdb       ?setbuf@?$basic_streambuf@DU?$char_traits@D@std@@@std@@MEAAPEAV12@PEAD_J@Z 0000000140032cdb f   msvcprt:MSVCP140.dll
 0001:00031ce1       ?seekpos@?$basic_streambuf@DU?$char_traits@D@std@@@std@@MEAA?AV?$fpos@U_Mbstatet@@@2@V32@H@Z 0000000140032ce1 f   msvcprt:MSVCP140.dll
 0001:00031ce7       ?seekoff@?$basic_streambuf@DU?$char_traits@D@std@@@std@@MEAA?AV?$fpos@U_Mbstatet@@@2@_JHH@Z 0000000140032ce7 f   msvcprt:MSVCP140.dll
 0001:00031ced       ?uflow@?$basic_streambuf@DU?$char_traits@D@std@@@std@@MEAAHXZ 0000000140032ced f   msvcprt:MSVCP140.dll
 0001:00031cf3       ?underflow@?$basic_streambuf@DU?$char_traits@D@std@@@std@@MEAAHXZ 0000000140032cf3 f   msvcprt:MSVCP140.dll
 0001:00031cf9       ?pbackfail@?$basic_streambuf@DU?$char_traits@D@std@@@std@@MEAAHH@Z 0000000140032cf9 f   msvcprt:MSVCP140.dll
 0001:00031cff       ?_Unlock@?$basic_streambuf@DU?$char_traits@D@std@@@std@@UEAAXXZ 0000000140032cff f   msvcprt:MSVCP140.dll
 0001:00031d05       ?_Lock@?$basic_streambuf@DU?$char_traits@D@std@@@std@@UEAAXXZ 0000000140032d05 f   msvcprt:MSVCP140.dll
 0001:00031d0b       ?sync@?$basic_streambuf@DU?$char_traits@D@std@@@std@@MEAAHXZ 0000000140032d0b f   msvcprt:MSVCP140.dll
 0001:00031d11       ?imbue@?$basic_streambuf@_WU?$char_traits@_W@std@@@std@@MEAAXAEBVlocale@2@@Z 0000000140032d11 f   msvcprt:MSVCP140.dll
 0001:00031d17       ?sync@?$basic_streambuf@_WU?$char_traits@_W@std@@@std@@MEAAHXZ 0000000140032d17 f   msvcprt:MSVCP140.dll
 0001:00031d1d       ?setbuf@?$basic_streambuf@_WU?$char_traits@_W@std@@@std@@MEAAPEAV12@PEA_W_J@Z 0000000140032d1d f   msvcprt:MSVCP140.dll
 0001:00031d23       ?xsputn@?$basic_streambuf@_WU?$char_traits@_W@std@@@std@@MEAA_JPEB_W_J@Z 0000000140032d23 f   msvcprt:MSVCP140.dll
 0001:00031d29       ?xsgetn@?$basic_streambuf@_WU?$char_traits@_W@std@@@std@@MEAA_JPEA_W_J@Z 0000000140032d29 f   msvcprt:MSVCP140.dll
 0001:00031d2f       ?uflow@?$basic_streambuf@_WU?$char_traits@_W@std@@@std@@MEAAGXZ 0000000140032d2f f   msvcprt:MSVCP140.dll
 0001:00031d35       ?showmanyc@?$basic_streambuf@_WU?$char_traits@_W@std@@@std@@MEAA_JXZ 0000000140032d35 f   msvcprt:MSVCP140.dll
 0001:00031d3b       ?_Unlock@?$basic_streambuf@_WU?$char_traits@_W@std@@@std@@UEAAXXZ 0000000140032d3b f   msvcprt:MSVCP140.dll
 0001:00031d41       ?_Lock@?$basic_streambuf@_WU?$char_traits@_W@std@@@std@@UEAAXXZ 0000000140032d41 f   msvcprt:MSVCP140.dll
 0001:00031d48       ??2@YAPEAX_K@Z             0000000140032d48 f   MSVCRT:new_scalar.obj
 0001:00031d84       ??3@YAXPEAX_K@Z            0000000140032d84 f   MSVCRT:delete_scalar_size.obj
 0001:00031d84       ??_V@YAXPEAX@Z             0000000140032d84 f   MSVCRT:delete_array.obj
 0001:00031da0       __chkstk                   0000000140032da0 f   MSVCRT:chkstk.obj
 0001:00031da0       _alloca_probe              0000000140032da0 f   MSVCRT:chkstk.obj
 0001:00031df0       ??_Etype_info@@UEAAPEAXI@Z 0000000140032df0 f i MSVCRT:std_type_info_static.obj
 0001:00031df0       ??_Gtype_info@@UEAAPEAXI@Z 0000000140032df0 f i MSVCRT:std_type_info_static.obj
 0001:00032074       WinMainCRTStartup          0000000140033074 f   MSVCRT:exe_winmain.obj
 0001:00032088       __GSHandlerCheck           0000000140033088 f   MSVCRT:gshandler.obj
 0001:000320a8       __GSHandlerCheckCommon     00000001400330a8 f   MSVCRT:gshandler.obj
 0001:00032120       __security_check_cookie    0000000140033120 f   MSVCRT:amdsecgs.obj
 0001:00032140       _Init_thread_abort         0000000140033140 f   MSVCRT:thread_safe_statics.obj
 0001:0003217c       _Init_thread_footer        000000014003317c f   MSVCRT:thread_safe_statics.obj
 0001:000321e8       _Init_thread_header        00000001400331e8 f   MSVCRT:thread_safe_statics.obj
 0001:00032260       __GSHandlerCheck_EH4       0000000140033260 f   MSVCRT:gshandlereh4.obj
 0001:000322e0       __scrt_acquire_startup_lock 00000001400332e0 f   MSVCRT:utility.obj
 0001:0003231c       __scrt_initialize_crt      000000014003331c f   MSVCRT:utility.obj
 0001:00032358       __scrt_initialize_onexit_tables 0000000140033358 f   MSVCRT:utility.obj
 0001:000323e4       __scrt_is_nonwritable_in_current_image 00000001400333e4 f   MSVCRT:utility.obj
 0001:0003247c       __scrt_release_startup_lock 000000014003347c f   MSVCRT:utility.obj
 0001:000324a0       __scrt_uninitialize_crt    00000001400334a0 f   MSVCRT:utility.obj
 0001:000324cc       _onexit                    00000001400334cc f   MSVCRT:utility.obj
 0001:00032508       atexit                     0000000140033508 f   MSVCRT:utility.obj
 0001:00032520       __isa_available_init       0000000140033520 f   MSVCRT:cpu_disp.obj
 0001:000327ec       ??_U@YAPEAX_K@Z            00000001400337ec f   MSVCRT:new_array.obj
 0001:000327f4       __dyn_tls_dtor             00000001400337f4 f   MSVCRT:tlsdtor.obj
 0001:0003289c       __tlregdtor                000000014003389c f   MSVCRT:tlsdtor.obj
 0001:00032938       __dyn_tls_init             0000000140033938 f   MSVCRT:tlsdyn.obj
 0001:000329a0       ??_L@YAXPEAX_K1P6AX0@Z2@Z  00000001400339a0 f   MSVCRT:ehvecctr.obj
 0001:00032a10       ??_M@YAXPEAX_K1P6AX0@Z@Z   0000000140033a10 f   MSVCRT:ehvecdtr.obj
 0001:00032a7c       ?__ArrayUnwind@@YAXPEAX_K1P6AX0@Z@Z 0000000140033a7c f   MSVCRT:ehvecdtr.obj
 0001:00032ae0       _guard_check_icall_nop     0000000140033ae0 f i MSVCRT:guard_support.obj
 0001:00032ae0       _initialize_denormal_control 0000000140033ae0 f i MSVCRT:denormal_control.obj
 0001:00032ae0       _initialize_invalid_parameter_handler 0000000140033ae0 f i MSVCRT:invalid_parameter_handler.obj
 0001:00032ae4       ??0bad_alloc@std@@QEAA@XZ  0000000140033ae4 f i MSVCRT:throw_bad_alloc.obj
 0001:00032b04       ?__scrt_throw_std_bad_alloc@@YAXXZ 0000000140033b04 f   MSVCRT:throw_bad_alloc.obj
 0001:00032b24       ??3@YAXPEAX@Z              0000000140033b24 f   MSVCRT:delete_scalar.obj
 0001:00032b2c       __security_init_cookie     0000000140033b2c f   MSVCRT:gs_support.obj
 0001:00032bd8       __scrt_exe_initialize_mta  0000000140033bd8 f   MSVCRT:utility_desktop.obj
 0001:00032bd8       __scrt_initialize_winrt    0000000140033bd8 f   MSVCRT:utility_desktop.obj
 0001:00032bd8       __scrt_stub_for_initialize_mta 0000000140033bd8 f   MSVCRT:utility_desktop.obj
 0001:00032bd8       _get_startup_commit_mode   0000000140033bd8 f   MSVCRT:commit_mode.obj
 0001:00032bd8       _get_startup_new_mode      0000000140033bd8 f   MSVCRT:new_mode.obj
 0001:00032bd8       _get_startup_thread_locale_mode 0000000140033bd8 f   MSVCRT:thread_locale.obj
 0001:00032bd8       _matherr                   0000000140033bd8 f   MSVCRT:matherr.obj
 0001:00032bdc       _get_startup_argv_mode     0000000140033bdc f   MSVCRT:argv_mode.obj
 0001:00032be4       _get_startup_file_mode     0000000140033be4 f   MSVCRT:file_mode.obj
 0001:00032bec       ?__scrt_initialize_type_info@@YAXXZ 0000000140033bec f   MSVCRT:tncleanup.obj
 0001:00032bfc       __acrt_initialize          0000000140033bfc f   MSVCRT:ucrt_stubs.obj
 0001:00032bfc       __acrt_uninitialize        0000000140033bfc f   MSVCRT:ucrt_stubs.obj
 0001:00032bfc       __scrt_stub_for_acrt_initialize 0000000140033bfc f   MSVCRT:ucrt_stubs.obj
 0001:00032bfc       __scrt_stub_for_acrt_uninitialize 0000000140033bfc f   MSVCRT:ucrt_stubs.obj
 0001:00032bfc       __vcrt_initialize          0000000140033bfc f   MSVCRT:ucrt_stubs.obj
 0001:00032bfc       __vcrt_uninitialize        0000000140033bfc f   MSVCRT:ucrt_stubs.obj
 0001:00032bfc       _should_initialize_environment 0000000140033bfc f   MSVCRT:env_mode.obj
 0001:00032c00       __scrt_initialize_default_local_stdio_options 0000000140033c00 f   MSVCRT:default_local_stdio_options.obj
 0001:00032c1c       __scrt_is_user_matherr_present 0000000140033c1c f   MSVCRT:matherr_detection.obj
 0001:00032c28       __scrt_get_dyn_tls_init_callback 0000000140033c28 f   MSVCRT:dyn_tls_init.obj
 0001:00032c30       __scrt_get_dyn_tls_dtor_callback 0000000140033c30 f   MSVCRT:dyn_tls_dtor.obj
 0001:00032c38       __crt_debugger_hook        0000000140033c38 f   MSVCRT:utility_desktop.obj
 0001:00032c40       __scrt_fastfail            0000000140033c40 f   MSVCRT:utility_desktop.obj
 0001:00032d88       __scrt_get_show_window_mode 0000000140033d88 f   MSVCRT:utility_desktop.obj
 0001:00032dc4       __scrt_initialize_mta      0000000140033dc4 f   MSVCRT:utility_desktop.obj
 0001:00032dcc       __scrt_is_managed_app      0000000140033dcc f   MSVCRT:utility_desktop.obj
 0001:00032e20       __scrt_set_unhandled_exception_filter 0000000140033e20 f   MSVCRT:utility_desktop.obj
 0001:00032e30       __scrt_unhandled_exception_filter 0000000140033e30 f   MSVCRT:utility_desktop.obj
 0001:00032e8c       _RTC_Initialize            0000000140033e8c f   MSVCRT:initsect.obj
 0001:00032ec8       _RTC_Terminate             0000000140033ec8 f   MSVCRT:initsect.obj
 0001:00032f04       __raise_securityfailure    0000000140033f04 f   MSVCRT:gs_report.obj
 0001:00032f38       __report_gsfailure         0000000140033f38 f   MSVCRT:gs_report.obj
 0001:0003300c       __report_rangecheckfailure 000000014003400c f   MSVCRT:gs_report.obj
 0001:00033020       __report_securityfailure   0000000140034020 f   MSVCRT:gs_report.obj
 0001:000331a4       __scrt_is_ucrt_dll_in_use  00000001400341a4 f   MSVCRT:ucrt_detection.obj
 0001:000331b0       __std_terminate            00000001400341b0 f   vcruntime:VCRUNTIME140.dll
 0001:000331b6       __std_exception_copy       00000001400341b6 f   vcruntime:VCRUNTIME140.dll
 0001:000331bc       __std_exception_destroy    00000001400341bc f   vcruntime:VCRUNTIME140.dll
 0001:000331c2       _CxxThrowException         00000001400341c2 f   vcruntime:VCRUNTIME140.dll
 0001:000331c8       __CxxFrameHandler4         00000001400341c8 f   vcruntime:VCRUNTIME140_1.dll
 0001:000331ce       memcpy                     00000001400341ce f   vcruntime:VCRUNTIME140.dll
 0001:000331d4       _purecall                  00000001400341d4 f   vcruntime:VCRUNTIME140.dll
 0001:000331da       memset                     00000001400341da f   vcruntime:VCRUNTIME140.dll
 0001:000331e0       memmove                    00000001400341e0 f   vcruntime:VCRUNTIME140.dll
 0001:000331e6       strstr                     00000001400341e6 f   vcruntime:VCRUNTIME140.dll
 0001:000331ec       memcmp                     00000001400341ec f   vcruntime:VCRUNTIME140.dll
 0001:000331f2       memchr                     00000001400341f2 f   vcruntime:VCRUNTIME140.dll
 0001:000331f8       __C_specific_handler       00000001400341f8 f   vcruntime:VCRUNTIME140.dll
 0001:000331fe       __current_exception        00000001400341fe f   vcruntime:VCRUNTIME140.dll
 0001:00033204       __current_exception_context 0000000140034204 f   vcruntime:VCRUNTIME140.dll
 0001:0003320a       cosf                       000000014003420a f   ucrt:api-ms-win-crt-math-l1-1-0.dll
 0001:00033210       sinf                       0000000140034210 f   ucrt:api-ms-win-crt-math-l1-1-0.dll
 0001:00033216       ceilf                      0000000140034216 f   ucrt:api-ms-win-crt-math-l1-1-0.dll
 0001:0003321c       floorf                     000000014003421c f   ucrt:api-ms-win-crt-math-l1-1-0.dll
 0001:00033222       free                       0000000140034222 f   ucrt:api-ms-win-crt-heap-l1-1-0.dll
 0001:00033228       malloc                     0000000140034228 f   ucrt:api-ms-win-crt-heap-l1-1-0.dll
 0001:0003322e       strcmp                     000000014003422e f   ucrt:api-ms-win-crt-string-l1-1-0.dll
 0001:00033234       sqrtf                      0000000140034234 f   ucrt:api-ms-win-crt-math-l1-1-0.dll
 0001:0003323a       _callnewh                  000000014003423a f   ucrt:api-ms-win-crt-heap-l1-1-0.dll
 0001:00033240       _seh_filter_exe            0000000140034240 f   ucrt:api-ms-win-crt-runtime-l1-1-0.dll
 0001:00033246       _set_app_type              0000000140034246 f   ucrt:api-ms-win-crt-runtime-l1-1-0.dll
 0001:0003324c       __setusermatherr           000000014003424c f   ucrt:api-ms-win-crt-math-l1-1-0.dll
 0001:00033252       _configure_narrow_argv     0000000140034252 f   ucrt:api-ms-win-crt-runtime-l1-1-0.dll
 0001:00033258       _initialize_narrow_environment 0000000140034258 f   ucrt:api-ms-win-crt-runtime-l1-1-0.dll
 0001:0003325e       _get_narrow_winmain_command_line 000000014003425e f   ucrt:api-ms-win-crt-runtime-l1-1-0.dll
 0001:00033264       _initterm                  0000000140034264 f   ucrt:api-ms-win-crt-runtime-l1-1-0.dll
 0001:0003326a       _initterm_e                000000014003426a f   ucrt:api-ms-win-crt-runtime-l1-1-0.dll
 0001:00033270       exit                       0000000140034270 f   ucrt:api-ms-win-crt-runtime-l1-1-0.dll
 0001:00033276       _exit                      0000000140034276 f   ucrt:api-ms-win-crt-runtime-l1-1-0.dll
 0001:0003327c       _set_fmode                 000000014003427c f   ucrt:api-ms-win-crt-stdio-l1-1-0.dll
 0001:00033282       _cexit                     0000000140034282 f   ucrt:api-ms-win-crt-runtime-l1-1-0.dll
 0001:00033288       _c_exit                    0000000140034288 f   ucrt:api-ms-win-crt-runtime-l1-1-0.dll
 0001:0003328e       _register_thread_local_exe_atexit_callback 000000014003428e f   ucrt:api-ms-win-crt-runtime-l1-1-0.dll
 0001:00033294       _configthreadlocale        0000000140034294 f   ucrt:api-ms-win-crt-locale-l1-1-0.dll
 0001:0003329a       _set_new_mode              000000014003429a f   ucrt:api-ms-win-crt-heap-l1-1-0.dll
 0001:000332a0       __p__commode               00000001400342a0 f   ucrt:api-ms-win-crt-stdio-l1-1-0.dll
 0001:000332a6       _initialize_onexit_table   00000001400342a6 f   ucrt:api-ms-win-crt-runtime-l1-1-0.dll
 0001:000332ac       _register_onexit_function  00000001400342ac f   ucrt:api-ms-win-crt-runtime-l1-1-0.dll
 0001:000332b2       _crt_atexit                00000001400342b2 f   ucrt:api-ms-win-crt-runtime-l1-1-0.dll
 0001:000332b8       terminate                  00000001400342b8 f   ucrt:api-ms-win-crt-runtime-l1-1-0.dll
 0001:000332c0       FT_Done_FreeType           00000001400342c0 f   freetype:ftinit.obj
 0001:00033300       FT_Init_FreeType           0000000140034300 f   freetype:ftinit.obj
 0001:000333a0       FT_Set_Default_Properties  00000001400343a0 f   freetype:ftinit.obj
 0001:00033bd0       FT_Activate_Size           0000000140034bd0 f   freetype:ftbase.obj
 0001:00033c00       FT_Add_Module              0000000140034c00 f   freetype:ftbase.obj
 0001:00033f30       FT_Angle_Diff              0000000140034f30 f   freetype:ftbase.obj
 0001:00033fa0       FT_Atan2                   0000000140034fa0 f   freetype:ftbase.obj
 0001:00034000       FT_CMap_New                0000000140035000 f   freetype:ftbase.obj
 0001:000341c0       FT_Cos                     00000001400351c0 f   freetype:ftbase.obj
 0001:000341f0       FT_DivFix                  00000001400351f0 f   freetype:ftbase.obj
 0001:00034260       FT_Done_Face               0000000140035260 f   freetype:ftbase.obj
 0001:00034350       FT_Done_GlyphSlot          0000000140035350 f   freetype:ftbase.obj
 0001:000343e0       FT_Done_Library            00000001400353e0 f   freetype:ftbase.obj
 0001:00034570       FT_Done_Size               0000000140035570 f   freetype:ftbase.obj
 0001:00034690       FT_Get_Advance             0000000140035690 f   freetype:ftbase.obj
 0001:00034860       FT_Get_Char_Index          0000000140035860 f   freetype:ftbase.obj
 0001:000348b0       FT_Get_Glyph_Name          00000001400358b0 f   freetype:ftbase.obj
 0001:00034990       FT_Get_Kerning             0000000140035990 f   freetype:ftbase.obj
 0001:00034b50       FT_Get_Module              0000000140035b50 f   freetype:ftbase.obj
 0001:00034be0       FT_Get_Module_Interface    0000000140035be0 f   freetype:ftbase.obj
 0001:00034c70       FT_Get_Next_Char           0000000140035c70 f   freetype:ftbase.obj
 0001:00034cf0       FT_GlyphLoader_Add         0000000140035cf0 f   freetype:ftbase.obj
 0001:00034ef0       FT_GlyphLoader_CheckPoints 0000000140035ef0 f   freetype:ftbase.obj
 0001:000351c0       FT_GlyphLoader_CheckSubGlyphs 00000001400361c0 f   freetype:ftbase.obj
 0001:00035350       FT_GlyphLoader_CreateExtra 0000000140036350 f   freetype:ftbase.obj
 0001:00035450       FT_GlyphLoader_Done        0000000140036450 f   freetype:ftbase.obj
 0001:00035480       FT_GlyphLoader_Prepare     0000000140036480 f   freetype:ftbase.obj
 0001:000354d0       FT_GlyphLoader_Reset       00000001400364d0 f   freetype:ftbase.obj
 0001:000355b0       FT_GlyphLoader_Rewind      00000001400365b0 f   freetype:ftbase.obj
 0001:000355f0       FT_Hypot                   00000001400365f0 f   freetype:ftbase.obj
 0001:000356e0       FT_List_Add                00000001400366e0 f   freetype:ftbase.obj
 0001:00035710       FT_List_Finalize           0000000140036710 f   freetype:ftbase.obj
 0001:00035790       FT_List_Find               0000000140036790 f   freetype:ftbase.obj
 0001:000357c0       FT_List_Iterate            00000001400367c0 f   freetype:ftbase.obj
 0001:00035830       FT_Load_Char               0000000140036830 f   freetype:ftbase.obj
 0001:00035890       FT_Load_Glyph              0000000140036890 f   freetype:ftbase.obj
 0001:000360c0       FT_Lookup_Renderer         00000001400370c0 f   freetype:ftbase.obj
 0001:00036120       FT_Match_Size              0000000140037120 f   freetype:ftbase.obj
 0001:00036250       FT_Matrix_Check            0000000140037250 f   freetype:ftbase.obj
 0001:000362f0       FT_Matrix_Invert           00000001400372f0 f   freetype:ftbase.obj
 0001:000363b0       FT_Matrix_Multiply         00000001400373b0 f   freetype:ftbase.obj
 0001:00036510       FT_Matrix_Multiply_Scaled  0000000140037510 f   freetype:ftbase.obj
 0001:00036640       FT_MulAddFix               0000000140037640 f   freetype:ftbase.obj
 0001:00036790       FT_MulDiv                  0000000140037790 f   freetype:ftbase.obj
 0001:00036830       FT_MulDiv_No_Round         0000000140037830 f   freetype:ftbase.obj
 0001:000368c0       FT_MulFix                  00000001400378c0 f   freetype:ftbase.obj
 0001:000368e0       FT_New_Face                00000001400378e0 f   freetype:ftbase.obj
 0001:00036920       FT_New_GlyphSlot           0000000140037920 f   freetype:ftbase.obj
 0001:00036b40       FT_New_Library             0000000140037b40 f   freetype:ftbase.obj
 0001:00036be0       FT_New_Size                0000000140037be0 f   freetype:ftbase.obj
 0001:00036dc0       FT_Open_Face               0000000140037dc0 f   freetype:ftbase.obj
 0001:00036de0       FT_Outline_Copy            0000000140037de0 f   freetype:ftbase.obj
 0001:00036ea0       FT_Outline_Decompose       0000000140037ea0 f   freetype:ftbase.obj
 0001:00037260       FT_Outline_Done            0000000140038260 f   freetype:ftbase.obj
 0001:00037320       FT_Outline_Embolden        0000000140038320 f   freetype:ftbase.obj
 0001:00037330       FT_Outline_EmboldenXY      0000000140038330 f   freetype:ftbase.obj
 0001:000377f0       FT_Outline_Get_CBox        00000001400387f0 f   freetype:ftbase.obj
 0001:000378a0       FT_Outline_Get_Orientation 00000001400388a0 f   freetype:ftbase.obj
 0001:00037a70       FT_Outline_New             0000000140038a70 f   freetype:ftbase.obj
 0001:00037d40       FT_Outline_Transform       0000000140038d40 f   freetype:ftbase.obj
 0001:00037e30       FT_Outline_Translate       0000000140038e30 f   freetype:ftbase.obj
 0001:00037e70       FT_Raccess_Get_DataOffsets 0000000140038e70 f   freetype:ftbase.obj
 0001:00038420       FT_Raccess_Get_HeaderInfo  0000000140039420 f   freetype:ftbase.obj
 0001:00038850       FT_Render_Glyph_Internal   0000000140039850 f   freetype:ftbase.obj
 0001:00038ab0       FT_Request_Metrics         0000000140039ab0 f   freetype:ftbase.obj
 0001:00038d90       FT_Request_Size            0000000140039d90 f   freetype:ftbase.obj
 0001:00038f20       FT_RoundFix                0000000140039f20 f   freetype:ftbase.obj
 0001:00038f40       FT_Select_Charmap          0000000140039f40 f   freetype:ftbase.obj
 0001:00038fb0       FT_Select_Metrics          0000000140039fb0 f   freetype:ftbase.obj
 0001:000390e0       FT_Select_Size             000000014003a0e0 f   freetype:ftbase.obj
 0001:00039280       FT_Set_Pixel_Sizes         000000014003a280 f   freetype:ftbase.obj
 0001:000394d0       FT_Sin                     000000014003a4d0 f   freetype:ftbase.obj
 0001:00039500       FT_Stream_Close            000000014003a500 f   freetype:ftbase.obj
 0001:00039520       FT_Stream_EnterFrame       000000014003a520 f   freetype:ftbase.obj
 0001:00039660       FT_Stream_ExitFrame        000000014003a660 f   freetype:ftbase.obj
 0001:000396b0       FT_Stream_ExtractFrame     000000014003a6b0 f   freetype:ftbase.obj
 0001:000396f0       FT_Stream_Free             000000014003a6f0 f   freetype:ftbase.obj
 0001:00039740       FT_Stream_GetByte          000000014003a740 f   freetype:ftbase.obj
 0001:00039760       FT_Stream_GetULong         000000014003a760 f   freetype:ftbase.obj
 0001:000397b0       FT_Stream_GetULongLE       000000014003a7b0 f   freetype:ftbase.obj
 0001:00039800       FT_Stream_GetUShort        000000014003a800 f   freetype:ftbase.obj
 0001:00039840       FT_Stream_GetUShortLE      000000014003a840 f   freetype:ftbase.obj
 0001:00039880       FT_Stream_New              000000014003a880 f   freetype:ftbase.obj
 0001:000399f0       FT_Stream_OpenMemory       000000014003a9f0 f   freetype:ftbase.obj
 0001:00039a10       FT_Stream_Pos              000000014003aa10 f   freetype:ftbase.obj
 0001:00039a20       FT_Stream_Read             000000014003aa20 f   freetype:ftbase.obj
 0001:00039ab0       FT_Stream_ReadAt           000000014003aab0 f   freetype:ftbase.obj
 0001:00039b30       FT_Stream_ReadByte         000000014003ab30 f   freetype:ftbase.obj
 0001:00039ba0       FT_Stream_ReadFields       000000014003aba0 f   freetype:ftbase.obj
 0001:00039e50       FT_Stream_ReadULong        000000014003ae50 f   freetype:ftbase.obj
 0001:00039f00       FT_Stream_ReadULongLE      000000014003af00 f   freetype:ftbase.obj
 0001:00039fb0       FT_Stream_ReadUOffset      000000014003afb0 f   freetype:ftbase.obj
 0001:0003a050       FT_Stream_ReadUShort       000000014003b050 f   freetype:ftbase.obj
 0001:0003a0f0       FT_Stream_ReadUShortLE     000000014003b0f0 f   freetype:ftbase.obj
 0001:0003a190       FT_Stream_ReleaseFrame     000000014003b190 f   freetype:ftbase.obj
 0001:0003a1e0       FT_Stream_Seek             000000014003b1e0 f   freetype:ftbase.obj
 0001:0003a240       FT_Stream_Skip             000000014003b240 f   freetype:ftbase.obj
 0001:0003a2b0       FT_Stream_TryRead          000000014003b2b0 f   freetype:ftbase.obj
 0001:0003a330       FT_Tan                     000000014003b330 f   freetype:ftbase.obj
 0001:0003a3c0       FT_Vector_From_Polar       000000014003b3c0 f   freetype:ftbase.obj
 0001:0003a510       FT_Vector_Length           000000014003b510 f   freetype:ftbase.obj
 0001:0003a610       FT_Vector_NormLen          000000014003b610 f   freetype:ftbase.obj
 0001:0003a7e0       FT_Vector_Transform        000000014003b7e0 f   freetype:ftbase.obj
 0001:0003a890       FT_Vector_Transform_Scaled 000000014003b890 f   freetype:ftbase.obj
 0001:0003a930       FT_Vector_Unit             000000014003b930 f   freetype:ftbase.obj
 0001:0003b670       ft_corner_is_flat          000000014003c670 f   freetype:ftbase.obj
 0001:0003b730       ft_corner_orientation      000000014003c730 f   freetype:ftbase.obj
 0001:0003b830       ft_glyphslot_alloc_bitmap  000000014003c830 f   freetype:ftbase.obj
 0001:0003ba50       ft_glyphslot_free_bitmap   000000014003ca50 f   freetype:ftbase.obj
 0001:0003bab0       ft_glyphslot_preset_bitmap 000000014003cab0 f   freetype:ftbase.obj
 0001:0003be60       ft_glyphslot_set_bitmap    000000014003ce60 f   freetype:ftbase.obj
 0001:0003bee0       ft_hash_num_init           000000014003cee0 f   freetype:ftbase.obj
 0001:0003bf70       ft_hash_num_insert         000000014003cf70 f   freetype:ftbase.obj
 0001:0003bf90       ft_hash_num_lookup         000000014003cf90 f   freetype:ftbase.obj
 0001:0003bfc0       ft_hash_str_free           000000014003cfc0 f   freetype:ftbase.obj
 0001:0003c060       ft_hash_str_init           000000014003d060 f   freetype:ftbase.obj
 0001:0003c0f0       ft_hash_str_insert         000000014003d0f0 f   freetype:ftbase.obj
 0001:0003c100       ft_hash_str_lookup         000000014003d100 f   freetype:ftbase.obj
 0001:0003c120       ft_lcd_padding             000000014003d120 f   freetype:ftbase.obj
 0001:0003c5d0       ft_mem_alloc               000000014003d5d0 f   freetype:ftbase.obj
 0001:0003c650       ft_mem_free                000000014003d650 f   freetype:ftbase.obj
 0001:0003c660       ft_mem_qalloc              000000014003d660 f   freetype:ftbase.obj
 0001:0003c6c0       ft_mem_qrealloc            000000014003d6c0 f   freetype:ftbase.obj
 0001:0003c780       ft_mem_realloc             000000014003d780 f   freetype:ftbase.obj
 0001:0003c820       ft_mem_strcpyn             000000014003d820 f   freetype:ftbase.obj
 0001:0003c850       ft_mem_strdup              000000014003d850 f   freetype:ftbase.obj
 0001:0003c8e0       ft_module_get_service      000000014003d8e0 f   freetype:ftbase.obj
 0001:0003d420       ft_property_string_set     000000014003e420 f   freetype:ftbase.obj
 0001:0003d540       ft_service_list_lookup     000000014003e540 f   freetype:ftbase.obj
 0001:0003d5a0       ft_synthesize_vertical_metrics 000000014003e5a0 f   freetype:ftbase.obj
 0001:0003d810       ft_validator_error         000000014003e810 f   freetype:ftbase.obj
 0001:0003d830       ft_validator_init          000000014003e830 f   freetype:ftbase.obj
 0001:0003e370       ps_property_get            000000014003f370 f   freetype:ftbase.obj
 0001:0003e450       ps_property_set            000000014003f450 f   freetype:ftbase.obj
 0001:0003f210       FT_Done_Glyph              0000000140040210 f   freetype:ftglyph.obj
 0001:0003f250       FT_Get_Glyph               0000000140040250 f   freetype:ftglyph.obj
 0001:0003f3c0       FT_Glyph_Copy              00000001400403c0 f   freetype:ftglyph.obj
 0001:0003f4e0       FT_Glyph_To_Bitmap         00000001400404e0 f   freetype:ftglyph.obj
 0001:0003f870       FT_Bitmap_Convert          0000000140040870 f   freetype:ftbitmap.obj
 0001:0003fd40       FT_Bitmap_Copy             0000000140040d40 f   freetype:ftbitmap.obj
 0001:0003fed0       FT_Bitmap_Done             0000000140040ed0 f   freetype:ftbitmap.obj
 0001:0003ff30       FT_Bitmap_Embolden         0000000140040f30 f   freetype:ftbitmap.obj
 0001:000403b0       FT_Bitmap_Init             00000001400413b0 f   freetype:ftbitmap.obj
 0001:000403b0       FT_Bitmap_New              00000001400413b0 f   freetype:ftbitmap.obj
 0001:000406c0       FT_Glyph_Stroke            00000001400416c0 f   freetype:ftstroke.obj
 0001:000408c0       FT_Stroker_ConicTo         00000001400418c0 f   freetype:ftstroke.obj
 0001:00041020       FT_Stroker_CubicTo         0000000140042020 f   freetype:ftstroke.obj
 0001:00041820       FT_Stroker_Done            0000000140042820 f   freetype:ftstroke.obj
 0001:000418f0       FT_Stroker_EndSubPath      00000001400428f0 f   freetype:ftstroke.obj
 0001:00041a90       FT_Stroker_Export          0000000140042a90 f   freetype:ftstroke.obj
 0001:00041c10       FT_Stroker_LineTo          0000000140042c10 f   freetype:ftstroke.obj
 0001:00041d60       FT_Stroker_New             0000000140042d60 f   freetype:ftstroke.obj
 0001:00041e20       FT_Stroker_ParseOutline    0000000140042e20 f   freetype:ftstroke.obj
 0001:000422a0       FT_Stroker_Set             00000001400432a0 f   freetype:ftstroke.obj
 0001:0004b3f0       af_shaper_get_cluster      000000014004c3f0 f   freetype:autofit.obj
 0001:00052880       TT_RunIns                  0000000140053880 f   freetype:truetype.obj
 0001:00075d80       snprintf                   0000000140076d80 f i freetype:bdf.obj
 0001:00083a60       ps_hints_apply             0000000140084a60 f   freetype:pshinter.obj
 0001:0009d030       FT_Done_Memory             000000014009e030 f   freetype:ftsystem.obj
 0001:0009d040       FT_New_Memory              000000014009e040 f   freetype:ftsystem.obj
 0001:0009d0a0       FT_Stream_Open             000000014009e0a0 f   freetype:ftsystem.obj
 0001:0009d310       FT_Set_Named_Instance      000000014009e310 f   freetype:ftmm.obj
 0001:0009d4d0       FT_Gzip_Uncompress         000000014009e4d0 f   freetype:ftgzip.obj
 0001:0009d770       FT_Stream_OpenGzip         000000014009e770 f   freetype:ftgzip.obj
 0001:000a0ba0       FT_Stream_OpenLZW          00000001400a1ba0 f   freetype:ftlzw.obj
 0001:000a1500       ft_lzwstate_io             00000001400a2500 f   freetype:ftlzw.obj
 0001:000a1980       WinMain                    00000001400a2980 f   sfml-main-s:MainWin32.obj
 0001:000a19b0       ?getElapsedTime@Clock@sf@@QEBA?AVTime@2@XZ 00000001400a29b0 f   sfml-system-s:Clock.obj
 0001:000a1a20       ?restart@Clock@sf@@QEAA?AVTime@2@XZ 00000001400a2a20 f   sfml-system-s:Clock.obj
 0001:000a1ab0       ?sleep@sf@@YAXVTime@1@@Z   00000001400a2ab0 f   sfml-system-s:Sleep.obj
 0001:000a1ac0       ?sleepImpl@priv@sf@@YAXVTime@2@@Z 00000001400a2ac0 f   sfml-system-s:SleepImpl.obj
 0001:000a1b68       strrchr                    00000001400a2b68 f   vcruntime:VCRUNTIME140.dll
 0001:000a1b6e       longjmp                    00000001400a2b6e f   vcruntime:VCRUNTIME140.dll
 0001:000a1b74       __intrinsic_setjmp         00000001400a2b74 f   vcruntime:VCRUNTIME140.dll
 0001:000a1b74       _setjmp                    00000001400a2b74 f   vcruntime:VCRUNTIME140.dll
 0001:000a1b90       _guard_dispatch_icall_nop  00000001400a2b90 f   MSVCRT:guard_dispatch.obj
 0001:000a1bb0       _guard_xfg_dispatch_icall_nop 00000001400a2bb0 f   MSVCRT:guard_xfg_dispatch.obj
 0001:000a2c50       ??__FtransientContext@?1??get@TransientContext@GlContext@priv@sf@@SAAEAV?$optional@UTransientContext@GlContext@priv@sf@@@std@@XZ@YAXXZ 00000001400a3c50 f i sfml-window-s:GlContext.obj
 0001:000a2c80       ??__FweakSharedContext@?1??getWeakPtr@SharedContext@GlContext@priv@sf@@SAAEAV?$weak_ptr@USharedContext@GlContext@priv@sf@@@std@@XZ@YAXXZ 00000001400a3c80 f i sfml-window-s:GlContext.obj
 0001:000a2cb0       ??__FweakUnsharedGlObjects@?1??getWeakUnsharedGlObjects@Impl@GlContext@priv@sf@@SAAEAV?$weak_ptr@V?$vector@UUnsharedGlObject@Impl@GlContext@priv@sf@@V?$allocator@UUnsharedGlObject@Impl@GlContext@priv@sf@@@std@@@std@@@std@@XZ@YAXXZ 00000001400a3cb0 f i sfml-window-s:GlContext.obj
 0002:00000000       __imp_RegCloseKey          00000001400a4000     advapi32:ADVAPI32.dll
 0002:00000008       __imp_RegOpenKeyExW        00000001400a4008     advapi32:ADVAPI32.dll
 0002:00000010       __imp_RegQueryValueExW     00000001400a4010     advapi32:ADVAPI32.dll
 0002:00000018       \177ADVAPI32_NULL_THUNK_DATA 00000001400a4018     advapi32:ADVAPI32.dll
 0002:00000020       __imp_SwapBuffers          00000001400a4020     gdi32:GDI32.dll
 0002:00000028       __imp_SetPixelFormat       00000001400a4028     gdi32:GDI32.dll
 0002:00000030       __imp_GetPixelFormat       00000001400a4030     gdi32:GDI32.dll
 0002:00000038       __imp_DescribePixelFormat  00000001400a4038     gdi32:GDI32.dll
 0002:00000040       __imp_ChoosePixelFormat    00000001400a4040     gdi32:GDI32.dll
 0002:00000048       __imp_GetDeviceCaps        00000001400a4048     gdi32:GDI32.dll
 0002:00000050       \177GDI32_NULL_THUNK_DATA  00000001400a4050     gdi32:GDI32.dll
 0002:00000058       __imp_LocalFree            00000001400a4058     kernel32:KERNEL32.dll
 0002:00000060       __imp_GetLastError         00000001400a4060     kernel32:KERNEL32.dll
 0002:00000068       __imp_LoadLibraryA         00000001400a4068     kernel32:KERNEL32.dll
 0002:00000070       __imp_GetModuleHandleA     00000001400a4070     kernel32:KERNEL32.dll
 0002:00000078       __imp_FormatMessageW       00000001400a4078     kernel32:KERNEL32.dll
 0002:00000080       __imp_CreateFileMappingA   00000001400a4080     kernel32:KERNEL32.dll
 0002:00000088       __imp_FormatMessageA       00000001400a4088     kernel32:KERNEL32.dll
 0002:00000090       __imp_GetLocaleInfoEx      00000001400a4090     kernel32:KERNEL32.dll
 0002:00000098       __imp_LoadLibraryW         00000001400a4098     kernel32:KERNEL32.dll
 0002:000000a0       __imp_GetFullPathNameW     00000001400a40a0     kernel32:KERNEL32.dll
 0002:000000a8       __imp_AreFileApisANSI      00000001400a40a8     kernel32:KERNEL32.dll
 0002:000000b0       __imp_CloseHandle          00000001400a40b0     kernel32:KERNEL32.dll
 0002:000000b8       __imp_MultiByteToWideChar  00000001400a40b8     kernel32:KERNEL32.dll
 0002:000000c0       __imp_WideCharToMultiByte  00000001400a40c0     kernel32:KERNEL32.dll
 0002:000000c8       __imp_ReleaseSRWLockExclusive 00000001400a40c8     kernel32:KERNEL32.dll
 0002:000000d0       __imp_AcquireSRWLockExclusive 00000001400a40d0     kernel32:KERNEL32.dll
 0002:000000d8       __imp_WakeAllConditionVariable 00000001400a40d8     kernel32:KERNEL32.dll
 0002:000000e0       __imp_SleepConditionVariableSRW 00000001400a40e0     kernel32:KERNEL32.dll
 0002:000000e8       __imp_QueryPerformanceCounter 00000001400a40e8     kernel32:KERNEL32.dll
 0002:000000f0       __imp_GetCurrentProcessId  00000001400a40f0     kernel32:KERNEL32.dll
 0002:000000f8       __imp_GetCurrentThreadId   00000001400a40f8     kernel32:KERNEL32.dll
 0002:00000100       __imp_GetSystemTimeAsFileTime 00000001400a4100     kernel32:KERNEL32.dll
 0002:00000108       __imp_GetProcAddress       00000001400a4108     kernel32:KERNEL32.dll
 0002:00000110       __imp_GetModuleHandleW     00000001400a4110     kernel32:KERNEL32.dll
 0002:00000118       __imp_FreeLibrary          00000001400a4118     kernel32:KERNEL32.dll
 0002:00000120       __imp_UnmapViewOfFile      00000001400a4120     kernel32:KERNEL32.dll
 0002:00000128       __imp_MapViewOfFile        00000001400a4128     kernel32:KERNEL32.dll
 0002:00000130       __imp_GetProcessHeap       00000001400a4130     kernel32:KERNEL32.dll
 0002:00000138       __imp_HeapFree             00000001400a4138     kernel32:KERNEL32.dll
 0002:00000140       __imp_HeapReAlloc          00000001400a4140     kernel32:KERNEL32.dll
 0002:00000148       __imp_HeapAlloc            00000001400a4148     kernel32:KERNEL32.dll
 0002:00000150       __imp_ReadFile             00000001400a4150     kernel32:KERNEL32.dll
 0002:00000158       __imp_GetFileSizeEx        00000001400a4158     kernel32:KERNEL32.dll
 0002:00000160       __imp_CreateFileA          00000001400a4160     kernel32:KERNEL32.dll
 0002:00000168       __imp_TerminateProcess     00000001400a4168     kernel32:KERNEL32.dll
 0002:00000170       __imp_GetCurrentProcess    00000001400a4170     kernel32:KERNEL32.dll
 0002:00000178       __imp_IsProcessorFeaturePresent 00000001400a4178     kernel32:KERNEL32.dll
 0002:00000180       __imp_GetStartupInfoW      00000001400a4180     kernel32:KERNEL32.dll
 0002:00000188       __imp_SetUnhandledExceptionFilter 00000001400a4188     kernel32:KERNEL32.dll
 0002:00000190       __imp_UnhandledExceptionFilter 00000001400a4190     kernel32:KERNEL32.dll
 0002:00000198       __imp_IsDebuggerPresent    00000001400a4198     kernel32:KERNEL32.dll
 0002:000001a0       __imp_RtlVirtualUnwind     00000001400a41a0     kernel32:KERNEL32.dll
 0002:000001a8       __imp_RtlLookupFunctionEntry 00000001400a41a8     kernel32:KERNEL32.dll
 0002:000001b0       __imp_RtlCaptureContext    00000001400a41b0     kernel32:KERNEL32.dll
 0002:000001b8       __imp_InitializeSListHead  00000001400a41b8     kernel32:KERNEL32.dll
 0002:000001c0       __imp_Sleep                00000001400a41c0     kernel32:KERNEL32.dll
 0002:000001c8       \177KERNEL32_NULL_THUNK_DATA 00000001400a41c8     kernel32:KERNEL32.dll
 0002:000001d0       __imp_?fill@?$basic_ios@DU?$char_traits@D@std@@@std@@QEBADXZ 00000001400a41d0     msvcprt:MSVCP140.dll
 0002:000001d8       __imp_?widen@?$basic_ios@DU?$char_traits@D@std@@@std@@QEBADD@Z 00000001400a41d8     msvcprt:MSVCP140.dll
 0002:000001e0       __imp_?_Osfx@?$basic_ostream@DU?$char_traits@D@std@@@std@@QEAAXXZ 00000001400a41e0     msvcprt:MSVCP140.dll
 0002:000001e8       __imp_??6?$basic_ostream@DU?$char_traits@D@std@@@std@@QEAAAEAV01@P6AAEAV01@AEAV01@@Z@Z 00000001400a41e8     msvcprt:MSVCP140.dll
 0002:000001f0       __imp_??6?$basic_ostream@DU?$char_traits@D@std@@@std@@QEAAAEAV01@I@Z 00000001400a41f0     msvcprt:MSVCP140.dll
 0002:000001f8       __imp_?put@?$basic_ostream@DU?$char_traits@D@std@@@std@@QEAAAEAV12@D@Z 00000001400a41f8     msvcprt:MSVCP140.dll
 0002:00000200       __imp_?flush@?$basic_ostream@DU?$char_traits@D@std@@@std@@QEAAAEAV12@XZ 00000001400a4200     msvcprt:MSVCP140.dll
 0002:00000208       __imp_??6?$basic_ostream@DU?$char_traits@D@std@@@std@@QEAAAEAV01@J@Z 00000001400a4208     msvcprt:MSVCP140.dll
 0002:00000210       __imp__Mtx_lock            00000001400a4210     msvcprt:MSVCP140.dll
 0002:00000218       __imp__Mtx_unlock          00000001400a4218     msvcprt:MSVCP140.dll
 0002:00000220       __imp_?_Throw_Cpp_error@std@@YAXH@Z 00000001400a4220     msvcprt:MSVCP140.dll
 0002:00000228       __imp_??0_Lockit@std@@QEAA@H@Z 00000001400a4228     msvcprt:MSVCP140.dll
 0002:00000230       __imp_??1_Lockit@std@@QEAA@XZ 00000001400a4230     msvcprt:MSVCP140.dll
 0002:00000238       __imp_??Bid@locale@std@@QEAA_KXZ 00000001400a4238     msvcprt:MSVCP140.dll
 0002:00000240       __imp_?_Getgloballocale@locale@std@@CAPEAV_Locimp@12@XZ 00000001400a4240     msvcprt:MSVCP140.dll
 0002:00000248       __imp_?tie@?$basic_ios@DU?$char_traits@D@std@@@std@@QEBAPEAV?$basic_ostream@DU?$char_traits@D@std@@@2@XZ 00000001400a4248     msvcprt:MSVCP140.dll
 0002:00000250       __imp_??0?$basic_streambuf@DU?$char_traits@D@std@@@std@@IEAA@XZ 00000001400a4250     msvcprt:MSVCP140.dll
 0002:00000258       __imp_??1?$basic_streambuf@DU?$char_traits@D@std@@@std@@UEAA@XZ 00000001400a4258     msvcprt:MSVCP140.dll
 0002:00000260       __imp_?eback@?$basic_streambuf@DU?$char_traits@D@std@@@std@@IEBAPEADXZ 00000001400a4260     msvcprt:MSVCP140.dll
 0002:00000268       __imp_?gptr@?$basic_streambuf@DU?$char_traits@D@std@@@std@@IEBAPEADXZ 00000001400a4268     msvcprt:MSVCP140.dll
 0002:00000270       __imp_?pptr@?$basic_streambuf@DU?$char_traits@D@std@@@std@@IEBAPEADXZ 00000001400a4270     msvcprt:MSVCP140.dll
 0002:00000278       __imp_?egptr@?$basic_streambuf@DU?$char_traits@D@std@@@std@@IEBAPEADXZ 00000001400a4278     msvcprt:MSVCP140.dll
 0002:00000280       __imp_?gbump@?$basic_streambuf@DU?$char_traits@D@std@@@std@@IEAAXH@Z 00000001400a4280     msvcprt:MSVCP140.dll
 0002:00000288       __imp_?setg@?$basic_streambuf@DU?$char_traits@D@std@@@std@@IEAAXPEAD00@Z 00000001400a4288     msvcprt:MSVCP140.dll
 0002:00000290       __imp_?epptr@?$basic_streambuf@DU?$char_traits@D@std@@@std@@IEBAPEADXZ 00000001400a4290     msvcprt:MSVCP140.dll
 0002:00000298       __imp_?_Pninc@?$basic_streambuf@DU?$char_traits@D@std@@@std@@IEAAPEADXZ 00000001400a4298     msvcprt:MSVCP140.dll
 0002:000002a0       __imp_?xsgetn@?$basic_streambuf@DU?$char_traits@D@std@@@std@@MEAA_JPEAD_J@Z 00000001400a42a0     msvcprt:MSVCP140.dll
 0002:000002a8       __imp_?xsputn@?$basic_streambuf@DU?$char_traits@D@std@@@std@@MEAA_JPEBD_J@Z 00000001400a42a8     msvcprt:MSVCP140.dll
 0002:000002b0       __imp_??1?$basic_ios@DU?$char_traits@D@std@@@std@@UEAA@XZ 00000001400a42b0     msvcprt:MSVCP140.dll
 0002:000002b8       __imp_??0?$basic_ios@DU?$char_traits@D@std@@@std@@IEAA@XZ 00000001400a42b8     msvcprt:MSVCP140.dll
 0002:000002c0       __imp_?showmanyc@?$basic_streambuf@DU?$char_traits@D@std@@@std@@MEAA_JXZ 00000001400a42c0     msvcprt:MSVCP140.dll
 0002:000002c8       __imp_?widen@?$ctype@_W@std@@QEBA_WD@Z 00000001400a42c8     msvcprt:MSVCP140.dll
 0002:000002d0       __imp_?narrow@?$ctype@_W@std@@QEBAD_WD@Z 00000001400a42d0     msvcprt:MSVCP140.dll
 0002:000002d8       __imp_?_Getcat@?$ctype@_W@std@@SA_KPEAPEBVfacet@locale@2@PEBV42@@Z 00000001400a42d8     msvcprt:MSVCP140.dll
 0002:000002e0       __imp_?id@?$ctype@_W@std@@2V0locale@2@A 00000001400a42e0     msvcprt:MSVCP140.dll
 0002:000002e8       __imp_?pbase@?$basic_streambuf@DU?$char_traits@D@std@@@std@@IEBAPEADXZ 00000001400a42e8     msvcprt:MSVCP140.dll
 0002:000002f0       __imp_?setp@?$basic_streambuf@DU?$char_traits@D@std@@@std@@IEAAXPEAD0@Z 00000001400a42f0     msvcprt:MSVCP140.dll
 0002:000002f8       __imp_??0?$basic_ostream@DU?$char_traits@D@std@@@std@@QEAA@PEAV?$basic_streambuf@DU?$char_traits@D@std@@@1@_N@Z 00000001400a42f8     msvcprt:MSVCP140.dll
 0002:00000300       __imp_??_D?$basic_ostream@DU?$char_traits@D@std@@@std@@QEAAXXZ 00000001400a4300     msvcprt:MSVCP140.dll
 0002:00000308       __imp_?imbue@?$basic_streambuf@DU?$char_traits@D@std@@@std@@MEAAXAEBVlocale@2@@Z 00000001400a4308     msvcprt:MSVCP140.dll
 0002:00000310       __imp_?setbuf@?$basic_streambuf@DU?$char_traits@D@std@@@std@@MEAAPEAV12@PEAD_J@Z 00000001400a4310     msvcprt:MSVCP140.dll
 0002:00000318       __imp_?seekpos@?$basic_streambuf@DU?$char_traits@D@std@@@std@@MEAA?AV?$fpos@U_Mbstatet@@@2@V32@H@Z 00000001400a4318     msvcprt:MSVCP140.dll
 0002:00000320       __imp_?seekoff@?$basic_streambuf@DU?$char_traits@D@std@@@std@@MEAA?AV?$fpos@U_Mbstatet@@@2@_JHH@Z 00000001400a4320     msvcprt:MSVCP140.dll
 0002:00000328       __imp_?uflow@?$basic_streambuf@DU?$char_traits@D@std@@@std@@MEAAHXZ 00000001400a4328     msvcprt:MSVCP140.dll
 0002:00000330       __imp_?underflow@?$basic_streambuf@DU?$char_traits@D@std@@@std@@MEAAHXZ 00000001400a4330     msvcprt:MSVCP140.dll
 0002:00000338       __imp_?pbackfail@?$basic_streambuf@DU?$char_traits@D@std@@@std@@MEAAHH@Z 00000001400a4338     msvcprt:MSVCP140.dll
 0002:00000340       __imp_?_Unlock@?$basic_streambuf@DU?$char_traits@D@std@@@std@@UEAAXXZ 00000001400a4340     msvcprt:MSVCP140.dll
 0002:00000348       __imp_?_Lock@?$basic_streambuf@DU?$char_traits@D@std@@@std@@UEAAXXZ 00000001400a4348     msvcprt:MSVCP140.dll
 0002:00000350       __imp_?setp@?$basic_streambuf@DU?$char_traits@D@std@@@std@@IEAAXPEAD00@Z 00000001400a4350     msvcprt:MSVCP140.dll
 0002:00000358       __imp_??1?$basic_ostream@DU?$char_traits@D@std@@@std@@UEAA@XZ 00000001400a4358     msvcprt:MSVCP140.dll
 0002:00000360       __imp_?sync@?$basic_streambuf@DU?$char_traits@D@std@@@std@@MEAAHXZ 00000001400a4360     msvcprt:MSVCP140.dll
 0002:00000368       __imp_?setf@ios_base@std@@QEAAHH@Z 00000001400a4368     msvcprt:MSVCP140.dll
 0002:00000370       __imp_?unsetf@ios_base@std@@QEAAXH@Z 00000001400a4370     msvcprt:MSVCP140.dll
 0002:00000378       __imp_??6?$basic_ostream@DU?$char_traits@D@std@@@std@@QEAAAEAV01@P6AAEAVios_base@1@AEAV21@@Z@Z 00000001400a4378     msvcprt:MSVCP140.dll
 0002:00000380       __imp_??6?$basic_ostream@DU?$char_traits@D@std@@@std@@QEAAAEAV01@_N@Z 00000001400a4380     msvcprt:MSVCP140.dll
 0002:00000388       __imp_??0?$basic_streambuf@_WU?$char_traits@_W@std@@@std@@IEAA@XZ 00000001400a4388     msvcprt:MSVCP140.dll
 0002:00000390       __imp_??1?$basic_streambuf@_WU?$char_traits@_W@std@@@std@@UEAA@XZ 00000001400a4390     msvcprt:MSVCP140.dll
 0002:00000398       __imp_?eback@?$basic_streambuf@_WU?$char_traits@_W@std@@@std@@IEBAPEA_WXZ 00000001400a4398     msvcprt:MSVCP140.dll
 0002:000003a0       __imp_?gptr@?$basic_streambuf@_WU?$char_traits@_W@std@@@std@@IEBAPEA_WXZ 00000001400a43a0     msvcprt:MSVCP140.dll
 0002:000003a8       __imp_?pbase@?$basic_streambuf@_WU?$char_traits@_W@std@@@std@@IEBAPEA_WXZ 00000001400a43a8     msvcprt:MSVCP140.dll
 0002:000003b0       __imp_?pptr@?$basic_streambuf@_WU?$char_traits@_W@std@@@std@@IEBAPEA_WXZ 00000001400a43b0     msvcprt:MSVCP140.dll
 0002:000003b8       __imp_?egptr@?$basic_streambuf@_WU?$char_traits@_W@std@@@std@@IEBAPEA_WXZ 00000001400a43b8     msvcprt:MSVCP140.dll
 0002:000003c0       __imp_?gbump@?$basic_streambuf@_WU?$char_traits@_W@std@@@std@@IEAAXH@Z 00000001400a43c0     msvcprt:MSVCP140.dll
 0002:000003c8       __imp_?setg@?$basic_streambuf@_WU?$char_traits@_W@std@@@std@@IEAAXPEA_W00@Z 00000001400a43c8     msvcprt:MSVCP140.dll
 0002:000003d0       __imp_?epptr@?$basic_streambuf@_WU?$char_traits@_W@std@@@std@@IEBAPEA_WXZ 00000001400a43d0     msvcprt:MSVCP140.dll
 0002:000003d8       __imp_?setp@?$basic_streambuf@_WU?$char_traits@_W@std@@@std@@IEAAXPEA_W0@Z 00000001400a43d8     msvcprt:MSVCP140.dll
 0002:000003e0       __imp_?setp@?$basic_streambuf@_WU?$char_traits@_W@std@@@std@@IEAAXPEA_W00@Z 00000001400a43e0     msvcprt:MSVCP140.dll
 0002:000003e8       __imp_?_Pninc@?$basic_streambuf@_WU?$char_traits@_W@std@@@std@@IEAAPEA_WXZ 00000001400a43e8     msvcprt:MSVCP140.dll
 0002:000003f0       __imp_??1?$basic_ios@_WU?$char_traits@_W@std@@@std@@UEAA@XZ 00000001400a43f0     msvcprt:MSVCP140.dll
 0002:000003f8       __imp_??0?$basic_ios@_WU?$char_traits@_W@std@@@std@@IEAA@XZ 00000001400a43f8     msvcprt:MSVCP140.dll
 0002:00000400       __imp_??0?$basic_ostream@_WU?$char_traits@_W@std@@@std@@QEAA@PEAV?$basic_streambuf@_WU?$char_traits@_W@std@@@1@_N@Z 00000001400a4400     msvcprt:MSVCP140.dll
 0002:00000408       __imp_??1?$basic_ostream@_WU?$char_traits@_W@std@@@std@@UEAA@XZ 00000001400a4408     msvcprt:MSVCP140.dll
 0002:00000410       __imp_??6?$basic_ostream@_WU?$char_traits@_W@std@@@std@@QEAAAEAV01@I@Z 00000001400a4410     msvcprt:MSVCP140.dll
 0002:00000418       __imp_?imbue@?$basic_streambuf@_WU?$char_traits@_W@std@@@std@@MEAAXAEBVlocale@2@@Z 00000001400a4418     msvcprt:MSVCP140.dll
 0002:00000420       __imp_?sync@?$basic_streambuf@_WU?$char_traits@_W@std@@@std@@MEAAHXZ 00000001400a4420     msvcprt:MSVCP140.dll
 0002:00000428       __imp_?setbuf@?$basic_streambuf@_WU?$char_traits@_W@std@@@std@@MEAAPEAV12@PEA_W_J@Z 00000001400a4428     msvcprt:MSVCP140.dll
 0002:00000430       __imp_?xsputn@?$basic_streambuf@_WU?$char_traits@_W@std@@@std@@MEAA_JPEB_W_J@Z 00000001400a4430     msvcprt:MSVCP140.dll
 0002:00000438       __imp_?xsgetn@?$basic_streambuf@_WU?$char_traits@_W@std@@@std@@MEAA_JPEA_W_J@Z 00000001400a4438     msvcprt:MSVCP140.dll
 0002:00000440       __imp_?uflow@?$basic_streambuf@_WU?$char_traits@_W@std@@@std@@MEAAGXZ 00000001400a4440     msvcprt:MSVCP140.dll
 0002:00000448       __imp_?showmanyc@?$basic_streambuf@_WU?$char_traits@_W@std@@@std@@MEAA_JXZ 00000001400a4448     msvcprt:MSVCP140.dll
 0002:00000450       __imp_?_Unlock@?$basic_streambuf@_WU?$char_traits@_W@std@@@std@@UEAAXXZ 00000001400a4450     msvcprt:MSVCP140.dll
 0002:00000458       __imp_?_Lock@?$basic_streambuf@_WU?$char_traits@_W@std@@@std@@UEAAXXZ 00000001400a4458     msvcprt:MSVCP140.dll
 0002:00000460       __imp_?setstate@?$basic_ios@DU?$char_traits@D@std@@@std@@QEAAXH_N@Z 00000001400a4460     msvcprt:MSVCP140.dll
 0002:00000468       __imp_?sputn@?$basic_streambuf@DU?$char_traits@D@std@@@std@@QEAA_JPEBD_J@Z 00000001400a4468     msvcprt:MSVCP140.dll
 0002:00000470       __imp_?sputc@?$basic_streambuf@DU?$char_traits@D@std@@@std@@QEAAHD@Z 00000001400a4470     msvcprt:MSVCP140.dll
 0002:00000478       __imp_?width@ios_base@std@@QEAA_J_J@Z 00000001400a4478     msvcprt:MSVCP140.dll
 0002:00000480       __imp_?width@ios_base@std@@QEBA_JXZ 00000001400a4480     msvcprt:MSVCP140.dll
 0002:00000488       __imp_?flags@ios_base@std@@QEBAHXZ 00000001400a4488     msvcprt:MSVCP140.dll
 0002:00000490       __imp_?good@ios_base@std@@QEBA_NXZ 00000001400a4490     msvcprt:MSVCP140.dll
 0002:00000498       __imp_?uncaught_exception@std@@YA_NXZ 00000001400a4498     msvcprt:MSVCP140.dll
 0002:000004a0       __imp_?_Init@locale@std@@CAPEAV_Locimp@12@_N@Z 00000001400a44a0     msvcprt:MSVCP140.dll
 0002:000004a8       __imp_?_Winerror_map@std@@YAHH@Z 00000001400a44a8     msvcprt:MSVCP140.dll
 0002:000004b0       __imp_?_Syserror_map@std@@YAPEBDH@Z 00000001400a44b0     msvcprt:MSVCP140.dll
 0002:000004b8       __imp_?_Xlength_error@std@@YAXPEBD@Z 00000001400a44b8     msvcprt:MSVCP140.dll
 0002:000004c0       __imp_?_Xbad_alloc@std@@YAXXZ 00000001400a44c0     msvcprt:MSVCP140.dll
 0002:000004c8       __imp__Query_perf_frequency 00000001400a44c8     msvcprt:MSVCP140.dll
 0002:000004d0       __imp__Query_perf_counter  00000001400a44d0     msvcprt:MSVCP140.dll
 0002:000004d8       __imp_?_Random_device@std@@YAIXZ 00000001400a44d8     msvcprt:MSVCP140.dll
 0002:000004e0       __imp_?rdbuf@?$basic_ios@DU?$char_traits@D@std@@@std@@QEBAPEAV?$basic_streambuf@DU?$char_traits@D@std@@@2@XZ 00000001400a44e0     msvcprt:MSVCP140.dll
 0002:000004e8       \177MSVCP140_NULL_THUNK_DATA 00000001400a44e8     msvcprt:MSVCP140.dll
 0002:000004f0       __imp_wglMakeCurrent       00000001400a44f0     opengl32:OPENGL32.dll
 0002:000004f8       __imp_wglGetProcAddress    00000001400a44f8     opengl32:OPENGL32.dll
 0002:00000500       __imp_wglDeleteContext     00000001400a4500     opengl32:OPENGL32.dll
 0002:00000508       __imp_wglCreateContext     00000001400a4508     opengl32:OPENGL32.dll
 0002:00000510       __imp_wglShareLists        00000001400a4510     opengl32:OPENGL32.dll
 0002:00000518       \177OPENGL32_NULL_THUNK_DATA 00000001400a4518     opengl32:OPENGL32.dll
 0002:00000520       __imp_LoadCursorW          00000001400a4520     user32:USER32.dll
 0002:00000528       __imp_ReleaseDC            00000001400a4528     user32:USER32.dll
 0002:00000530       __imp_GetDC                00000001400a4530     user32:USER32.dll
 0002:00000538       __imp_EnumDisplaySettingsW 00000001400a4538     user32:USER32.dll
 0002:00000540       __imp_TrackMouseEvent      00000001400a4540     user32:USER32.dll
 0002:00000548       __imp_TranslateMessage     00000001400a4548     user32:USER32.dll
 0002:00000550       __imp_DispatchMessageW     00000001400a4550     user32:USER32.dll
 0002:00000558       __imp_PeekMessageW         00000001400a4558     user32:USER32.dll
 0002:00000560       __imp_SendMessageW         00000001400a4560     user32:USER32.dll
 0002:00000568       __imp_RegisterDeviceNotificationW 00000001400a4568     user32:USER32.dll
 0002:00000570       __imp_DefWindowProcW       00000001400a4570     user32:USER32.dll
 0002:00000578       __imp_CallWindowProcW      00000001400a4578     user32:USER32.dll
 0002:00000580       __imp_RegisterClassW       00000001400a4580     user32:USER32.dll
 0002:00000588       __imp_CreateWindowExA      00000001400a4588     user32:USER32.dll
 0002:00000590       __imp_RegisterRawInputDevices 00000001400a4590     user32:USER32.dll
 0002:00000598       __imp_GetRawInputData      00000001400a4598     user32:USER32.dll
 0002:000005a0       __imp_ChangeDisplaySettingsW 00000001400a45a0     user32:USER32.dll
 0002:000005a8       __imp_DestroyIcon          00000001400a45a8     user32:USER32.dll
 0002:000005b0       __imp_CreateIcon           00000001400a45b0     user32:USER32.dll
 0002:000005b8       __imp_GetWindowThreadProcessId 00000001400a45b8     user32:USER32.dll
 0002:000005c0       __imp_SetWindowLongPtrW    00000001400a45c0     user32:USER32.dll
 0002:000005c8       __imp_GetWindowLongPtrW    00000001400a45c8     user32:USER32.dll
 0002:000005d0       __imp_ClipCursor           00000001400a45d0     user32:USER32.dll
 0002:000005d8       __imp_MapWindowPoints      00000001400a45d8     user32:USER32.dll
 0002:000005e0       __imp_ScreenToClient       00000001400a45e0     user32:USER32.dll
 0002:000005e8       __imp_SetCursor            00000001400a45e8     user32:USER32.dll
 0002:000005f0       __imp_AdjustWindowRect     00000001400a45f0     user32:USER32.dll
 0002:000005f8       __imp_GetWindowRect        00000001400a45f8     user32:USER32.dll
 0002:00000600       __imp_GetClientRect        00000001400a4600     user32:USER32.dll
 0002:00000608       __imp_SetWindowTextW       00000001400a4608     user32:USER32.dll
 0002:00000610       __imp_SetForegroundWindow  00000001400a4610     user32:USER32.dll
 0002:00000618       __imp_GetForegroundWindow  00000001400a4618     user32:USER32.dll
 0002:00000620       __imp_ReleaseCapture       00000001400a4620     user32:USER32.dll
 0002:00000628       __imp_SetCapture           00000001400a4628     user32:USER32.dll
 0002:00000630       __imp_GetCapture           00000001400a4630     user32:USER32.dll
 0002:00000638       __imp_MapVirtualKeyW       00000001400a4638     user32:USER32.dll
 0002:00000640       __imp_GetKeyState          00000001400a4640     user32:USER32.dll
 0002:00000648       __imp_SetWindowPos         00000001400a4648     user32:USER32.dll
 0002:00000650       __imp_FlashWindowEx        00000001400a4650     user32:USER32.dll
 0002:00000658       __imp_ShowWindow           00000001400a4658     user32:USER32.dll
 0002:00000660       __imp_DestroyWindow        00000001400a4660     user32:USER32.dll
 0002:00000668       __imp_CreateWindowExW      00000001400a4668     user32:USER32.dll
 0002:00000670       __imp_UnregisterClassW     00000001400a4670     user32:USER32.dll
 0002:00000678       \177USER32_NULL_THUNK_DATA 00000001400a4678     user32:USER32.dll
 0002:00000680       __imp___intrinsic_setjmp   00000001400a4680     vcruntime:VCRUNTIME140.dll
 0002:00000688       __imp___std_terminate      00000001400a4688     vcruntime:VCRUNTIME140.dll
 0002:00000690       __imp___std_exception_copy 00000001400a4690     vcruntime:VCRUNTIME140.dll
 0002:00000698       __imp___std_exception_destroy 00000001400a4698     vcruntime:VCRUNTIME140.dll
 0002:000006a0       __imp__CxxThrowException   00000001400a46a0     vcruntime:VCRUNTIME140.dll
 0002:000006a8       __imp_longjmp              00000001400a46a8     vcruntime:VCRUNTIME140.dll
 0002:000006b0       __imp_memcpy               00000001400a46b0     vcruntime:VCRUNTIME140.dll
 0002:000006b8       __imp___current_exception_context 00000001400a46b8     vcruntime:VCRUNTIME140.dll
 0002:000006c0       __imp___current_exception  00000001400a46c0     vcruntime:VCRUNTIME140.dll
 0002:000006c8       __imp__purecall            00000001400a46c8     vcruntime:VCRUNTIME140.dll
 0002:000006d0       __imp_memset               00000001400a46d0     vcruntime:VCRUNTIME140.dll
 0002:000006d8       __imp_memmove              00000001400a46d8     vcruntime:VCRUNTIME140.dll
 0002:000006e0       __imp_strstr               00000001400a46e0     vcruntime:VCRUNTIME140.dll
 0002:000006e8       __imp_memcmp               00000001400a46e8     vcruntime:VCRUNTIME140.dll
 0002:000006f0       __imp_memchr               00000001400a46f0     vcruntime:VCRUNTIME140.dll
 0002:000006f8       __imp___C_specific_handler 00000001400a46f8     vcruntime:VCRUNTIME140.dll
 0002:00000700       __imp_strrchr              00000001400a4700     vcruntime:VCRUNTIME140.dll
 0002:00000708       \177VCRUNTIME140_NULL_THUNK_DATA 00000001400a4708     vcruntime:VCRUNTIME140.dll
 0002:00000710       __imp___CxxFrameHandler4   00000001400a4710     vcruntime:VCRUNTIME140_1.dll
 0002:00000718       \177VCRUNTIME140_1_NULL_THUNK_DATA 00000001400a4718     vcruntime:VCRUNTIME140_1.dll
 0002:00000720       __imp_timeBeginPeriod      00000001400a4720     winmm:WINMM.dll
 0002:00000728       __imp_joyGetPosEx          00000001400a4728     winmm:WINMM.dll
 0002:00000730       __imp_joyGetDevCapsW       00000001400a4730     winmm:WINMM.dll
 0002:00000738       __imp_timeGetDevCaps       00000001400a4738     winmm:WINMM.dll
 0002:00000740       __imp_timeEndPeriod        00000001400a4740     winmm:WINMM.dll
 0002:00000748       \177WINMM_NULL_THUNK_DATA  00000001400a4748     winmm:WINMM.dll
 0002:00000750       __imp_strtol               00000001400a4750     ucrt:api-ms-win-crt-convert-l1-1-0.dll
 0002:00000758       \177api-ms-win-crt-convert-l1-1-0_NULL_THUNK_DATA 00000001400a4758     ucrt:api-ms-win-crt-convert-l1-1-0.dll
 0002:00000760       __imp_getenv               00000001400a4760     ucrt:api-ms-win-crt-environment-l1-1-0.dll
 0002:00000768       \177api-ms-win-crt-environment-l1-1-0_NULL_THUNK_DATA 00000001400a4768     ucrt:api-ms-win-crt-environment-l1-1-0.dll
 0002:00000770       __imp_malloc               00000001400a4770     ucrt:api-ms-win-crt-heap-l1-1-0.dll
 0002:00000778       __imp_free                 00000001400a4778     ucrt:api-ms-win-crt-heap-l1-1-0.dll
 0002:00000780       __imp__set_new_mode        00000001400a4780     ucrt:api-ms-win-crt-heap-l1-1-0.dll
 0002:00000788       __imp__callnewh            00000001400a4788     ucrt:api-ms-win-crt-heap-l1-1-0.dll
 0002:00000790       \177api-ms-win-crt-heap-l1-1-0_NULL_THUNK_DATA 00000001400a4790     ucrt:api-ms-win-crt-heap-l1-1-0.dll
 0002:00000798       __imp__configthreadlocale  00000001400a4798     ucrt:api-ms-win-crt-locale-l1-1-0.dll
 0002:000007a0       __imp____lc_codepage_func  00000001400a47a0     ucrt:api-ms-win-crt-locale-l1-1-0.dll
 0002:000007a8       \177api-ms-win-crt-locale-l1-1-0_NULL_THUNK_DATA 00000001400a47a8     ucrt:api-ms-win-crt-locale-l1-1-0.dll
 0002:000007b0       __imp_lroundf              00000001400a47b0     ucrt:api-ms-win-crt-math-l1-1-0.dll
 0002:000007b8       __imp_floorf               00000001400a47b8     ucrt:api-ms-win-crt-math-l1-1-0.dll
 0002:000007c0       __imp_ceilf                00000001400a47c0     ucrt:api-ms-win-crt-math-l1-1-0.dll
 0002:000007c8       __imp_sinf                 00000001400a47c8     ucrt:api-ms-win-crt-math-l1-1-0.dll
 0002:000007d0       __imp___setusermatherr     00000001400a47d0     ucrt:api-ms-win-crt-math-l1-1-0.dll
 0002:000007d8       __imp_sqrtf                00000001400a47d8     ucrt:api-ms-win-crt-math-l1-1-0.dll
 0002:000007e0       __imp_cosf                 00000001400a47e0     ucrt:api-ms-win-crt-math-l1-1-0.dll
 0002:000007e8       \177api-ms-win-crt-math-l1-1-0_NULL_THUNK_DATA 00000001400a47e8     ucrt:api-ms-win-crt-math-l1-1-0.dll
 0002:000007f0       __imp___p___argc           00000001400a47f0     ucrt:api-ms-win-crt-runtime-l1-1-0.dll
 0002:000007f8       __imp__seh_filter_exe      00000001400a47f8     ucrt:api-ms-win-crt-runtime-l1-1-0.dll
 0002:00000800       __imp__set_app_type        00000001400a4800     ucrt:api-ms-win-crt-runtime-l1-1-0.dll
 0002:00000808       __imp__configure_narrow_argv 00000001400a4808     ucrt:api-ms-win-crt-runtime-l1-1-0.dll
 0002:00000810       __imp__initialize_narrow_environment 00000001400a4810     ucrt:api-ms-win-crt-runtime-l1-1-0.dll
 0002:00000818       __imp__get_narrow_winmain_command_line 00000001400a4818     ucrt:api-ms-win-crt-runtime-l1-1-0.dll
 0002:00000820       __imp__initterm            00000001400a4820     ucrt:api-ms-win-crt-runtime-l1-1-0.dll
 0002:00000828       __imp__initterm_e          00000001400a4828     ucrt:api-ms-win-crt-runtime-l1-1-0.dll
 0002:00000830       __imp__initialize_onexit_table 00000001400a4830     ucrt:api-ms-win-crt-runtime-l1-1-0.dll
 0002:00000838       __imp__register_onexit_function 00000001400a4838     ucrt:api-ms-win-crt-runtime-l1-1-0.dll
 0002:00000840       __imp_exit                 00000001400a4840     ucrt:api-ms-win-crt-runtime-l1-1-0.dll
 0002:00000848       __imp__exit                00000001400a4848     ucrt:api-ms-win-crt-runtime-l1-1-0.dll
 0002:00000850       __imp___p___argv           00000001400a4850     ucrt:api-ms-win-crt-runtime-l1-1-0.dll
 0002:00000858       __imp__cexit               00000001400a4858     ucrt:api-ms-win-crt-runtime-l1-1-0.dll
 0002:00000860       __imp_terminate            00000001400a4860     ucrt:api-ms-win-crt-runtime-l1-1-0.dll
 0002:00000868       __imp__c_exit              00000001400a4868     ucrt:api-ms-win-crt-runtime-l1-1-0.dll
 0002:00000870       __imp__register_thread_local_exe_atexit_callback 00000001400a4870     ucrt:api-ms-win-crt-runtime-l1-1-0.dll
 0002:00000878       __imp__invalid_parameter_noinfo_noreturn 00000001400a4878     ucrt:api-ms-win-crt-runtime-l1-1-0.dll
 0002:00000880       __imp__crt_atexit          00000001400a4880     ucrt:api-ms-win-crt-runtime-l1-1-0.dll
 0002:00000888       \177api-ms-win-crt-runtime-l1-1-0_NULL_THUNK_DATA 00000001400a4888     ucrt:api-ms-win-crt-runtime-l1-1-0.dll
 0002:00000890       __imp_fseek                00000001400a4890     ucrt:api-ms-win-crt-stdio-l1-1-0.dll
 0002:00000898       __imp_fread                00000001400a4898     ucrt:api-ms-win-crt-stdio-l1-1-0.dll
 0002:000008a0       __imp_fgetc                00000001400a48a0     ucrt:api-ms-win-crt-stdio-l1-1-0.dll
 0002:000008a8       __imp_ferror               00000001400a48a8     ucrt:api-ms-win-crt-stdio-l1-1-0.dll
 0002:000008b0       __imp_feof                 00000001400a48b0     ucrt:api-ms-win-crt-stdio-l1-1-0.dll
 0002:000008b8       __imp_fwrite               00000001400a48b8     ucrt:api-ms-win-crt-stdio-l1-1-0.dll
 0002:000008c0       __imp_ungetc               00000001400a48c0     ucrt:api-ms-win-crt-stdio-l1-1-0.dll
 0002:000008c8       __imp___stdio_common_vsprintf 00000001400a48c8     ucrt:api-ms-win-crt-stdio-l1-1-0.dll
 0002:000008d0       __imp__set_fmode           00000001400a48d0     ucrt:api-ms-win-crt-stdio-l1-1-0.dll
 0002:000008d8       __imp___p__commode         00000001400a48d8     ucrt:api-ms-win-crt-stdio-l1-1-0.dll
 0002:000008e0       __imp___stdio_common_vsscanf 00000001400a48e0     ucrt:api-ms-win-crt-stdio-l1-1-0.dll
 0002:000008e8       __imp___acrt_iob_func      00000001400a48e8     ucrt:api-ms-win-crt-stdio-l1-1-0.dll
 0002:000008f0       \177api-ms-win-crt-stdio-l1-1-0_NULL_THUNK_DATA 00000001400a48f0     ucrt:api-ms-win-crt-stdio-l1-1-0.dll
 0002:000008f8       __imp_isdigit              00000001400a48f8     ucrt:api-ms-win-crt-string-l1-1-0.dll
 0002:00000900       __imp_strncpy              00000001400a4900     ucrt:api-ms-win-crt-string-l1-1-0.dll
 0002:00000908       __imp_strcmp               00000001400a4908     ucrt:api-ms-win-crt-string-l1-1-0.dll
 0002:00000910       __imp_strncmp              00000001400a4910     ucrt:api-ms-win-crt-string-l1-1-0.dll
 0002:00000918       \177api-ms-win-crt-string-l1-1-0_NULL_THUNK_DATA 00000001400a4918     ucrt:api-ms-win-crt-string-l1-1-0.dll
 0002:00000920       __imp_qsort                00000001400a4920     ucrt:api-ms-win-crt-utility-l1-1-0.dll
 0002:00000928       \177api-ms-win-crt-utility-l1-1-0_NULL_THUNK_DATA 00000001400a4928     ucrt:api-ms-win-crt-utility-l1-1-0.dll
 0002:00000930       __guard_check_icall_fptr   00000001400a4930     MSVCRT:guard_support.obj
 0002:00000938       __guard_xfg_check_icall_fptr 00000001400a4938     MSVCRT:guard_support.obj
 0002:00000940       __guard_dispatch_icall_fptr 00000001400a4940     MSVCRT:guard_support.obj
 0002:00000948       __guard_xfg_dispatch_icall_fptr 00000001400a4948     MSVCRT:guard_support.obj
 0002:00000950       __guard_xfg_table_dispatch_icall_fptr 00000001400a4950     MSVCRT:guard_support.obj
 0002:00000958       __castguard_check_failure_os_handled_fptr 00000001400a4958     MSVCRT:guard_support.obj
 0002:00000960       __guard_memcpy_fptr        00000001400a4960     vcruntime:softmemtag.obj
 0002:00000968       __xc_a                     00000001400a4968     MSVCRT:initializers.obj
 0002:000009a8       __xc_z                     00000001400a49a8     MSVCRT:initializers.obj
 0002:000009c0       __xi_a                     00000001400a49c0     MSVCRT:initializers.obj
 0002:000009d8       __xi_z                     00000001400a49d8     MSVCRT:initializers.obj
 0002:000009e0       __xl_a                     00000001400a49e0     MSVCRT:tlssup.obj
 0002:000009f8       __xl_z                     00000001400a49f8     MSVCRT:tlssup.obj
 0002:00000a00       __xp_a                     00000001400a4a00     MSVCRT:initializers.obj
 0002:00000a08       __xp_z                     00000001400a4a08     MSVCRT:initializers.obj
 0002:00000a10       __xt_a                     00000001400a4a10     MSVCRT:initializers.obj
 0002:00000a18       __xt_z                     00000001400a4a18     MSVCRT:initializers.obj
 0002:00000a20       __real@3089705f            00000001400a4a20     Timer.obj
 0002:00000a28       ??_C@_0BC@EOODALEL@Unknown?5exception@ 00000001400a4a28     main.obj
 0002:00000a40       ??_C@_0BF@KINCDENJ@bad?5array?5new?5length@ 00000001400a4a40     main.obj
 0002:00000a58       ??_C@_0BA@JFNIOLAK@string?5too?5long@ 00000001400a4a58     main.obj
 0002:00000a68       ??_C@_07DCLBNMLN@generic@  00000001400a4a68     main.obj
 0002:00000a70       ??_C@_06FHFOAHML@system@   00000001400a4a70     main.obj
 0002:00000a78       ?_Unknown_error@?4??message@_System_error_category@std@@UEBA?AV?$basic_string@DU?$char_traits@D@std@@V?$allocator@D@2@@3@H@Z@4QBDB 00000001400a4a78     main.obj
 0002:00000a86       ??_C@_00CNPNBAHC@@         00000001400a4a86     main.obj
 0002:00000a88       ?Black@Color@sf@@2V12@B    00000001400a4a88     main.obj
 0002:00000a8c       ?White@Color@sf@@2V12@B    00000001400a4a8c     main.obj
 0002:00000a90       ?Green@Color@sf@@2V12@B    00000001400a4a90     main.obj
 0002:00000a98       ??_C@_0BB@GBBLBHKK@Suika?5Game?5Clone@ 00000001400a4a98     main.obj
 0002:00000ab0       ??_C@_0BL@BFLEECMD@fonts?1FiraCode?9Regular?4ttf@ 00000001400a4ab0     main.obj
 0002:00000ad0       __real@3ca0000000000000    00000001400a4ad0     main.obj
 0002:00000ad8       __real@3f000000            00000001400a4ad8     main.obj
 0002:00000ae0       __real@3ff0000000000000    00000001400a4ae0     main.obj
 0002:00000ae8       __real@42c80000            00000001400a4ae8     main.obj
 0002:00000aec       __real@43fa0000            00000001400a4aec     main.obj
 0002:00000af0       __xmm@80000000800000008000000080000000 00000001400a4af0     main.obj
 0002:00000b00       __real@40c90fdb            00000001400a4b00     sfml-graphics-s:Transformable.obj
 0002:00000b10       __xmm@0000000000000000000000003f800000 00000001400a4b10     sfml-graphics-s:Transformable.obj
 0002:00000b20       __xmm@00000000000000003f80000000000000 00000001400a4b20     sfml-graphics-s:Transformable.obj
 0002:00000b30       __xmm@000000003f8000000000000000000000 00000001400a4b30     sfml-graphics-s:Transformable.obj
 0002:00000b40       __xmm@3f800000000000000000000000000000 00000001400a4b40     sfml-graphics-s:Transformable.obj
 0002:00000b50       __real@3f800000            00000001400a4b50     sfml-graphics-s:Shape.obj
 0002:00000b54       __real@40400000            00000001400a4b54     sfml-graphics-s:Shape.obj
 0002:00000b60       ??_7Shape@sf@@6BDrawable@1@@ 00000001400a4b60     sfml-graphics-s:CircleShape.obj
 0002:00000b90       ??_7Shape@sf@@6BTransformable@1@@ 00000001400a4b90     sfml-graphics-s:CircleShape.obj
 0002:00000ba0       ??_7CircleShape@sf@@6BDrawable@1@@ 00000001400a4ba0     sfml-graphics-s:CircleShape.obj
 0002:00000bd0       ??_7CircleShape@sf@@6BTransformable@1@@ 00000001400a4bd0     sfml-graphics-s:CircleShape.obj
 0002:00000bd8       __real@3fc90fdb            00000001400a4bd8     sfml-graphics-s:CircleShape.obj
 0002:00000be8       ??_7exception@std@@6B@     00000001400a4be8     sfml-graphics-s:Texture.obj
 0002:00000c00       ??_7bad_alloc@std@@6B@     00000001400a4c00     sfml-graphics-s:Texture.obj
 0002:00000c18       ??_7bad_array_new_length@std@@6B@ 00000001400a4c18     sfml-graphics-s:Texture.obj
 0002:00000c30       ??_7runtime_error@std@@6B@ 00000001400a4c30     sfml-graphics-s:Texture.obj
 0002:00000c48       ??_7Exception@sf@@6B@      00000001400a4c48     sfml-graphics-s:Texture.obj
 0002:00000c58       ??_C@_01PKGAHCOL@?$CJ@     00000001400a4c58     sfml-graphics-s:Texture.obj
 0002:00000c5c       ??_C@_01FJMABOPO@x@        00000001400a4c5c     sfml-graphics-s:Texture.obj
 0002:00000c60       ??_C@_0CJ@FOGKFOOH@Failed?5to?5resize?5texture?0?5inval@ 00000001400a4c60     sfml-graphics-s:Texture.obj
 0002:00000c90       ??_C@_0M@LDNLNMFJ@maximum?5is?5@ 00000001400a4c90     sfml-graphics-s:Texture.obj
 0002:00000c9c       ??_C@_02KEGNLNML@?0?5@     00000001400a4c9c     sfml-graphics-s:Texture.obj
 0002:00000ca0       ??_C@_01ODHLEDKK@?$CI@     00000001400a4ca0     sfml-graphics-s:Texture.obj
 0002:00000ca8       ??_C@_0DJ@MOOMLBCK@Failed?5to?5create?5texture?0?5its?5i@ 00000001400a4ca8     sfml-graphics-s:Texture.obj
 0002:00000ce8       ??_C@_0BK@BAOPHLFB@GL_EXT_texture_edge_clamp@ 00000001400a4ce8     sfml-graphics-s:Texture.obj
 0002:00000d08       ??_C@_0DK@JGBNKJLO@Ensure?5that?5hardware?5accelerati@ 00000001400a4d08     sfml-graphics-s:Texture.obj
 0002:00000d48       ??_C@_0CI@NOOFLPPP@Artifacts?5may?5occur?5along?5textu@ 00000001400a4d48     sfml-graphics-s:Texture.obj
 0002:00000d70       ??_C@_0DF@NPLIJILM@OpenGL?5extension?5SGIS_texture_e@ 00000001400a4d70     sfml-graphics-s:Texture.obj
 0002:00000da8       ??_C@_0CO@MPIDEPNK@OpenGL?5extension?5EXT_texture_sR@ 00000001400a4da8     sfml-graphics-s:Texture.obj
 0002:00000dd8       ??_C@_0CN@LNIEELHP@Automatic?5sRGB?5to?5linear?5conver@ 00000001400a4dd8     sfml-graphics-s:Texture.obj
 0002:00000e08       ??_C@_0DM@HDFEEAC@Cannot?5copy?5texture?0?5failed?5to?5@ 00000001400a4e08     sfml-graphics-s:Texture.obj
 0002:00000e48       ??_C@_0DM@NPEELJGC@Cannot?5copy?5texture?0?5failed?5to?5@ 00000001400a4e48     sfml-graphics-s:Texture.obj
 0002:00000e88       ??_C@_0BA@FOIKENOD@vector?5too?5long@ 00000001400a4e88     sfml-graphics-s:Texture.obj
 0002:00000ea0       ??_7bad_optional_access@std@@6B@ 00000001400a4ea0     sfml-graphics-s:Font.obj
 0002:00000eb0       ??_C@_0BE@LMOOKEAD@Bad?5optional?5access@ 00000001400a4eb0     sfml-graphics-s:Font.obj
 0002:00000ed0       ??_7_System_error@std@@6B@ 00000001400a4ed0     sfml-graphics-s:Font.obj
 0002:00000ee8       ??_7system_error@std@@6B@  00000001400a4ee8     sfml-graphics-s:Font.obj
 0002:00000f00       ??_7_Generic_error_category@std@@6B@ 00000001400a4f00     sfml-graphics-s:Font.obj
 0002:00000f38       ??_7_System_error_category@std@@6B@ 00000001400a4f38     sfml-graphics-s:Font.obj
 0002:00000f68       ?Transparent@Color@sf@@2V12@B 00000001400a4f68     sfml-graphics-s:Font.obj
 0002:00000f70       ??_C@_0BO@MNHCIIPM@Failed?5to?5open?5font?5from?5file@ 00000001400a4f70     sfml-graphics-s:Font.obj
 0002:00000f90       ??_C@_0DF@CFJIEPAO@Failed?5to?5load?5font?5?$CIfailed?5to?5@ 00000001400a4f90     sfml-graphics-s:Font.obj
 0002:00000fc8       ??_C@_0DG@IPJONACK@Failed?5to?5load?5font?5?$CIfailed?5to?5@ 00000001400a4fc8     sfml-graphics-s:Font.obj
 0002:00001000       ??_C@_0DE@IGAPFMBJ@Failed?5to?5load?5font?5?$CIfailed?5to?5@ 00000001400a5000     sfml-graphics-s:Font.obj
 0002:00001038       ??_C@_0DP@IDNMBECG@Failed?5to?5load?5font?5?$CIfailed?5to?5@ 00000001400a5038     sfml-graphics-s:Font.obj
 0002:00001078       ??_C@_0DA@MIGIOLBH@Failed?5to?5outline?5glyph?5?$CIno?5fal@ 00000001400a5078     sfml-graphics-s:Font.obj
 0002:000010a8       ??_C@_0CC@DNOCDPHK@Failed?5to?5create?5new?5page?5textu@ 00000001400a50a8     sfml-graphics-s:Font.obj
 0002:000010d0       ??_C@_0FF@BEGBADMN@Failed?5to?5add?5a?5new?5character?5t@ 00000001400a50d0     sfml-graphics-s:Font.obj
 0002:00001128       ??_C@_0BG@DEDNNAIN@Available?5sizes?5are?3?5@ 00000001400a5128     sfml-graphics-s:Font.obj
 0002:00001140       ??_C@_0CD@OLEDJAAN@Failed?5to?5set?5bitmap?5font?5size?5@ 00000001400a5140     sfml-graphics-s:Font.obj
 0002:00001164       ??_C@_01CLKCMJKC@?5@       00000001400a5164     sfml-graphics-s:Font.obj
 0002:00001168       ??_C@_0BM@ONLMKGLI@Failed?5to?5set?5font?5size?5to?5@ 00000001400a5168     sfml-graphics-s:Font.obj
 0002:00001188       ??_C@_0CB@FOHMHBMG@Failed?5to?5load?5font?5page?5textur@ 00000001400a5188     sfml-graphics-s:Font.obj
 0002:000011b8       ??_7?$_Ref_count_obj2@UFontHandles@Font@sf@@@std@@6B@ 00000001400a51b8     sfml-graphics-s:Font.obj
 0002:000011d8       ??_C@_0BL@GOIGLPKN@unordered_map?1set?5too?5long@ 00000001400a51d8     sfml-graphics-s:Font.obj
 0002:000011f8       ??_C@_0BK@OGNNAFAB@invalid?5hash?5bucket?5count@ 00000001400a51f8     sfml-graphics-s:Font.obj
 0002:00001214       __real@3c800000            00000001400a5214     sfml-graphics-s:Font.obj
 0002:00001218       __real@3f333333            00000001400a5218     sfml-graphics-s:Font.obj
 0002:0000121c       __real@41200000            00000001400a521c     sfml-graphics-s:Font.obj
 0002:00001220       __real@41600000            00000001400a5220     sfml-graphics-s:Font.obj
 0002:00001224       __real@42000000            00000001400a5224     sfml-graphics-s:Font.obj
 0002:00001228       __real@42800000            00000001400a5228     sfml-graphics-s:Font.obj
 0002:0000122c       __real@5f000000            00000001400a522c     sfml-graphics-s:Font.obj
 0002:00001230       __xmm@000000000000000f0000000000000000 00000001400a5230     sfml-graphics-s:Font.obj
 0002:00001240       ??_C@_0FC@MPHLPEHF@Invalid?5value?5for?5sf?3?3BlendMode@ 00000001400a5240     sfml-graphics-s:RenderTarget.obj
 0002:000012a0       ??_C@_0EG@IEAIAINF@Some?5blending?5equations?5will?5fa@ 00000001400a52a0     sfml-graphics-s:RenderTarget.obj
 0002:000012f0       ??_C@_0EE@FMEIEPLN@OpenGL?5extension?5EXT_blend_minm@ 00000001400a52f0     sfml-graphics-s:RenderTarget.obj
 0002:00001340       ??_C@_0FB@GKHPCDPN@Invalid?5value?5for?5sf?3?3StencilUp@ 00000001400a5340     sfml-graphics-s:RenderTarget.obj
 0002:000013a0       ??_C@_0EO@HLFNPPMH@Invalid?5value?5for?5sf?3?3StencilCo@ 00000001400a53a0     sfml-graphics-s:RenderTarget.obj
 0002:000013f0       ??_C@_0EF@JOGMCOEG@OpenGL?5extension?5EXT_blend_minm@ 00000001400a53f0     sfml-graphics-s:RenderTarget.obj
 0002:00001438       ??_C@_0CI@GEAFOJBO@Selecting?5a?5blend?5equation?5not?5@ 00000001400a5438     sfml-graphics-s:RenderTarget.obj
 0002:00001478       __real@437f0000            00000001400a5478     sfml-graphics-s:RenderTarget.obj
 0002:0000147c       __real@c0000000            00000001400a547c     sfml-graphics-s:RenderTarget.obj
 0002:00001488       ??_7RenderTarget@sf@@6B@   00000001400a5488     sfml-graphics-s:RenderWindow.obj
 0002:000014b0       ??_7RenderWindow@sf@@6BWindow@1@@ 00000001400a54b0     sfml-graphics-s:RenderWindow.obj
 0002:00001508       ??_7RenderWindow@sf@@6BRenderTarget@1@@ 00000001400a5508     sfml-graphics-s:RenderWindow.obj
 0002:00001530       ??_7Text@sf@@6BDrawable@1@@ 00000001400a5530     sfml-graphics-s:Text.obj
 0002:00001548       ??_7Text@sf@@6BTransformable@1@@ 00000001400a5548     sfml-graphics-s:Text.obj
 0002:00001550       __real@3e567750            00000001400a5550     sfml-graphics-s:Text.obj
 0002:00001554       __real@40800000            00000001400a5554     sfml-graphics-s:Text.obj
 0002:00001560       __xmm@7fffffff7fffffff7fffffff7fffffff 00000001400a5560     sfml-graphics-s:Text.obj
 0002:00001578       ??_7VertexArray@sf@@6B@    00000001400a5578     sfml-graphics-s:VertexArray.obj
 0002:00001588       ??_C@_07LNIJJMEN@glAccum@  00000001400a5588     sfml-graphics-s:GLExtensions.obj
 0002:00001590       ??_C@_0M@BJGLMKCC@glAlphaFunc@ 00000001400a5590     sfml-graphics-s:GLExtensions.obj
 0002:000015a0       ??_C@_07FCOIFMD@glBegin@   00000001400a55a0     sfml-graphics-s:GLExtensions.obj
 0002:000015a8       ??_C@_08PJOLDJDK@glBitmap@ 00000001400a55a8     sfml-graphics-s:GLExtensions.obj
 0002:000015b8       ??_C@_0M@PFBKOKOH@glBlendFunc@ 00000001400a55b8     sfml-graphics-s:GLExtensions.obj
 0002:000015c8       ??_C@_0L@CIPLDIDL@glCallList@ 00000001400a55c8     sfml-graphics-s:GLExtensions.obj
 0002:000015d8       ??_C@_0M@LFDBDICJ@glCallLists@ 00000001400a55d8     sfml-graphics-s:GLExtensions.obj
 0002:000015e8       ??_C@_07IBAPPAHJ@glClear@  00000001400a55e8     sfml-graphics-s:GLExtensions.obj
 0002:000015f0       ??_C@_0N@OKAMEJMG@glClearAccum@ 00000001400a55f0     sfml-graphics-s:GLExtensions.obj
 0002:00001600       ??_C@_0N@OGLMDNKC@glClearColor@ 00000001400a5600     sfml-graphics-s:GLExtensions.obj
 0002:00001610       ??_C@_0N@LJIELNG@glClearDepth@ 00000001400a5610     sfml-graphics-s:GLExtensions.obj
 0002:00001620       ??_C@_0N@EIILHCMH@glClearIndex@ 00000001400a5620     sfml-graphics-s:GLExtensions.obj
 0002:00001630       ??_C@_0P@KBLPBBFP@glClearStencil@ 00000001400a5630     sfml-graphics-s:GLExtensions.obj
 0002:00001640       ??_C@_0M@OHCNGGFF@glClipPlane@ 00000001400a5640     sfml-graphics-s:GLExtensions.obj
 0002:00001650       ??_C@_09JLHBBGHE@glColor3b@ 00000001400a5650     sfml-graphics-s:GLExtensions.obj
 0002:00001660       ??_C@_0L@COJGBKED@glColor3bv@ 00000001400a5660     sfml-graphics-s:GLExtensions.obj
 0002:00001670       ??_C@_09MNCLLBPC@glColor3d@ 00000001400a5670     sfml-graphics-s:GLExtensions.obj
 0002:00001680       ??_C@_0L@CKBLGGPB@glColor3dv@ 00000001400a5680     sfml-graphics-s:GLExtensions.obj
 0002:00001690       ??_C@_09PPBNNDHA@glColor3f@ 00000001400a5690     sfml-graphics-s:GLExtensions.obj
 0002:000016a0       ??_C@_0L@CJJPLCJP@glColor3fv@ 00000001400a56a0     sfml-graphics-s:GLExtensions.obj
 0002:000016b0       ??_C@_09HIIFMPLP@glColor3i@ 00000001400a56b0     sfml-graphics-s:GLExtensions.obj
 0002:000016c0       ??_C@_0L@CCMDPFKC@glColor3iv@ 00000001400a56c0     sfml-graphics-s:GLExtensions.obj
 0002:000016d0       ??_C@_09MIKIDFGE@glColor3s@ 00000001400a56d0     sfml-graphics-s:GLExtensions.obj
 0002:000016e0       ??_C@_0L@DDHCNDAE@glColor3sv@ 00000001400a56e0     sfml-graphics-s:GLExtensions.obj
 0002:000016f0       ??_C@_0L@BJFBHIOD@glColor3ub@ 00000001400a56f0     sfml-graphics-s:GLExtensions.obj
 0002:00001700       ??_C@_0M@EAHPDMMK@glColor3ubv@ 00000001400a5700     sfml-graphics-s:GLExtensions.obj
 0002:00001710       ??_C@_0L@PKKFKBCI@glColor3ui@ 00000001400a5710     sfml-graphics-s:GLExtensions.obj
 0002:00001720       ??_C@_0M@EMCKNDCL@glColor3uiv@ 00000001400a5720     sfml-graphics-s:GLExtensions.obj
 0002:00001730       ??_C@_0L@EKIIFLPD@glColor3us@ 00000001400a5730     sfml-graphics-s:GLExtensions.obj
 0002:00001740       ??_C@_0M@FNJLPFIN@glColor3usv@ 00000001400a5740     sfml-graphics-s:GLExtensions.obj
 0002:00001750       ??_C@_09JODOAAPB@glColor4b@ 00000001400a5750     sfml-graphics-s:GLExtensions.obj
 0002:00001760       ??_C@_0L@LDEBCCPK@glColor4bv@ 00000001400a5760     sfml-graphics-s:GLExtensions.obj
 0002:00001770       ??_C@_09MIGEKHHH@glColor4d@ 00000001400a5770     sfml-graphics-s:GLExtensions.obj
 0002:00001780       ??_C@_0L@LHMMFOEI@glColor4dv@ 00000001400a5780     sfml-graphics-s:GLExtensions.obj
 0002:00001790       ??_C@_09PKFCMFPF@glColor4f@ 00000001400a5790     sfml-graphics-s:GLExtensions.obj
 0002:000017a0       ??_C@_0L@LEEIIKCG@glColor4fv@ 00000001400a57a0     sfml-graphics-s:GLExtensions.obj
 0002:000017b0       ??_C@_09HNMKNJDK@glColor4i@ 00000001400a57b0     sfml-graphics-s:GLExtensions.obj
 0002:000017c0       ??_C@_0L@LPBEMNBL@glColor4iv@ 00000001400a57c0     sfml-graphics-s:GLExtensions.obj
 0002:000017d0       ??_C@_09MNOHCDOB@glColor4s@ 00000001400a57d0     sfml-graphics-s:GLExtensions.obj
 0002:000017e0       ??_C@_0L@KOKFOLLN@glColor4sv@ 00000001400a57e0     sfml-graphics-s:GLExtensions.obj
 0002:000017f0       ??_C@_0L@IEIGEAFK@glColor4ub@ 00000001400a57f0     sfml-graphics-s:GLExtensions.obj
 0002:00001800       ??_C@_0M@PCFPOANK@glColor4ubv@ 00000001400a5800     sfml-graphics-s:GLExtensions.obj
 0002:00001810       ??_C@_0L@GHHCJJJB@glColor4ui@ 00000001400a5810     sfml-graphics-s:GLExtensions.obj
 0002:00001820       ??_C@_0M@POAKAPDL@glColor4uiv@ 00000001400a5820     sfml-graphics-s:GLExtensions.obj
 0002:00001830       ??_C@_0L@NHFPGDEK@glColor4us@ 00000001400a5830     sfml-graphics-s:GLExtensions.obj
 0002:00001840       ??_C@_0M@OPLLCJJN@glColor4usv@ 00000001400a5840     sfml-graphics-s:GLExtensions.obj
 0002:00001850       ??_C@_0M@DLGOAHPH@glColorMask@ 00000001400a5850     sfml-graphics-s:GLExtensions.obj
 0002:00001860       ??_C@_0BA@OOEHEGPC@glColorMaterial@ 00000001400a5860     sfml-graphics-s:GLExtensions.obj
 0002:00001870       ??_C@_0N@OACCOOE@glCopyPixels@ 00000001400a5870     sfml-graphics-s:GLExtensions.obj
 0002:00001880       ??_C@_0L@BAPBLHME@glCullFace@ 00000001400a5880     sfml-graphics-s:GLExtensions.obj
 0002:00001890       ??_C@_0O@KPJIJAFM@glDeleteLists@ 00000001400a5890     sfml-graphics-s:GLExtensions.obj
 0002:000018a0       ??_C@_0M@NEJABAEP@glDepthFunc@ 00000001400a58a0     sfml-graphics-s:GLExtensions.obj
 0002:000018b0       ??_C@_0M@KABMFLLN@glDepthMask@ 00000001400a58b0     sfml-graphics-s:GLExtensions.obj
 0002:000018c0       ??_C@_0N@PEBDIKOA@glDepthRange@ 00000001400a58c0     sfml-graphics-s:GLExtensions.obj
 0002:000018d0       ??_C@_09MHGMIMKN@glDisable@ 00000001400a58d0     sfml-graphics-s:GLExtensions.obj
 0002:000018e0       ??_C@_0N@EKCLGPL@glDrawBuffer@ 00000001400a58e0     sfml-graphics-s:GLExtensions.obj
 0002:000018f0       ??_C@_0N@FLFIHFDP@glDrawPixels@ 00000001400a58f0     sfml-graphics-s:GLExtensions.obj
 0002:00001900       ??_C@_0L@DFCKJEPI@glEdgeFlag@ 00000001400a5900     sfml-graphics-s:GLExtensions.obj
 0002:00001910       ??_C@_0M@MKDGIOMK@glEdgeFlagv@ 00000001400a5910     sfml-graphics-s:GLExtensions.obj
 0002:00001920       ??_C@_08OOEHEKOP@glEnable@ 00000001400a5920     sfml-graphics-s:GLExtensions.obj
 0002:0000192c       ??_C@_05OIBMBLHE@glEnd@    00000001400a592c     sfml-graphics-s:GLExtensions.obj
 0002:00001938       ??_C@_09HKEBCLHH@glEndList@ 00000001400a5938     sfml-graphics-s:GLExtensions.obj
 0002:00001948       ??_C@_0O@FJBIDDKI@glEvalCoord1d@ 00000001400a5948     sfml-graphics-s:GLExtensions.obj
 0002:00001958       ??_C@_0P@KBDBONJJ@glEvalCoord1dv@ 00000001400a5958     sfml-graphics-s:GLExtensions.obj
 0002:00001968       ??_C@_0O@GLCOFBCK@glEvalCoord1f@ 00000001400a5968     sfml-graphics-s:GLExtensions.obj
 0002:00001978       ??_C@_0P@KCLFDJPH@glEvalCoord1fv@ 00000001400a5978     sfml-graphics-s:GLExtensions.obj
 0002:00001988       ??_C@_0O@FLFOINPB@glEvalCoord2d@ 00000001400a5988     sfml-graphics-s:GLExtensions.obj
 0002:00001998       ??_C@_0P@LDIEECHH@glEvalCoord2dv@ 00000001400a5998     sfml-graphics-s:GLExtensions.obj
 0002:000019a8       ??_C@_0O@GJGIOPHD@glEvalCoord2f@ 00000001400a59a8     sfml-graphics-s:GLExtensions.obj
 0002:000019b8       ??_C@_0P@LAAAJGBJ@glEvalCoord2fv@ 00000001400a59b8     sfml-graphics-s:GLExtensions.obj
 0002:000019c8       ??_C@_0M@DCFEDLDA@glEvalMesh1@ 00000001400a59c8     sfml-graphics-s:GLExtensions.obj
 0002:000019d8       ??_C@_0M@BJHJGIPD@glEvalMesh2@ 00000001400a59d8     sfml-graphics-s:GLExtensions.obj
 0002:000019e8       ??_C@_0N@DOEOCCJJ@glEvalPoint1@ 00000001400a59e8     sfml-graphics-s:GLExtensions.obj
 0002:000019f8       ??_C@_0N@BFGDHBFK@glEvalPoint2@ 00000001400a59f8     sfml-graphics-s:GLExtensions.obj
 0002:00001a08       ??_C@_0BB@COFAIKCN@glFeedbackBuffer@ 00000001400a5a08     sfml-graphics-s:GLExtensions.obj
 0002:00001a20       ??_C@_08DFCPOKBK@glFinish@ 00000001400a5a20     sfml-graphics-s:GLExtensions.obj
 0002:00001a30       ??_C@_07COFELLJA@glFlush@  00000001400a5a30     sfml-graphics-s:GLExtensions.obj
 0002:00001a38       ??_C@_06JJHNMGPD@glFogf@   00000001400a5a38     sfml-graphics-s:GLExtensions.obj
 0002:00001a40       ??_C@_07FNEIAABA@glFogfv@  00000001400a5a40     sfml-graphics-s:GLExtensions.obj
 0002:00001a48       ??_C@_06BOOFNKDM@glFogi@   00000001400a5a48     sfml-graphics-s:GLExtensions.obj
 0002:00001a50       ??_C@_07FGBEEHCN@glFogiv@  00000001400a5a50     sfml-graphics-s:GLExtensions.obj
 0002:00001a58       ??_C@_0M@ILBMDJDA@glFrontFace@ 00000001400a5a58     sfml-graphics-s:GLExtensions.obj
 0002:00001a68       ??_C@_09ICLFHOKP@glFrustum@ 00000001400a5a68     sfml-graphics-s:GLExtensions.obj
 0002:00001a78       ??_C@_0L@BNOFOEBP@glGenLists@ 00000001400a5a78     sfml-graphics-s:GLExtensions.obj
 0002:00001a88       ??_C@_0O@NLMELLCJ@glGetBooleanv@ 00000001400a5a88     sfml-graphics-s:GLExtensions.obj
 0002:00001a98       ??_C@_0P@MMMNLMC@glGetClipPlane@ 00000001400a5a98     sfml-graphics-s:GLExtensions.obj
 0002:00001aa8       ??_C@_0N@OFBMMCDH@glGetDoublev@ 00000001400a5aa8     sfml-graphics-s:GLExtensions.obj
 0002:00001ab8       ??_C@_0L@FPKAMKHB@glGetError@ 00000001400a5ab8     sfml-graphics-s:GLExtensions.obj
 0002:00001ac8       ??_C@_0M@CKCOBONE@glGetFloatv@ 00000001400a5ac8     sfml-graphics-s:GLExtensions.obj
 0002:00001ad8       ??_C@_0O@DHHDCCLF@glGetIntegerv@ 00000001400a5ad8     sfml-graphics-s:GLExtensions.obj
 0002:00001ae8       ??_C@_0N@MGGMJGKA@glGetLightfv@ 00000001400a5ae8     sfml-graphics-s:GLExtensions.obj
 0002:00001af8       ??_C@_0N@MNDANBJN@glGetLightiv@ 00000001400a5af8     sfml-graphics-s:GLExtensions.obj
 0002:00001b08       ??_C@_0L@FGIDEHCA@glGetMapdv@ 00000001400a5b08     sfml-graphics-s:GLExtensions.obj
 0002:00001b18       ??_C@_0L@FFAHJDEO@glGetMapfv@ 00000001400a5b18     sfml-graphics-s:GLExtensions.obj
 0002:00001b28       ??_C@_0L@FOFLNEHD@glGetMapiv@ 00000001400a5b28     sfml-graphics-s:GLExtensions.obj
 0002:00001b38       ??_C@_0BA@GCPPEEDM@glGetMaterialfv@ 00000001400a5b38     sfml-graphics-s:GLExtensions.obj
 0002:00001b48       ??_C@_0BA@GJKDADAB@glGetMaterialiv@ 00000001400a5b48     sfml-graphics-s:GLExtensions.obj
 0002:00001b58       ??_C@_0BA@EDGNDGIE@glGetPixelMapfv@ 00000001400a5b58     sfml-graphics-s:GLExtensions.obj
 0002:00001b68       ??_C@_0BB@MGCFOIED@glGetPixelMapuiv@ 00000001400a5b68     sfml-graphics-s:GLExtensions.obj
 0002:00001b80       ??_C@_0BB@NHJEMOOF@glGetPixelMapusv@ 00000001400a5b80     sfml-graphics-s:GLExtensions.obj
 0002:00001b98       ??_C@_0BE@PBJHLEJI@glGetPolygonStipple@ 00000001400a5b98     sfml-graphics-s:GLExtensions.obj
 0002:00001bb0       ??_C@_0M@OPOBFDCB@glGetString@ 00000001400a5bb0     sfml-graphics-s:GLExtensions.obj
 0002:00001bc0       ??_C@_0O@KDAJGFCL@glGetTexEnvfv@ 00000001400a5bc0     sfml-graphics-s:GLExtensions.obj
 0002:00001bd0       ??_C@_0O@KIFFCCBG@glGetTexEnviv@ 00000001400a5bd0     sfml-graphics-s:GLExtensions.obj
 0002:00001be0       ??_C@_0O@PDIFOCP@glGetTexGendv@ 00000001400a5be0     sfml-graphics-s:GLExtensions.obj
 0002:00001bf0       ??_C@_0O@MLMIKEB@glGetTexGenfv@ 00000001400a5bf0     sfml-graphics-s:GLExtensions.obj
 0002:00001c00       ??_C@_0O@HOAMNHM@glGetTexGeniv@ 00000001400a5c00     sfml-graphics-s:GLExtensions.obj
 0002:00001c10       ??_C@_0O@DOIIJLAD@glGetTexImage@ 00000001400a5c10     sfml-graphics-s:GLExtensions.obj
 0002:00001c20       ??_C@_0BJ@GAMLGIFF@glGetTexLevelParameterfv@ 00000001400a5c20     sfml-graphics-s:GLExtensions.obj
 0002:00001c40       ??_C@_0BJ@GLJHCPGI@glGetTexLevelParameteriv@ 00000001400a5c40     sfml-graphics-s:GLExtensions.obj
 0002:00001c60       ??_C@_0BE@DNHBPKMC@glGetTexParameterfv@ 00000001400a5c60     sfml-graphics-s:GLExtensions.obj
 0002:00001c78       ??_C@_0BE@DGCNLNPP@glGetTexParameteriv@ 00000001400a5c78     sfml-graphics-s:GLExtensions.obj
 0002:00001c8c       ??_C@_06HEADGMBC@glHint@   00000001400a5c8c     sfml-graphics-s:GLExtensions.obj
 0002:00001c98       ??_C@_0M@ONDJOEOA@glIndexMask@ 00000001400a5c98     sfml-graphics-s:GLExtensions.obj
 0002:00001ca8       ??_C@_08HOOEKNLP@glIndexd@ 00000001400a5ca8     sfml-graphics-s:GLExtensions.obj
 0002:00001cb8       ??_C@_09CCMFJEMA@glIndexdv@ 00000001400a5cb8     sfml-graphics-s:GLExtensions.obj
 0002:00001cc8       ??_C@_08EMNCMPDN@glIndexf@ 00000001400a5cc8     sfml-graphics-s:GLExtensions.obj
 0002:00001cd8       ??_C@_09CBEBEAKO@glIndexfv@ 00000001400a5cd8     sfml-graphics-s:GLExtensions.obj
 0002:00001ce8       ??_C@_08MLEKNDPC@glIndexi@ 00000001400a5ce8     sfml-graphics-s:GLExtensions.obj
 0002:00001cf8       ??_C@_09CKBNAHJD@glIndexiv@ 00000001400a5cf8     sfml-graphics-s:GLExtensions.obj
 0002:00001d08       ??_C@_08HLGHCJCJ@glIndexs@ 00000001400a5d08     sfml-graphics-s:GLExtensions.obj
 0002:00001d18       ??_C@_09DLKMCBDF@glIndexsv@ 00000001400a5d18     sfml-graphics-s:GLExtensions.obj
 0002:00001d28       ??_C@_0M@LBOBLINN@glInitNames@ 00000001400a5d28     sfml-graphics-s:GLExtensions.obj
 0002:00001d38       ??_C@_0M@INHMIHKC@glIsEnabled@ 00000001400a5d38     sfml-graphics-s:GLExtensions.obj
 0002:00001d48       ??_C@_08DMFMJKDH@glIsList@ 00000001400a5d48     sfml-graphics-s:GLExtensions.obj
 0002:00001d58       ??_C@_0O@HPCJLAII@glLightModelf@ 00000001400a5d58     sfml-graphics-s:GLExtensions.obj
 0002:00001d68       ??_C@_0P@JKHJPMNC@glLightModelfv@ 00000001400a5d68     sfml-graphics-s:GLExtensions.obj
 0002:00001d78       ??_C@_0O@PILBKMEH@glLightModeli@ 00000001400a5d78     sfml-graphics-s:GLExtensions.obj
 0002:00001d88       ??_C@_0P@JBCFLLOP@glLightModeliv@ 00000001400a5d88     sfml-graphics-s:GLExtensions.obj
 0002:00001d98       ??_C@_08LPDPILEL@glLightf@ 00000001400a5d98     sfml-graphics-s:GLExtensions.obj
 0002:00001da8       ??_C@_09JINEHJOD@glLightfv@ 00000001400a5da8     sfml-graphics-s:GLExtensions.obj
 0002:00001db8       ??_C@_08DIKHJHIE@glLighti@ 00000001400a5db8     sfml-graphics-s:GLExtensions.obj
 0002:00001dc8       ??_C@_09JDIIDONO@glLightiv@ 00000001400a5dc8     sfml-graphics-s:GLExtensions.obj
 0002:00001dd8       ??_C@_0O@LDOINBOK@glLineStipple@ 00000001400a5dd8     sfml-graphics-s:GLExtensions.obj
 0002:00001de8       ??_C@_0M@CFLGNFPG@glLineWidth@ 00000001400a5de8     sfml-graphics-s:GLExtensions.obj
 0002:00001df8       ??_C@_0L@HDOJDFBA@glListBase@ 00000001400a5df8     sfml-graphics-s:GLExtensions.obj
 0002:00001e08       ??_C@_0P@EJAFHEPO@glLoadIdentity@ 00000001400a5e08     sfml-graphics-s:GLExtensions.obj
 0002:00001e18       ??_C@_0O@LFHKEMK@glLoadMatrixd@ 00000001400a5e18     sfml-graphics-s:GLExtensions.obj
 0002:00001e28       ??_C@_0O@DJGBMGEI@glLoadMatrixf@ 00000001400a5e28     sfml-graphics-s:GLExtensions.obj
 0002:00001e38       ??_C@_0L@JFFJNAJA@glLoadName@ 00000001400a5e38     sfml-graphics-s:GLExtensions.obj
 0002:00001e48       ??_C@_09GKGMNAKG@glLogicOp@ 00000001400a5e48     sfml-graphics-s:GLExtensions.obj
 0002:00001e58       ??_C@_07FEHGGJHC@glMap1d@  00000001400a5e58     sfml-graphics-s:GLExtensions.obj
 0002:00001e60       ??_C@_07GGEAALPA@glMap1f@  00000001400a5e60     sfml-graphics-s:GLExtensions.obj
 0002:00001e68       ??_C@_07FGDANHCL@glMap2d@  00000001400a5e68     sfml-graphics-s:GLExtensions.obj
 0002:00001e70       ??_C@_07GEAGLFKJ@glMap2f@  00000001400a5e70     sfml-graphics-s:GLExtensions.obj
 0002:00001e78       ??_C@_0M@MNDKIDNO@glMapGrid1d@ 00000001400a5e78     sfml-graphics-s:GLExtensions.obj
 0002:00001e88       ??_C@_0M@PPAMOBFM@glMapGrid1f@ 00000001400a5e88     sfml-graphics-s:GLExtensions.obj
 0002:00001e98       ??_C@_0M@MPHMDNIH@glMapGrid2d@ 00000001400a5e98     sfml-graphics-s:GLExtensions.obj
 0002:00001ea8       ??_C@_0M@PNEKFPAF@glMapGrid2f@ 00000001400a5ea8     sfml-graphics-s:GLExtensions.obj
 0002:00001eb8       ??_C@_0M@HANOIKMC@glMaterialf@ 00000001400a5eb8     sfml-graphics-s:GLExtensions.obj
 0002:00001ec8       ??_C@_0N@MHPKDGG@glMaterialfv@ 00000001400a5ec8     sfml-graphics-s:GLExtensions.obj
 0002:00001ed8       ??_C@_0M@PHEGJGAN@glMateriali@ 00000001400a5ed8     sfml-graphics-s:GLExtensions.obj
 0002:00001ee8       ??_C@_0N@HCDOEFL@glMaterialiv@ 00000001400a5ee8     sfml-graphics-s:GLExtensions.obj
 0002:00001ef8       ??_C@_0N@KDLNHKEJ@glMatrixMode@ 00000001400a5ef8     sfml-graphics-s:GLExtensions.obj
 0002:00001f08       ??_C@_0O@IFJFLNCL@glMultMatrixd@ 00000001400a5f08     sfml-graphics-s:GLExtensions.obj
 0002:00001f18       ??_C@_0O@LHKDNPKJ@glMultMatrixf@ 00000001400a5f18     sfml-graphics-s:GLExtensions.obj
 0002:00001f28       ??_C@_09KAGOBDOO@glNewList@ 00000001400a5f28     sfml-graphics-s:GLExtensions.obj
 0002:00001f38       ??_C@_0L@FCAONKPI@glNormal3b@ 00000001400a5f38     sfml-graphics-s:GLExtensions.obj
 0002:00001f48       ??_C@_0M@MKFBKKIE@glNormal3bv@ 00000001400a5f48     sfml-graphics-s:GLExtensions.obj
 0002:00001f58       ??_C@_0L@EFEHNHO@glNormal3d@ 00000001400a5f58     sfml-graphics-s:GLExtensions.obj
 0002:00001f68       ??_C@_0M@MONMNGDG@glNormal3dv@ 00000001400a5f68     sfml-graphics-s:GLExtensions.obj
 0002:00001f78       ??_C@_0L@DGGCBPPM@glNormal3f@ 00000001400a5f78     sfml-graphics-s:GLExtensions.obj
 0002:00001f88       ??_C@_0M@MNFIACFI@glNormal3fv@ 00000001400a5f88     sfml-graphics-s:GLExtensions.obj
 0002:00001f98       ??_C@_0L@LBPKADDD@glNormal3i@ 00000001400a5f98     sfml-graphics-s:GLExtensions.obj
 0002:00001fa8       ??_C@_0M@MGAEEFGF@glNormal3iv@ 00000001400a5fa8     sfml-graphics-s:GLExtensions.obj
 0002:00001fb8       ??_C@_0L@BNHPJOI@glNormal3s@ 00000001400a5fb8     sfml-graphics-s:GLExtensions.obj
 0002:00001fc8       ??_C@_0M@NHLFGDMD@glNormal3sv@ 00000001400a5fc8     sfml-graphics-s:GLExtensions.obj
 0002:00001fd8       ??_C@_07DBAFHOII@glOrtho@  00000001400a5fd8     sfml-graphics-s:GLExtensions.obj
 0002:00001fe0       ??_C@_0O@KCIMMNEH@glPassThrough@ 00000001400a5fe0     sfml-graphics-s:GLExtensions.obj
 0002:00001ff0       ??_C@_0N@CNONNBNO@glPixelMapfv@ 00000001400a5ff0     sfml-graphics-s:GLExtensions.obj
 0002:00002000       ??_C@_0O@ENPFNAEO@glPixelMapuiv@ 00000001400a6000     sfml-graphics-s:GLExtensions.obj
 0002:00002010       ??_C@_0O@FMEEPGOI@glPixelMapusv@ 00000001400a6010     sfml-graphics-s:GLExtensions.obj
 0002:00002020       ??_C@_0O@BFLAHHCK@glPixelStoref@ 00000001400a6020     sfml-graphics-s:GLExtensions.obj
 0002:00002030       ??_C@_0O@JCCIGLOF@glPixelStorei@ 00000001400a6030     sfml-graphics-s:GLExtensions.obj
 0002:00002040       ??_C@_0BB@HFCIPEN@glPixelTransferf@ 00000001400a6040     sfml-graphics-s:GLExtensions.obj
 0002:00002058       ??_C@_0BB@IAMKJDIC@glPixelTransferi@ 00000001400a6058     sfml-graphics-s:GLExtensions.obj
 0002:00002070       ??_C@_0M@JAMJIGNB@glPixelZoom@ 00000001400a6070     sfml-graphics-s:GLExtensions.obj
 0002:00002080       ??_C@_0M@EEAPMMNM@glPointSize@ 00000001400a6080     sfml-graphics-s:GLExtensions.obj
 0002:00002090       ??_C@_0O@DKMNBFMB@glPolygonMode@ 00000001400a6090     sfml-graphics-s:GLExtensions.obj
 0002:000020a0       ??_C@_0BB@GIADEJGP@glPolygonStipple@ 00000001400a60a0     sfml-graphics-s:GLExtensions.obj
 0002:000020b8       ??_C@_0M@LLNGAHMN@glPopAttrib@ 00000001400a60b8     sfml-graphics-s:GLExtensions.obj
 0002:000020c8       ??_C@_0M@JPEAAEEK@glPopMatrix@ 00000001400a60c8     sfml-graphics-s:GLExtensions.obj
 0002:000020d8       ??_C@_09IKDPIJOE@glPopName@ 00000001400a60d8     sfml-graphics-s:GLExtensions.obj
 0002:000020e8       ??_C@_0N@KDMLHFJM@glPushAttrib@ 00000001400a60e8     sfml-graphics-s:GLExtensions.obj
 0002:000020f8       ??_C@_0N@IHFNHGBL@glPushMatrix@ 00000001400a60f8     sfml-graphics-s:GLExtensions.obj
 0002:00002108       ??_C@_0L@LFFFABIK@glPushName@ 00000001400a6108     sfml-graphics-s:GLExtensions.obj
 0002:00002118       ??_C@_0O@JNCPGME@glRasterPos2d@ 00000001400a6118     sfml-graphics-s:GLExtensions.obj
 0002:00002128       ??_C@_0P@OFGFAKCP@glRasterPos2dv@ 00000001400a6128     sfml-graphics-s:GLExtensions.obj
 0002:00002138       ??_C@_0O@DLOEJEEG@glRasterPos2f@ 00000001400a6138     sfml-graphics-s:GLExtensions.obj
 0002:00002148       ??_C@_0P@OGOBNOEB@glRasterPos2fv@ 00000001400a6148     sfml-graphics-s:GLExtensions.obj
 0002:00002158       ??_C@_0O@LMHMIIIJ@glRasterPos2i@ 00000001400a6158     sfml-graphics-s:GLExtensions.obj
 0002:00002168       ??_C@_0P@ONLNJJHM@glRasterPos2iv@ 00000001400a6168     sfml-graphics-s:GLExtensions.obj
 0002:00002178       ??_C@_0O@MFBHCFC@glRasterPos2s@ 00000001400a6178     sfml-graphics-s:GLExtensions.obj
 0002:00002188       ??_C@_0P@PMAMLPNK@glRasterPos2sv@ 00000001400a6188     sfml-graphics-s:GLExtensions.obj
 0002:00002198       ??_C@_0O@IBAJMPD@glRasterPos3d@ 00000001400a6198     sfml-graphics-s:GLExtensions.obj
 0002:000021a8       ??_C@_0P@FNNJGNEK@glRasterPos3dv@ 00000001400a61a8     sfml-graphics-s:GLExtensions.obj
 0002:000021b8       ??_C@_0O@DKCGPOHB@glRasterPos3f@ 00000001400a61b8     sfml-graphics-s:GLExtensions.obj
 0002:000021c8       ??_C@_0P@FOFNLJCE@glRasterPos3fv@ 00000001400a61c8     sfml-graphics-s:GLExtensions.obj
 0002:000021d8       ??_C@_0O@LNLOOCLO@glRasterPos3i@ 00000001400a61d8     sfml-graphics-s:GLExtensions.obj
 0002:000021e8       ??_C@_0P@FFABPOBJ@glRasterPos3iv@ 00000001400a61e8     sfml-graphics-s:GLExtensions.obj
 0002:000021f8       ??_C@_0O@NJDBIGF@glRasterPos3s@ 00000001400a61f8     sfml-graphics-s:GLExtensions.obj
 0002:00002208       ??_C@_0P@EELANILP@glRasterPos3sv@ 00000001400a6208     sfml-graphics-s:GLExtensions.obj
 0002:00002218       ??_C@_0O@NFPIKHG@glRasterPos4d@ 00000001400a6218     sfml-graphics-s:GLExtensions.obj
 0002:00002228       ??_C@_0P@MAAOFFPD@glRasterPos4dv@ 00000001400a6228     sfml-graphics-s:GLExtensions.obj
 0002:00002238       ??_C@_0O@DPGJOIPE@glRasterPos4f@ 00000001400a6238     sfml-graphics-s:GLExtensions.obj
 0002:00002248       ??_C@_0P@MDIKIBJN@glRasterPos4fv@ 00000001400a6248     sfml-graphics-s:GLExtensions.obj
 0002:00002258       ??_C@_0O@LIPBPEDL@glRasterPos4i@ 00000001400a6258     sfml-graphics-s:GLExtensions.obj
 0002:00002268       ??_C@_0P@MINGMGKA@glRasterPos4iv@ 00000001400a6268     sfml-graphics-s:GLExtensions.obj
 0002:00002278       ??_C@_0O@INMAOOA@glRasterPos4s@ 00000001400a6278     sfml-graphics-s:GLExtensions.obj
 0002:00002288       ??_C@_0P@NJGHOAAG@glRasterPos4sv@ 00000001400a6288     sfml-graphics-s:GLExtensions.obj
 0002:00002298       ??_C@_0N@HFKHBECK@glReadBuffer@ 00000001400a6298     sfml-graphics-s:GLExtensions.obj
 0002:000022a8       ??_C@_0N@CKFNNHOO@glReadPixels@ 00000001400a62a8     sfml-graphics-s:GLExtensions.obj
 0002:000022b8       ??_C@_07GHILMIKG@glRectd@  00000001400a62b8     sfml-graphics-s:GLExtensions.obj
 0002:000022c0       ??_C@_08EGLHFDGF@glRectdv@ 00000001400a62c0     sfml-graphics-s:GLExtensions.obj
 0002:000022d0       ??_C@_07FFLNKKCE@glRectf@  00000001400a62d0     sfml-graphics-s:GLExtensions.obj
 0002:000022d8       ??_C@_08EFDDIHAL@glRectfv@ 00000001400a62d8     sfml-graphics-s:GLExtensions.obj
 0002:000022e8       ??_C@_07NCCFLGOL@glRecti@  00000001400a62e8     sfml-graphics-s:GLExtensions.obj
 0002:000022f0       ??_C@_08EOGPMADG@glRectiv@ 00000001400a62f0     sfml-graphics-s:GLExtensions.obj
 0002:00002300       ??_C@_07GCAIEMDA@glRects@  00000001400a6300     sfml-graphics-s:GLExtensions.obj
 0002:00002308       ??_C@_08FPNOOGJA@glRectsv@ 00000001400a6308     sfml-graphics-s:GLExtensions.obj
 0002:00002318       ??_C@_0N@HCFJFDGP@glRenderMode@ 00000001400a6318     sfml-graphics-s:GLExtensions.obj
 0002:00002328       ??_C@_09GANFLDAO@glRotated@ 00000001400a6328     sfml-graphics-s:GLExtensions.obj
 0002:00002338       ??_C@_09FCODNBIM@glRotatef@ 00000001400a6338     sfml-graphics-s:GLExtensions.obj
 0002:00002348       ??_C@_08KAMCINDI@glScaled@ 00000001400a6348     sfml-graphics-s:GLExtensions.obj
 0002:00002358       ??_C@_08JCPEOPLK@glScalef@ 00000001400a6358     sfml-graphics-s:GLExtensions.obj
 0002:00002368       ??_C@_09ECGPAEPL@glScissor@ 00000001400a6368     sfml-graphics-s:GLExtensions.obj
 0002:00002378       ??_C@_0P@KACPMBCN@glSelectBuffer@ 00000001400a6378     sfml-graphics-s:GLExtensions.obj
 0002:00002388       ??_C@_0N@NALMFHKN@glShadeModel@ 00000001400a6388     sfml-graphics-s:GLExtensions.obj
 0002:00002398       ??_C@_0O@ENNLLOLN@glStencilFunc@ 00000001400a6398     sfml-graphics-s:GLExtensions.obj
 0002:000023a8       ??_C@_0O@DJFHPFEP@glStencilMask@ 00000001400a63a8     sfml-graphics-s:GLExtensions.obj
 0002:000023b8       ??_C@_0M@BILBNGF@glStencilOp@ 00000001400a63b8     sfml-graphics-s:GLExtensions.obj
 0002:000023c8       ??_C@_0N@CKKBPCNP@glTexCoord1d@ 00000001400a63c8     sfml-graphics-s:GLExtensions.obj
 0002:000023d8       ??_C@_0O@GPCDLAMH@glTexCoord1dv@ 00000001400a63d8     sfml-graphics-s:GLExtensions.obj
 0002:000023e8       ??_C@_0N@BIJHJAFN@glTexCoord1f@ 00000001400a63e8     sfml-graphics-s:GLExtensions.obj
 0002:000023f8       ??_C@_0O@GMKHGEKJ@glTexCoord1fv@ 00000001400a63f8     sfml-graphics-s:GLExtensions.obj
 0002:00002408       ??_C@_0N@JPAPIMJC@glTexCoord1i@ 00000001400a6408     sfml-graphics-s:GLExtensions.obj
 0002:00002418       ??_C@_0O@GHPLCDJE@glTexCoord1iv@ 00000001400a6418     sfml-graphics-s:GLExtensions.obj
 0002:00002428       ??_C@_0N@CPCCHGEJ@glTexCoord1s@ 00000001400a6428     sfml-graphics-s:GLExtensions.obj
 0002:00002438       ??_C@_0O@HGEKAFDC@glTexCoord1sv@ 00000001400a6438     sfml-graphics-s:GLExtensions.obj
 0002:00002448       ??_C@_0N@CIOHEMIG@glTexCoord2d@ 00000001400a6448     sfml-graphics-s:GLExtensions.obj
 0002:00002458       ??_C@_0O@HNJGBPCJ@glTexCoord2dv@ 00000001400a6458     sfml-graphics-s:GLExtensions.obj
 0002:00002468       ??_C@_0N@BKNBCOAE@glTexCoord2f@ 00000001400a6468     sfml-graphics-s:GLExtensions.obj
 0002:00002478       ??_C@_0O@HOBCMLEH@glTexCoord2fv@ 00000001400a6478     sfml-graphics-s:GLExtensions.obj
 0002:00002488       ??_C@_0N@JNEJDCML@glTexCoord2i@ 00000001400a6488     sfml-graphics-s:GLExtensions.obj
 0002:00002498       ??_C@_0O@HFEOIMHK@glTexCoord2iv@ 00000001400a6498     sfml-graphics-s:GLExtensions.obj
 0002:000024a8       ??_C@_0N@CNGEMIBA@glTexCoord2s@ 00000001400a64a8     sfml-graphics-s:GLExtensions.obj
 0002:000024b8       ??_C@_0O@GEPPKKNM@glTexCoord2sv@ 00000001400a64b8     sfml-graphics-s:GLExtensions.obj
 0002:000024c8       ??_C@_0N@CJCFCGLB@glTexCoord3d@ 00000001400a64c8     sfml-graphics-s:GLExtensions.obj
 0002:000024d8       ??_C@_0O@MFCKHIEM@glTexCoord3dv@ 00000001400a64d8     sfml-graphics-s:GLExtensions.obj
 0002:000024e8       ??_C@_0N@BLBDEEDD@glTexCoord3f@ 00000001400a64e8     sfml-graphics-s:GLExtensions.obj
 0002:000024f8       ??_C@_0O@MGKOKMCC@glTexCoord3fv@ 00000001400a64f8     sfml-graphics-s:GLExtensions.obj
 0002:00002508       ??_C@_0N@JMILFIPM@glTexCoord3i@ 00000001400a6508     sfml-graphics-s:GLExtensions.obj
 0002:00002518       ??_C@_0O@MNPCOLBP@glTexCoord3iv@ 00000001400a6518     sfml-graphics-s:GLExtensions.obj
 0002:00002528       ??_C@_0N@CMKGKCCH@glTexCoord3s@ 00000001400a6528     sfml-graphics-s:GLExtensions.obj
 0002:00002538       ??_C@_0O@NMEDMNLJ@glTexCoord3sv@ 00000001400a6538     sfml-graphics-s:GLExtensions.obj
 0002:00002548       ??_C@_0N@CMGKDADE@glTexCoord4d@ 00000001400a6548     sfml-graphics-s:GLExtensions.obj
 0002:00002558       ??_C@_0O@FIPNEAPF@glTexCoord4dv@ 00000001400a6558     sfml-graphics-s:GLExtensions.obj
 0002:00002568       ??_C@_0N@BOFMFCLG@glTexCoord4f@ 00000001400a6568     sfml-graphics-s:GLExtensions.obj
 0002:00002578       ??_C@_0O@FLHJJEJL@glTexCoord4fv@ 00000001400a6578     sfml-graphics-s:GLExtensions.obj
 0002:00002588       ??_C@_0N@JJMEEOHJ@glTexCoord4i@ 00000001400a6588     sfml-graphics-s:GLExtensions.obj
 0002:00002598       ??_C@_0O@FACFNDKG@glTexCoord4iv@ 00000001400a6598     sfml-graphics-s:GLExtensions.obj
 0002:000025a8       ??_C@_0N@CJOJLEKC@glTexCoord4s@ 00000001400a65a8     sfml-graphics-s:GLExtensions.obj
 0002:000025b8       ??_C@_0O@EBJEPFAA@glTexCoord4sv@ 00000001400a65b8     sfml-graphics-s:GLExtensions.obj
 0002:000025c8       ??_C@_09FCLLGECI@glTexEnvf@ 00000001400a65c8     sfml-graphics-s:GLExtensions.obj
 0002:000025d8       ??_C@_0L@EMICMNOO@glTexEnvfv@ 00000001400a65d8     sfml-graphics-s:GLExtensions.obj
 0002:000025e8       ??_C@_09NFCDHIOH@glTexEnvi@ 00000001400a65e8     sfml-graphics-s:GLExtensions.obj
 0002:000025f8       ??_C@_0L@EHNOIKND@glTexEnviv@ 00000001400a65f8     sfml-graphics-s:GLExtensions.obj
 0002:00002608       ??_C@_09NPHJCAAD@glTexGend@ 00000001400a6608     sfml-graphics-s:GLExtensions.obj
 0002:00002618       ??_C@_0L@OALDPGOK@glTexGendv@ 00000001400a6618     sfml-graphics-s:GLExtensions.obj
 0002:00002628       ??_C@_09ONEPECIB@glTexGenf@ 00000001400a6628     sfml-graphics-s:GLExtensions.obj
 0002:00002638       ??_C@_0L@ODDHCCIE@glTexGenfv@ 00000001400a6638     sfml-graphics-s:GLExtensions.obj
 0002:00002648       ??_C@_09GKNHFOEO@glTexGeni@ 00000001400a6648     sfml-graphics-s:GLExtensions.obj
 0002:00002658       ??_C@_0L@OIGLGFLJ@glTexGeniv@ 00000001400a6658     sfml-graphics-s:GLExtensions.obj
 0002:00002668       ??_C@_0N@JDMMMFHL@glTexImage1D@ 00000001400a6668     sfml-graphics-s:GLExtensions.obj
 0002:00002678       ??_C@_0N@JBIKHLCC@glTexImage2D@ 00000001400a6678     sfml-graphics-s:GLExtensions.obj
 0002:00002688       ??_C@_0BA@INKFIMGP@glTexParameterf@ 00000001400a6688     sfml-graphics-s:GLExtensions.obj
 0002:00002698       ??_C@_0BB@KEOFAHDF@glTexParameterfv@ 00000001400a6698     sfml-graphics-s:GLExtensions.obj
 0002:000026b0       ??_C@_0BA@KDNJAKA@glTexParameteri@ 00000001400a66b0     sfml-graphics-s:GLExtensions.obj
 0002:000026c0       ??_C@_0BB@KPLJEAAI@glTexParameteriv@ 00000001400a66c0     sfml-graphics-s:GLExtensions.obj
 0002:000026d8       ??_C@_0N@LHMFFDFG@glTranslated@ 00000001400a66d8     sfml-graphics-s:GLExtensions.obj
 0002:000026e8       ??_C@_0N@IFPDDBNE@glTranslatef@ 00000001400a66e8     sfml-graphics-s:GLExtensions.obj
 0002:000026f8       ??_C@_0L@INGMNOLD@glVertex2d@ 00000001400a66f8     sfml-graphics-s:GLExtensions.obj
 0002:00002708       ??_C@_0M@CLIAFAJI@glVertex2dv@ 00000001400a6708     sfml-graphics-s:GLExtensions.obj
 0002:00002718       ??_C@_0L@LPFKLMDB@glVertex2f@ 00000001400a6718     sfml-graphics-s:GLExtensions.obj
 0002:00002728       ??_C@_0M@CIAEIEPG@glVertex2fv@ 00000001400a6728     sfml-graphics-s:GLExtensions.obj
 0002:00002738       ??_C@_0L@DIMCKAPO@glVertex2i@ 00000001400a6738     sfml-graphics-s:GLExtensions.obj
 0002:00002748       ??_C@_0M@CDFIMDML@glVertex2iv@ 00000001400a6748     sfml-graphics-s:GLExtensions.obj
 0002:00002758       ??_C@_0L@IIOPFKCF@glVertex2s@ 00000001400a6758     sfml-graphics-s:GLExtensions.obj
 0002:00002768       ??_C@_0M@DCOJOFGN@glVertex2sv@ 00000001400a6768     sfml-graphics-s:GLExtensions.obj
 0002:00002778       ??_C@_0L@IMKOLEIE@glVertex3d@ 00000001400a6778     sfml-graphics-s:GLExtensions.obj
 0002:00002788       ??_C@_0M@JDDMDHPN@glVertex3dv@ 00000001400a6788     sfml-graphics-s:GLExtensions.obj
 0002:00002798       ??_C@_0L@LOJINGAG@glVertex3f@ 00000001400a6798     sfml-graphics-s:GLExtensions.obj
 0002:000027a8       ??_C@_0M@JALIODJD@glVertex3fv@ 00000001400a67a8     sfml-graphics-s:GLExtensions.obj
 0002:000027b8       ??_C@_0L@DJAAMKMJ@glVertex3i@ 00000001400a67b8     sfml-graphics-s:GLExtensions.obj
 0002:000027c8       ??_C@_0M@JLOEKEKO@glVertex3iv@ 00000001400a67c8     sfml-graphics-s:GLExtensions.obj
 0002:000027d8       ??_C@_0L@IJCNDABC@glVertex3s@ 00000001400a67d8     sfml-graphics-s:GLExtensions.obj
 0002:000027e8       ??_C@_0M@IKFFICAI@glVertex3sv@ 00000001400a67e8     sfml-graphics-s:GLExtensions.obj
 0002:000027f8       ??_C@_0L@IJOBKCAB@glVertex4d@ 00000001400a67f8     sfml-graphics-s:GLExtensions.obj
 0002:00002808       ??_C@_0M@OOLAPEE@glVertex4dv@ 00000001400a6808     sfml-graphics-s:GLExtensions.obj
 0002:00002818       ??_C@_0L@LLNHMAID@glVertex4f@ 00000001400a6818     sfml-graphics-s:GLExtensions.obj
 0002:00002828       ??_C@_0M@NGPNLCK@glVertex4fv@ 00000001400a6828     sfml-graphics-s:GLExtensions.obj
 0002:00002838       ??_C@_0L@DMEPNMEM@glVertex4i@ 00000001400a6838     sfml-graphics-s:GLExtensions.obj
 0002:00002848       ??_C@_0M@GDDJMBH@glVertex4iv@ 00000001400a6848     sfml-graphics-s:GLExtensions.obj
 0002:00002858       ??_C@_0L@IMGCCGJH@glVertex4s@ 00000001400a6858     sfml-graphics-s:GLExtensions.obj
 0002:00002868       ??_C@_0M@BHICLKLB@glVertex4sv@ 00000001400a6868     sfml-graphics-s:GLExtensions.obj
 0002:00002878       ??_C@_0L@KBLIPDFH@glViewport@ 00000001400a6878     sfml-graphics-s:GLExtensions.obj
 0002:00002888       ??_C@_0BG@DHOKJLEP@glAreTexturesResident@ 00000001400a6888     sfml-graphics-s:GLExtensions.obj
 0002:000028a0       ??_C@_0P@CKCIJELG@glArrayElement@ 00000001400a68a0     sfml-graphics-s:GLExtensions.obj
 0002:000028b0       ??_C@_0O@JKKCIBGC@glBindTexture@ 00000001400a68b0     sfml-graphics-s:GLExtensions.obj
 0002:000028c0       ??_C@_0P@DPKEGLKI@glColorPointer@ 00000001400a68c0     sfml-graphics-s:GLExtensions.obj
 0002:000028d0       ??_C@_0BB@MEEDBHPL@glCopyTexImage1D@ 00000001400a68d0     sfml-graphics-s:GLExtensions.obj
 0002:000028e8       ??_C@_0BB@MGAFKJKC@glCopyTexImage2D@ 00000001400a68e8     sfml-graphics-s:GLExtensions.obj
 0002:00002900       ??_C@_0BE@PKNCAIGI@glCopyTexSubImage1D@ 00000001400a6900     sfml-graphics-s:GLExtensions.obj
 0002:00002918       ??_C@_0BE@PIJELGDB@glCopyTexSubImage2D@ 00000001400a6918     sfml-graphics-s:GLExtensions.obj
 0002:00002930       ??_C@_0BB@KMPLFJIC@glDeleteTextures@ 00000001400a6930     sfml-graphics-s:GLExtensions.obj
 0002:00002948       ??_C@_0BF@LJDHBNBP@glDisableClientState@ 00000001400a6948     sfml-graphics-s:GLExtensions.obj
 0002:00002960       ??_C@_0N@CMNPPOHA@glDrawArrays@ 00000001400a6960     sfml-graphics-s:GLExtensions.obj
 0002:00002970       ??_C@_0P@MENFIFGE@glDrawElements@ 00000001400a6970     sfml-graphics-s:GLExtensions.obj
 0002:00002980       ??_C@_0BC@LILGCNN@glEdgeFlagPointer@ 00000001400a6980     sfml-graphics-s:GLExtensions.obj
 0002:00002998       ??_C@_0BE@KECPKGNE@glEnableClientState@ 00000001400a6998     sfml-graphics-s:GLExtensions.obj
 0002:000029b0       ??_C@_0O@LLMANLNK@glGenTextures@ 00000001400a69b0     sfml-graphics-s:GLExtensions.obj
 0002:000029c0       ??_C@_0O@LADEDGJO@glGetPointerv@ 00000001400a69c0     sfml-graphics-s:GLExtensions.obj
 0002:000029d0       ??_C@_0P@KGJBLKPD@glIndexPointer@ 00000001400a69d0     sfml-graphics-s:GLExtensions.obj
 0002:000029e0       ??_C@_09BBIPIKNC@glIndexub@ 00000001400a69e0     sfml-graphics-s:GLExtensions.obj
 0002:000029f0       ??_C@_0L@BBKJOCAC@glIndexubv@ 00000001400a69f0     sfml-graphics-s:GLExtensions.obj
 0002:00002a00       ??_C@_0BE@EDEDCKLI@glInterleavedArrays@ 00000001400a6a00     sfml-graphics-s:GLExtensions.obj
 0002:00002a18       ??_C@_0M@NJHAEPDN@glIsTexture@ 00000001400a6a18     sfml-graphics-s:GLExtensions.obj
 0002:00002a28       ??_C@_0BA@DCLMCEOP@glNormalPointer@ 00000001400a6a28     sfml-graphics-s:GLExtensions.obj
 0002:00002a38       ??_C@_0BA@FFBJGNC@glPolygonOffset@ 00000001400a6a38     sfml-graphics-s:GLExtensions.obj
 0002:00002a48       ??_C@_0BC@GOOJKIDH@glPopClientAttrib@ 00000001400a6a48     sfml-graphics-s:GLExtensions.obj
 0002:00002a60       ??_C@_0BF@FFCGNNIA@glPrioritizeTextures@ 00000001400a6a60     sfml-graphics-s:GLExtensions.obj
 0002:00002a78       ??_C@_0BD@JKGPLNEA@glPushClientAttrib@ 00000001400a6a78     sfml-graphics-s:GLExtensions.obj
 0002:00002a90       ??_C@_0BC@DAOMILMO@glTexCoordPointer@ 00000001400a6a90     sfml-graphics-s:GLExtensions.obj
 0002:00002aa8       ??_C@_0BA@NFOOCKJD@glTexSubImage1D@ 00000001400a6aa8     sfml-graphics-s:GLExtensions.obj
 0002:00002ab8       ??_C@_0BA@NHKIJEMK@glTexSubImage2D@ 00000001400a6ab8     sfml-graphics-s:GLExtensions.obj
 0002:00002ac8       ??_C@_0BA@HAHECJNK@glVertexPointer@ 00000001400a6ac8     sfml-graphics-s:GLExtensions.obj
 0002:00002ad8       ??_C@_0BE@PJFGNMAG@glCopyTexSubImage3D@ 00000001400a6ad8     sfml-graphics-s:GLExtensions.obj
 0002:00002af0       ??_C@_0BE@IHNAGJGJ@glDrawRangeElements@ 00000001400a6af0     sfml-graphics-s:GLExtensions.obj
 0002:00002b08       ??_C@_0N@JAEIBBBF@glTexImage3D@ 00000001400a6b08     sfml-graphics-s:GLExtensions.obj
 0002:00002b18       ??_C@_0BA@NGGKPOPN@glTexSubImage3D@ 00000001400a6b18     sfml-graphics-s:GLExtensions.obj
 0002:00002b28       ??_C@_0BA@KOBBIKOF@glActiveTexture@ 00000001400a6b28     sfml-graphics-s:GLExtensions.obj
 0002:00002b38       ??_C@_0BG@EGKOMLFO@glClientActiveTexture@ 00000001400a6b38     sfml-graphics-s:GLExtensions.obj
 0002:00002b50       ??_C@_0BH@GFPJBEAB@glCompressedTexImage1D@ 00000001400a6b50     sfml-graphics-s:GLExtensions.obj
 0002:00002b68       ??_C@_0BH@GHLPKKFI@glCompressedTexImage2D@ 00000001400a6b68     sfml-graphics-s:GLExtensions.obj
 0002:00002b80       ??_C@_0BH@GGHNMAGP@glCompressedTexImage3D@ 00000001400a6b80     sfml-graphics-s:GLExtensions.obj
 0002:00002b98       ??_C@_0BK@ECBIPHJO@glCompressedTexSubImage1D@ 00000001400a6b98     sfml-graphics-s:GLExtensions.obj
 0002:00002bb8       ??_C@_0BK@EAFOEJMH@glCompressedTexSubImage2D@ 00000001400a6bb8     sfml-graphics-s:GLExtensions.obj
 0002:00002bd8       ??_C@_0BK@EBJMCDPA@glCompressedTexSubImage3D@ 00000001400a6bd8     sfml-graphics-s:GLExtensions.obj
 0002:00002bf8       ??_C@_0BI@MPANLPPL@glGetCompressedTexImage@ 00000001400a6bf8     sfml-graphics-s:GLExtensions.obj
 0002:00002c10       ??_C@_0BH@DMKLNEPC@glLoadTransposeMatrixd@ 00000001400a6c10     sfml-graphics-s:GLExtensions.obj
 0002:00002c28       ??_C@_0BH@OJNLGHA@glLoadTransposeMatrixf@ 00000001400a6c28     sfml-graphics-s:GLExtensions.obj
 0002:00002c40       ??_C@_0BH@NCKJAFA@glMultTransposeMatrixd@ 00000001400a6c40     sfml-graphics-s:GLExtensions.obj
 0002:00002c58       ??_C@_0BH@DPBMPCNC@glMultTransposeMatrixf@ 00000001400a6c58     sfml-graphics-s:GLExtensions.obj
 0002:00002c70       ??_C@_0BC@IHHPPFPP@glMultiTexCoord1d@ 00000001400a6c70     sfml-graphics-s:GLExtensions.obj
 0002:00002c88       ??_C@_0BD@FEOAEOAI@glMultiTexCoord1dv@ 00000001400a6c88     sfml-graphics-s:GLExtensions.obj
 0002:00002ca0       ??_C@_0BC@LFEJJHHN@glMultiTexCoord1f@ 00000001400a6ca0     sfml-graphics-s:GLExtensions.obj
 0002:00002cb8       ??_C@_0BD@FHGEJKGG@glMultiTexCoord1fv@ 00000001400a6cb8     sfml-graphics-s:GLExtensions.obj
 0002:00002cd0       ??_C@_0BC@DCNBILLC@glMultiTexCoord1i@ 00000001400a6cd0     sfml-graphics-s:GLExtensions.obj
 0002:00002ce8       ??_C@_0BD@FMDINNFL@glMultiTexCoord1iv@ 00000001400a6ce8     sfml-graphics-s:GLExtensions.obj
 0002:00002d00       ??_C@_0BC@ICPMHBGJ@glMultiTexCoord1s@ 00000001400a6d00     sfml-graphics-s:GLExtensions.obj
 0002:00002d18       ??_C@_0BD@ENIJPLPN@glMultiTexCoord1sv@ 00000001400a6d18     sfml-graphics-s:GLExtensions.obj
 0002:00002d30       ??_C@_0BC@IFDJELKG@glMultiTexCoord2d@ 00000001400a6d30     sfml-graphics-s:GLExtensions.obj
 0002:00002d48       ??_C@_0BD@EGFFOBOG@glMultiTexCoord2dv@ 00000001400a6d48     sfml-graphics-s:GLExtensions.obj
 0002:00002d60       ??_C@_0BC@LHAPCJCE@glMultiTexCoord2f@ 00000001400a6d60     sfml-graphics-s:GLExtensions.obj
 0002:00002d78       ??_C@_0BD@EFNBDFII@glMultiTexCoord2fv@ 00000001400a6d78     sfml-graphics-s:GLExtensions.obj
 0002:00002d90       ??_C@_0BC@DAJHDFOL@glMultiTexCoord2i@ 00000001400a6d90     sfml-graphics-s:GLExtensions.obj
 0002:00002da8       ??_C@_0BD@EOINHCLF@glMultiTexCoord2iv@ 00000001400a6da8     sfml-graphics-s:GLExtensions.obj
 0002:00002dc0       ??_C@_0BC@IALKMPDA@glMultiTexCoord2s@ 00000001400a6dc0     sfml-graphics-s:GLExtensions.obj
 0002:00002dd8       ??_C@_0BD@FPDMFEBD@glMultiTexCoord2sv@ 00000001400a6dd8     sfml-graphics-s:GLExtensions.obj
 0002:00002df0       ??_C@_0BC@IEPLCBJB@glMultiTexCoord3d@ 00000001400a6df0     sfml-graphics-s:GLExtensions.obj
 0002:00002e08       ??_C@_0BD@POOJIGID@glMultiTexCoord3dv@ 00000001400a6e08     sfml-graphics-s:GLExtensions.obj
 0002:00002e20       ??_C@_0BC@LGMNEDBD@glMultiTexCoord3f@ 00000001400a6e20     sfml-graphics-s:GLExtensions.obj
 0002:00002e38       ??_C@_0BD@PNGNFCON@glMultiTexCoord3fv@ 00000001400a6e38     sfml-graphics-s:GLExtensions.obj
 0002:00002e50       ??_C@_0BC@DBFFFPNM@glMultiTexCoord3i@ 00000001400a6e50     sfml-graphics-s:GLExtensions.obj
 0002:00002e68       ??_C@_0BD@PGDBBFNA@glMultiTexCoord3iv@ 00000001400a6e68     sfml-graphics-s:GLExtensions.obj
 0002:00002e80       ??_C@_0BC@IBHIKFAH@glMultiTexCoord3s@ 00000001400a6e80     sfml-graphics-s:GLExtensions.obj
 0002:00002e98       ??_C@_0BD@OHIADDHG@glMultiTexCoord3sv@ 00000001400a6e98     sfml-graphics-s:GLExtensions.obj
 0002:00002eb0       ??_C@_0BC@IBLEDHBE@glMultiTexCoord4d@ 00000001400a6eb0     sfml-graphics-s:GLExtensions.obj
 0002:00002ec8       ??_C@_0BD@GDDOLODK@glMultiTexCoord4dv@ 00000001400a6ec8     sfml-graphics-s:GLExtensions.obj
 0002:00002ee0       ??_C@_0BC@LDICFFJG@glMultiTexCoord4f@ 00000001400a6ee0     sfml-graphics-s:GLExtensions.obj
 0002:00002ef8       ??_C@_0BD@GALKGKFE@glMultiTexCoord4fv@ 00000001400a6ef8     sfml-graphics-s:GLExtensions.obj
 0002:00002f10       ??_C@_0BC@DEBKEJFJ@glMultiTexCoord4i@ 00000001400a6f10     sfml-graphics-s:GLExtensions.obj
 0002:00002f28       ??_C@_0BD@GLOGCNGJ@glMultiTexCoord4iv@ 00000001400a6f28     sfml-graphics-s:GLExtensions.obj
 0002:00002f40       ??_C@_0BC@IEDHLDIC@glMultiTexCoord4s@ 00000001400a6f40     sfml-graphics-s:GLExtensions.obj
 0002:00002f58       ??_C@_0BD@HKFHALMP@glMultiTexCoord4sv@ 00000001400a6f58     sfml-graphics-s:GLExtensions.obj
 0002:00002f70       ??_C@_0BB@BJGIPMOA@glSampleCoverage@ 00000001400a6f70     sfml-graphics-s:GLExtensions.obj
 0002:00002f88       ??_C@_0N@PKBMFJDK@glBlendColor@ 00000001400a6f88     sfml-graphics-s:GLExtensions.obj
 0002:00002f98       ??_C@_0BA@PFHILPAN@glBlendEquation@ 00000001400a6f98     sfml-graphics-s:GLExtensions.obj
 0002:00002fa8       ??_C@_0BE@LLLCIIOO@glBlendFuncSeparate@ 00000001400a6fa8     sfml-graphics-s:GLExtensions.obj
 0002:00002fc0       ??_C@_0BC@GECGFLP@glFogCoordPointer@ 00000001400a6fc0     sfml-graphics-s:GLExtensions.obj
 0002:00002fd8       ??_C@_0M@FACELPGH@glFogCoordd@ 00000001400a6fd8     sfml-graphics-s:GLExtensions.obj
 0002:00002fe8       ??_C@_0N@KKODAODE@glFogCoorddv@ 00000001400a6fe8     sfml-graphics-s:GLExtensions.obj
 0002:00002ff8       ??_C@_0M@GCBCNNOF@glFogCoordf@ 00000001400a6ff8     sfml-graphics-s:GLExtensions.obj
 0002:00003008       ??_C@_0N@KJGHNKFK@glFogCoordfv@ 00000001400a7008     sfml-graphics-s:GLExtensions.obj
 0002:00003018       ??_C@_0BC@IBABPJFA@glMultiDrawArrays@ 00000001400a7018     sfml-graphics-s:GLExtensions.obj
 0002:00003030       ??_C@_0BE@MPDFJJLL@glMultiDrawElements@ 00000001400a7030     sfml-graphics-s:GLExtensions.obj
 0002:00003048       ??_C@_0BC@FGOOEDO@glPointParameterf@ 00000001400a7048     sfml-graphics-s:GLExtensions.obj
 0002:00003060       ??_C@_0BD@LIABKNDP@glPointParameterfv@ 00000001400a7060     sfml-graphics-s:GLExtensions.obj
 0002:00003078       ??_C@_0BC@ICPGPIPB@glPointParameteri@ 00000001400a7078     sfml-graphics-s:GLExtensions.obj
 0002:00003090       ??_C@_0BD@LDFNOKAC@glPointParameteriv@ 00000001400a7090     sfml-graphics-s:GLExtensions.obj
 0002:000030a8       ??_C@_0BD@MCCHHBGK@glSecondaryColor3b@ 00000001400a70a8     sfml-graphics-s:GLExtensions.obj
 0002:000030c0       ??_C@_0BE@NEMAHBEH@glSecondaryColor3bv@ 00000001400a70c0     sfml-graphics-s:GLExtensions.obj
 0002:000030d8       ??_C@_0BD@JEHNNGOM@glSecondaryColor3d@ 00000001400a70d8     sfml-graphics-s:GLExtensions.obj
 0002:000030f0       ??_C@_0BE@NAENANPF@glSecondaryColor3dv@ 00000001400a70f0     sfml-graphics-s:GLExtensions.obj
 0002:00003108       ??_C@_0BD@KGELLEGO@glSecondaryColor3f@ 00000001400a7108     sfml-graphics-s:GLExtensions.obj
 0002:00003120       ??_C@_0BE@NDMJNJJL@glSecondaryColor3fv@ 00000001400a7120     sfml-graphics-s:GLExtensions.obj
 0002:00003138       ??_C@_0BD@CBNDKIKB@glSecondaryColor3i@ 00000001400a7138     sfml-graphics-s:GLExtensions.obj
 0002:00003150       ??_C@_0BE@NIJFJOKG@glSecondaryColor3iv@ 00000001400a7150     sfml-graphics-s:GLExtensions.obj
 0002:00003168       ??_C@_0BD@JBPOFCHK@glSecondaryColor3s@ 00000001400a7168     sfml-graphics-s:GLExtensions.obj
 0002:00003180       ??_C@_0BE@MJCELIAA@glSecondaryColor3sv@ 00000001400a7180     sfml-graphics-s:GLExtensions.obj
 0002:00003198       ??_C@_0BE@ODAHBDOH@glSecondaryColor3ub@ 00000001400a7198     sfml-graphics-s:GLExtensions.obj
 0002:000031b0       ??_C@_0BF@EHOIKOLI@glSecondaryColor3ubv@ 00000001400a71b0     sfml-graphics-s:GLExtensions.obj
 0002:000031c8       ??_C@_0BE@PDMKCM@glSecondaryColor3ui@ 00000001400a71c8     sfml-graphics-s:GLExtensions.obj
 0002:000031e0       ??_C@_0BF@ELLNEBFJ@glSecondaryColor3uiv@ 00000001400a71e0     sfml-graphics-s:GLExtensions.obj
 0002:000031f8       ??_C@_0BE@LANODAPH@glSecondaryColor3us@ 00000001400a71f8     sfml-graphics-s:GLExtensions.obj
 0002:00003210       ??_C@_0BF@FKAMGHPP@glSecondaryColor3usv@ 00000001400a7210     sfml-graphics-s:GLExtensions.obj
 0002:00003228       ??_C@_0BI@EFMNDJOO@glSecondaryColorPointer@ 00000001400a7228     sfml-graphics-s:GLExtensions.obj
 0002:00003240       ??_C@_0O@JGNKBLNH@glWindowPos2d@ 00000001400a7240     sfml-graphics-s:GLExtensions.obj
 0002:00003250       ??_C@_0P@GBEEEDBM@glWindowPos2dv@ 00000001400a7250     sfml-graphics-s:GLExtensions.obj
 0002:00003260       ??_C@_0O@KEOMHJFF@glWindowPos2f@ 00000001400a7260     sfml-graphics-s:GLExtensions.obj
 0002:00003270       ??_C@_0P@GCMAJHHC@glWindowPos2fv@ 00000001400a7270     sfml-graphics-s:GLExtensions.obj
 0002:00003280       ??_C@_0O@CDHEGFJK@glWindowPos2i@ 00000001400a7280     sfml-graphics-s:GLExtensions.obj
 0002:00003290       ??_C@_0P@GJJMNAEP@glWindowPos2iv@ 00000001400a7290     sfml-graphics-s:GLExtensions.obj
 0002:000032a0       ??_C@_0O@JDFJJPEB@glWindowPos2s@ 00000001400a72a0     sfml-graphics-s:GLExtensions.obj
 0002:000032b0       ??_C@_0P@HICNPGOJ@glWindowPos2sv@ 00000001400a72b0     sfml-graphics-s:GLExtensions.obj
 0002:000032c0       ??_C@_0O@JHBIHBOA@glWindowPos3d@ 00000001400a72c0     sfml-graphics-s:GLExtensions.obj
 0002:000032d0       ??_C@_0P@NJPICEHJ@glWindowPos3dv@ 00000001400a72d0     sfml-graphics-s:GLExtensions.obj
 0002:000032e0       ??_C@_0O@KFCOBDGC@glWindowPos3f@ 00000001400a72e0     sfml-graphics-s:GLExtensions.obj
 0002:000032f0       ??_C@_0P@NKHMPABH@glWindowPos3fv@ 00000001400a72f0     sfml-graphics-s:GLExtensions.obj
 0002:00003300       ??_C@_0O@CCLGAPKN@glWindowPos3i@ 00000001400a7300     sfml-graphics-s:GLExtensions.obj
 0002:00003310       ??_C@_0P@NBCALHCK@glWindowPos3iv@ 00000001400a7310     sfml-graphics-s:GLExtensions.obj
 0002:00003320       ??_C@_0O@JCJLPFHG@glWindowPos3s@ 00000001400a7320     sfml-graphics-s:GLExtensions.obj
 0002:00003330       ??_C@_0P@MAJBJBIM@glWindowPos3sv@ 00000001400a7330     sfml-graphics-s:GLExtensions.obj
 0002:00003340       ??_C@_0N@GIAGIGPA@glBeginQuery@ 00000001400a7340     sfml-graphics-s:GLExtensions.obj
 0002:00003350       ??_C@_0N@BONEPPLO@glBindBuffer@ 00000001400a7350     sfml-graphics-s:GLExtensions.obj
 0002:00003360       ??_C@_0N@JHHJMABP@glBufferData@ 00000001400a7360     sfml-graphics-s:GLExtensions.obj
 0002:00003370       ??_C@_0BA@GAJMDBBN@glBufferSubData@ 00000001400a7370     sfml-graphics-s:GLExtensions.obj
 0002:00003380       ??_C@_0BA@DMNLADIO@glDeleteBuffers@ 00000001400a7380     sfml-graphics-s:GLExtensions.obj
 0002:00003390       ??_C@_0BA@IOKEHMOH@glDeleteQueries@ 00000001400a7390     sfml-graphics-s:GLExtensions.obj
 0002:000033a0       ??_C@_0L@FLEBHIDM@glEndQuery@ 00000001400a73a0     sfml-graphics-s:GLExtensions.obj
 0002:000033b0       ??_C@_0N@LAOHBIBA@glGenBuffers@ 00000001400a73b0     sfml-graphics-s:GLExtensions.obj
 0002:000033c0       ??_C@_0N@CJIGHHJ@glGenQueries@ 00000001400a73c0     sfml-graphics-s:GLExtensions.obj
 0002:000033d0       ??_C@_0BH@BMIEIFJP@glGetBufferParameteriv@ 00000001400a73d0     sfml-graphics-s:GLExtensions.obj
 0002:000033e8       ??_C@_0BE@KNJEIFMC@glGetBufferPointerv@ 00000001400a73e8     sfml-graphics-s:GLExtensions.obj
 0002:00003400       ??_C@_0BD@PNDAHMBO@glGetBufferSubData@ 00000001400a7400     sfml-graphics-s:GLExtensions.obj
 0002:00003418       ??_C@_0BD@KMBBCJID@glGetQueryObjectiv@ 00000001400a7418     sfml-graphics-s:GLExtensions.obj
 0002:00003430       ??_C@_0BE@MNBBKJ@glGetQueryObjectuiv@ 00000001400a7430     sfml-graphics-s:GLExtensions.obj
 0002:00003448       ??_C@_0N@BPACPFCI@glGetQueryiv@ 00000001400a7448     sfml-graphics-s:GLExtensions.obj
 0002:00003458       ??_C@_0L@KFPDMKNG@glIsBuffer@ 00000001400a7458     sfml-graphics-s:GLExtensions.obj
 0002:00003468       ??_C@_09CNNLCEBN@glIsQuery@ 00000001400a7468     sfml-graphics-s:GLExtensions.obj
 0002:00003478       ??_C@_0M@NNHDPACA@glMapBuffer@ 00000001400a7478     sfml-graphics-s:GLExtensions.obj
 0002:00003488       ??_C@_0O@OFGHBLEO@glUnmapBuffer@ 00000001400a7488     sfml-graphics-s:GLExtensions.obj
 0002:00003498       ??_C@_0P@LDMLEABL@glAttachShader@ 00000001400a7498     sfml-graphics-s:GLExtensions.obj
 0002:000034a8       ??_C@_0BF@MHKEFIHM@glBindAttribLocation@ 00000001400a74a8     sfml-graphics-s:GLExtensions.obj
 0002:000034c0       ??_C@_0BI@JNHDNJAG@glBlendEquationSeparate@ 00000001400a74c0     sfml-graphics-s:GLExtensions.obj
 0002:000034d8       ??_C@_0BA@DGIEGONF@glCompileShader@ 00000001400a74d8     sfml-graphics-s:GLExtensions.obj
 0002:000034e8       ??_C@_0BA@FLKLHNKP@glCreateProgram@ 00000001400a74e8     sfml-graphics-s:GLExtensions.obj
 0002:000034f8       ??_C@_0P@HGHBNC@glCreateShader@ 00000001400a74f8     sfml-graphics-s:GLExtensions.obj
 0002:00003508       ??_C@_0BA@NKGCDOPO@glDeleteProgram@ 00000001400a7508     sfml-graphics-s:GLExtensions.obj
 0002:00003518       ??_C@_0P@HHCDONAG@glDeleteShader@ 00000001400a7518     sfml-graphics-s:GLExtensions.obj
 0002:00003528       ??_C@_0P@DJFJFCJL@glDetachShader@ 00000001400a7528     sfml-graphics-s:GLExtensions.obj
 0002:00003538       ??_C@_0BL@NKHLOFFF@glDisableVertexAttribArray@ 00000001400a7538     sfml-graphics-s:GLExtensions.obj
 0002:00003558       ??_C@_0O@COHJKDBH@glDrawBuffers@ 00000001400a7558     sfml-graphics-s:GLExtensions.obj
 0002:00003568       ??_C@_0BK@EHBAHNHE@glEnableVertexAttribArray@ 00000001400a7568     sfml-graphics-s:GLExtensions.obj
 0002:00003588       ??_C@_0BC@MBALAOHF@glGetActiveAttrib@ 00000001400a7588     sfml-graphics-s:GLExtensions.obj
 0002:000035a0       ??_C@_0BD@NIMHLLKN@glGetActiveUniform@ 00000001400a75a0     sfml-graphics-s:GLExtensions.obj
 0002:000035b8       ??_C@_0BF@GHMDGFEM@glGetAttachedShaders@ 00000001400a75b8     sfml-graphics-s:GLExtensions.obj
 0002:000035d0       ??_C@_0BE@BEPGJDMM@glGetAttribLocation@ 00000001400a75d0     sfml-graphics-s:GLExtensions.obj
 0002:000035e8       ??_C@_0BE@DHGHAJFL@glGetProgramInfoLog@ 00000001400a75e8     sfml-graphics-s:GLExtensions.obj
 0002:00003600       ??_C@_0P@FMMDFLCO@glGetProgramiv@ 00000001400a7600     sfml-graphics-s:GLExtensions.obj
 0002:00003610       ??_C@_0BD@GIABBCMO@glGetShaderInfoLog@ 00000001400a7610     sfml-graphics-s:GLExtensions.obj
 0002:00003628       ??_C@_0BC@ELEIFJEL@glGetShaderSource@ 00000001400a7628     sfml-graphics-s:GLExtensions.obj
 0002:00003640       ??_C@_0O@JBDFPDMG@glGetShaderiv@ 00000001400a7640     sfml-graphics-s:GLExtensions.obj
 0002:00003650       ??_C@_0BF@KIOPGICP@glGetUniformLocation@ 00000001400a7650     sfml-graphics-s:GLExtensions.obj
 0002:00003668       ??_C@_0P@DFCJIBG@glGetUniformfv@ 00000001400a7668     sfml-graphics-s:GLExtensions.obj
 0002:00003678       ??_C@_0P@IAONPCL@glGetUniformiv@ 00000001400a7678     sfml-graphics-s:GLExtensions.obj
 0002:00003688       ??_C@_0BK@DOJMENLD@glGetVertexAttribPointerv@ 00000001400a7688     sfml-graphics-s:GLExtensions.obj
 0002:000036a8       ??_C@_0BE@HDPMJMIN@glGetVertexAttribdv@ 00000001400a76a8     sfml-graphics-s:GLExtensions.obj
 0002:000036c0       ??_C@_0BE@HAHIEIOD@glGetVertexAttribfv@ 00000001400a76c0     sfml-graphics-s:GLExtensions.obj
 0002:000036d8       ??_C@_0BE@HLCEAPNO@glGetVertexAttribiv@ 00000001400a76d8     sfml-graphics-s:GLExtensions.obj
 0002:000036f0       ??_C@_0M@INLOJDGO@glIsProgram@ 00000001400a76f0     sfml-graphics-s:GLExtensions.obj
 0002:00003700       ??_C@_0L@MDDLFIHC@glIsShader@ 00000001400a7700     sfml-graphics-s:GLExtensions.obj
 0002:00003710       ??_C@_0O@PIOEEBPO@glLinkProgram@ 00000001400a7710     sfml-graphics-s:GLExtensions.obj
 0002:00003720       ??_C@_0P@DFHCPFMO@glShaderSource@ 00000001400a7720     sfml-graphics-s:GLExtensions.obj
 0002:00003730       ??_C@_0BG@FCMNCEIA@glStencilFuncSeparate@ 00000001400a7730     sfml-graphics-s:GLExtensions.obj
 0002:00003748       ??_C@_0BG@MMKPIEJI@glStencilMaskSeparate@ 00000001400a7748     sfml-graphics-s:GLExtensions.obj
 0002:00003760       ??_C@_0BE@GAPLDNGF@glStencilOpSeparate@ 00000001400a7760     sfml-graphics-s:GLExtensions.obj
 0002:00003778       ??_C@_0M@MLICAPOF@glUniform1f@ 00000001400a7778     sfml-graphics-s:GLExtensions.obj
 0002:00003788       ??_C@_0N@KJMOEKII@glUniform1fv@ 00000001400a7788     sfml-graphics-s:GLExtensions.obj
 0002:00003798       ??_C@_0M@EMBKBDCK@glUniform1i@ 00000001400a7798     sfml-graphics-s:GLExtensions.obj
 0002:000037a8       ??_C@_0N@KCJCANLF@glUniform1iv@ 00000001400a77a8     sfml-graphics-s:GLExtensions.obj
 0002:000037b8       ??_C@_0M@MJMELBLM@glUniform2f@ 00000001400a77b8     sfml-graphics-s:GLExtensions.obj
 0002:000037c8       ??_C@_0N@LLHLOFGG@glUniform2fv@ 00000001400a77c8     sfml-graphics-s:GLExtensions.obj
 0002:000037d8       ??_C@_0M@EOFMKNHD@glUniform2i@ 00000001400a77d8     sfml-graphics-s:GLExtensions.obj
 0002:000037e8       ??_C@_0N@LACHKCFL@glUniform2iv@ 00000001400a77e8     sfml-graphics-s:GLExtensions.obj
 0002:000037f8       ??_C@_0M@MIAGNLIL@glUniform3f@ 00000001400a77f8     sfml-graphics-s:GLExtensions.obj
 0002:00003808       ??_C@_0N@DMHICAD@glUniform3fv@ 00000001400a7808     sfml-graphics-s:GLExtensions.obj
 0002:00003818       ??_C@_0M@EPJOMHEE@glUniform3i@ 00000001400a7818     sfml-graphics-s:GLExtensions.obj
 0002:00003828       ??_C@_0N@IJLMFDO@glUniform3iv@ 00000001400a7828     sfml-graphics-s:GLExtensions.obj
 0002:00003838       ??_C@_0M@MNEJMNAO@glUniform4f@ 00000001400a7838     sfml-graphics-s:GLExtensions.obj
 0002:00003848       ??_C@_0N@JOBALKLK@glUniform4fv@ 00000001400a7848     sfml-graphics-s:GLExtensions.obj
 0002:00003858       ??_C@_0M@EKNBNBMB@glUniform4i@ 00000001400a7858     sfml-graphics-s:GLExtensions.obj
 0002:00003868       ??_C@_0N@JFEMPNIH@glUniform4iv@ 00000001400a7868     sfml-graphics-s:GLExtensions.obj
 0002:00003878       ??_C@_0BD@JIBJELHD@glUniformMatrix2fv@ 00000001400a7878     sfml-graphics-s:GLExtensions.obj
 0002:00003890       ??_C@_0BD@CAKFCMBG@glUniformMatrix3fv@ 00000001400a7890     sfml-graphics-s:GLExtensions.obj
 0002:000038a8       ??_C@_0BD@LNHCBEKP@glUniformMatrix4fv@ 00000001400a78a8     sfml-graphics-s:GLExtensions.obj
 0002:000038c0       ??_C@_0N@ICBDHBI@glUseProgram@ 00000001400a78c0     sfml-graphics-s:GLExtensions.obj
 0002:000038d0       ??_C@_0BC@MAPGDLJK@glValidateProgram@ 00000001400a78d0     sfml-graphics-s:GLExtensions.obj
 0002:000038e8       ??_C@_0BB@PIOLPNPC@glVertexAttrib1d@ 00000001400a78e8     sfml-graphics-s:GLExtensions.obj
 0002:00003900       ??_C@_0BC@CKCOKGLN@glVertexAttrib1dv@ 00000001400a7900     sfml-graphics-s:GLExtensions.obj
 0002:00003918       ??_C@_0BB@MKNNJPHA@glVertexAttrib1f@ 00000001400a7918     sfml-graphics-s:GLExtensions.obj
 0002:00003930       ??_C@_0BC@CJKKHCND@glVertexAttrib1fv@ 00000001400a7930     sfml-graphics-s:GLExtensions.obj
 0002:00003948       ??_C@_0BB@PNGIHJGE@glVertexAttrib1s@ 00000001400a7948     sfml-graphics-s:GLExtensions.obj
 0002:00003960       ??_C@_0BC@DDEHBDEI@glVertexAttrib1sv@ 00000001400a7960     sfml-graphics-s:GLExtensions.obj
 0002:00003978       ??_C@_0BB@PKKNEDKL@glVertexAttrib2d@ 00000001400a7978     sfml-graphics-s:GLExtensions.obj
 0002:00003990       ??_C@_0BC@DIJLAJFD@glVertexAttrib2dv@ 00000001400a7990     sfml-graphics-s:GLExtensions.obj
 0002:000039a8       ??_C@_0BB@MIJLCBCJ@glVertexAttrib2f@ 00000001400a79a8     sfml-graphics-s:GLExtensions.obj
 0002:000039c0       ??_C@_0BC@DLBPNNDN@glVertexAttrib2fv@ 00000001400a79c0     sfml-graphics-s:GLExtensions.obj
 0002:000039d8       ??_C@_0BB@PPCOMHDN@glVertexAttrib2s@ 00000001400a79d8     sfml-graphics-s:GLExtensions.obj
 0002:000039f0       ??_C@_0BC@CBPCLMKG@glVertexAttrib2sv@ 00000001400a79f0     sfml-graphics-s:GLExtensions.obj
 0002:00003a08       ??_C@_0BB@PLGPCJJM@glVertexAttrib3d@ 00000001400a7a08     sfml-graphics-s:GLExtensions.obj
 0002:00003a20       ??_C@_0BC@IACHGODG@glVertexAttrib3dv@ 00000001400a7a20     sfml-graphics-s:GLExtensions.obj
 0002:00003a38       ??_C@_0BB@MJFJELBO@glVertexAttrib3f@ 00000001400a7a38     sfml-graphics-s:GLExtensions.obj
 0002:00003a50       ??_C@_0BC@IDKDLKFI@glVertexAttrib3fv@ 00000001400a7a50     sfml-graphics-s:GLExtensions.obj
 0002:00003a68       ??_C@_0BB@POOMKNAK@glVertexAttrib3s@ 00000001400a7a68     sfml-graphics-s:GLExtensions.obj
 0002:00003a80       ??_C@_0BC@JJEONLMD@glVertexAttrib3sv@ 00000001400a7a80     sfml-graphics-s:GLExtensions.obj
 0002:00003a98       ??_C@_0BD@NANPPEGB@glVertexAttrib4Nbv@ 00000001400a7a98     sfml-graphics-s:GLExtensions.obj
 0002:00003ab0       ??_C@_0BD@NMIKBLIA@glVertexAttrib4Niv@ 00000001400a7ab0     sfml-graphics-s:GLExtensions.obj
 0002:00003ac8       ??_C@_0BD@MNDLDNCG@glVertexAttrib4Nsv@ 00000001400a7ac8     sfml-graphics-s:GLExtensions.obj
 0002:00003ae0       ??_C@_0BD@OHBIJGMB@glVertexAttrib4Nub@ 00000001400a7ae0     sfml-graphics-s:GLExtensions.obj
 0002:00003af8       ??_C@_0BE@JFOBDEMA@glVertexAttrib4Nubv@ 00000001400a7af8     sfml-graphics-s:GLExtensions.obj
 0002:00003b10       ??_C@_0BE@JJLENLCB@glVertexAttrib4Nuiv@ 00000001400a7b10     sfml-graphics-s:GLExtensions.obj
 0002:00003b28       ??_C@_0BE@IIAFPNIH@glVertexAttrib4Nusv@ 00000001400a7b28     sfml-graphics-s:GLExtensions.obj
 0002:00003b40       ??_C@_0BC@BJHNCKDN@glVertexAttrib4bv@ 00000001400a7b40     sfml-graphics-s:GLExtensions.obj
 0002:00003b58       ??_C@_0BB@POCADPBJ@glVertexAttrib4d@ 00000001400a7b58     sfml-graphics-s:GLExtensions.obj
 0002:00003b70       ??_C@_0BC@BNPAFGIP@glVertexAttrib4dv@ 00000001400a7b70     sfml-graphics-s:GLExtensions.obj
 0002:00003b88       ??_C@_0BB@MMBGFNJL@glVertexAttrib4f@ 00000001400a7b88     sfml-graphics-s:GLExtensions.obj
 0002:00003ba0       ??_C@_0BC@BOHEICOB@glVertexAttrib4fv@ 00000001400a7ba0     sfml-graphics-s:GLExtensions.obj
 0002:00003bb8       ??_C@_0BC@BFCIMFNM@glVertexAttrib4iv@ 00000001400a7bb8     sfml-graphics-s:GLExtensions.obj
 0002:00003bd0       ??_C@_0BB@PLKDLLIP@glVertexAttrib4s@ 00000001400a7bd0     sfml-graphics-s:GLExtensions.obj
 0002:00003be8       ??_C@_0BC@EJJODHK@glVertexAttrib4sv@ 00000001400a7be8     sfml-graphics-s:GLExtensions.obj
 0002:00003c00       ??_C@_0BD@PHPFILMB@glVertexAttrib4ubv@ 00000001400a7c00     sfml-graphics-s:GLExtensions.obj
 0002:00003c18       ??_C@_0BD@PLKAGECA@glVertexAttrib4uiv@ 00000001400a7c18     sfml-graphics-s:GLExtensions.obj
 0002:00003c30       ??_C@_0BD@OKBBECIG@glVertexAttrib4usv@ 00000001400a7c30     sfml-graphics-s:GLExtensions.obj
 0002:00003c48       ??_C@_0BG@JPNNNPKG@glVertexAttribPointer@ 00000001400a7c48     sfml-graphics-s:GLExtensions.obj
 0002:00003c60       ??_C@_0BF@KDDJMCDK@glUniformMatrix2x3fv@ 00000001400a7c60     sfml-graphics-s:GLExtensions.obj
 0002:00003c78       ??_C@_0BF@DOOOPKID@glUniformMatrix2x4fv@ 00000001400a7c78     sfml-graphics-s:GLExtensions.obj
 0002:00003c90       ??_C@_0BF@NANJHGPK@glUniformMatrix3x2fv@ 00000001400a7c90     sfml-graphics-s:GLExtensions.obj
 0002:00003ca8       ??_C@_0BF@PFLCCJCG@glUniformMatrix3x4fv@ 00000001400a7ca8     sfml-graphics-s:GLExtensions.obj
 0002:00003cc0       ??_C@_0BF@MNNMEGEC@glUniformMatrix4x2fv@ 00000001400a7cc0     sfml-graphics-s:GLExtensions.obj
 0002:00003cd8       ??_C@_0BF@HFGACBCH@glUniformMatrix4x3fv@ 00000001400a7cd8     sfml-graphics-s:GLExtensions.obj
 0002:00003cf0       ??_C@_0BJ@EHEPIEPF@glBeginConditionalRender@ 00000001400a7cf0     sfml-graphics-s:GLExtensions.obj
 0002:00003d10       ??_C@_0BJ@FHJKOECC@glBeginTransformFeedback@ 00000001400a7d10     sfml-graphics-s:GLExtensions.obj
 0002:00003d30       ??_C@_0BB@LDPKOCJI@glBindBufferBase@ 00000001400a7d30     sfml-graphics-s:GLExtensions.obj
 0002:00003d48       ??_C@_0BC@EEMMCHMB@glBindBufferRange@ 00000001400a7d48     sfml-graphics-s:GLExtensions.obj
 0002:00003d60       ??_C@_0BH@DLJLAGBA@glBindFragDataLocation@ 00000001400a7d60     sfml-graphics-s:GLExtensions.obj
 0002:00003d78       ??_C@_0BC@CJMIBNO@glBindFramebuffer@ 00000001400a7d78     sfml-graphics-s:GLExtensions.obj
 0002:00003d90       ??_C@_0BD@EPOPJGFA@glBindRenderbuffer@ 00000001400a7d90     sfml-graphics-s:GLExtensions.obj
 0002:00003da8       ??_C@_0BC@LHBAHFAN@glBindVertexArray@ 00000001400a7da8     sfml-graphics-s:GLExtensions.obj
 0002:00003dc0       ??_C@_0BC@OANBDDEP@glBlitFramebuffer@ 00000001400a7dc0     sfml-graphics-s:GLExtensions.obj
 0002:00003dd8       ??_C@_0BJ@GIOLHEAD@glCheckFramebufferStatus@ 00000001400a7dd8     sfml-graphics-s:GLExtensions.obj
 0002:00003df8       ??_C@_0N@HLGAGIMI@glClampColor@ 00000001400a7df8     sfml-graphics-s:GLExtensions.obj
 0002:00003e08       ??_C@_0BA@OACPENCO@glClearBufferfi@ 00000001400a7e08     sfml-graphics-s:GLExtensions.obj
 0002:00003e18       ??_C@_0BA@CNHFEDLA@glClearBufferfv@ 00000001400a7e18     sfml-graphics-s:GLExtensions.obj
 0002:00003e28       ??_C@_0BA@CGCJAEIN@glClearBufferiv@ 00000001400a7e28     sfml-graphics-s:GLExtensions.obj
 0002:00003e38       ??_C@_0BB@OHPPAEID@glClearBufferuiv@ 00000001400a7e38     sfml-graphics-s:GLExtensions.obj
 0002:00003e50       ??_C@_0N@JHNNNJFG@glColorMaski@ 00000001400a7e50     sfml-graphics-s:GLExtensions.obj
 0002:00003e60       ??_C@_0BF@DJNJENP@glDeleteFramebuffers@ 00000001400a7e60     sfml-graphics-s:GLExtensions.obj
 0002:00003e78       ??_C@_0BG@KKOKEJDE@glDeleteRenderbuffers@ 00000001400a7e78     sfml-graphics-s:GLExtensions.obj
 0002:00003e90       ??_C@_0BF@BMPCJLEF@glDeleteVertexArrays@ 00000001400a7e90     sfml-graphics-s:GLExtensions.obj
 0002:00003ea8       ??_C@_0L@BMJPGDDH@glDisablei@ 00000001400a7ea8     sfml-graphics-s:GLExtensions.obj
 0002:00003eb8       ??_C@_09IEGEGIEN@glEnablei@ 00000001400a7eb8     sfml-graphics-s:GLExtensions.obj
 0002:00003ec8       ??_C@_0BH@KCIOLNMA@glEndConditionalRender@ 00000001400a7ec8     sfml-graphics-s:GLExtensions.obj
 0002:00003ee0       ??_C@_0BH@LCFLNNBH@glEndTransformFeedback@ 00000001400a7ee0     sfml-graphics-s:GLExtensions.obj
 0002:00003ef8       ??_C@_0BJ@NCDMGHKF@glFlushMappedBufferRange@ 00000001400a7ef8     sfml-graphics-s:GLExtensions.obj
 0002:00003f18       ??_C@_0BK@OJDINAOA@glFramebufferRenderbuffer@ 00000001400a7f18     sfml-graphics-s:GLExtensions.obj
 0002:00003f38       ??_C@_0BH@JAMDNNBM@glFramebufferTexture1D@ 00000001400a7f38     sfml-graphics-s:GLExtensions.obj
 0002:00003f50       ??_C@_0BH@JCIFGDEF@glFramebufferTexture2D@ 00000001400a7f50     sfml-graphics-s:GLExtensions.obj
 0002:00003f68       ??_C@_0BH@JDEHAJHC@glFramebufferTexture3D@ 00000001400a7f68     sfml-graphics-s:GLExtensions.obj
 0002:00003f80       ??_C@_0BK@NIHIDBBO@glFramebufferTextureLayer@ 00000001400a7f80     sfml-graphics-s:GLExtensions.obj
 0002:00003fa0       ??_C@_0BC@FAPEBGID@glGenFramebuffers@ 00000001400a7fa0     sfml-graphics-s:GLExtensions.obj
 0002:00003fb8       ??_C@_0BD@MIGEDNGJ@glGenRenderbuffers@ 00000001400a7fb8     sfml-graphics-s:GLExtensions.obj
 0002:00003fd0       ??_C@_0BC@EPJLBJBJ@glGenVertexArrays@ 00000001400a7fd0     sfml-graphics-s:GLExtensions.obj
 0002:00003fe8       ??_C@_0BB@BHNIMGDM@glGenerateMipmap@ 00000001400a7fe8     sfml-graphics-s:GLExtensions.obj
 0002:00004000       ??_C@_0BA@OAKNOBP@glGetBooleani_v@ 00000001400a8000     sfml-graphics-s:GLExtensions.obj
 0002:00004010       ??_C@_0BG@NDOIGAMC@glGetFragDataLocation@ 00000001400a8010     sfml-graphics-s:GLExtensions.obj
 0002:00004028       ??_C@_0CG@KLDGJEON@glGetFramebufferAttachmentParam@ 00000001400a8028     sfml-graphics-s:GLExtensions.obj
 0002:00004050       ??_C@_0BA@FKCNNMFO@glGetIntegeri_v@ 00000001400a8050     sfml-graphics-s:GLExtensions.obj
 0002:00004060       ??_C@_0BN@FGKAECKO@glGetRenderbufferParameteriv@ 00000001400a8060     sfml-graphics-s:GLExtensions.obj
 0002:00004080       ??_C@_0N@PILJCBOD@glGetStringi@ 00000001400a8080     sfml-graphics-s:GLExtensions.obj
 0002:00004090       ??_C@_0BF@ODBJFHDD@glGetTexParameterIiv@ 00000001400a8090     sfml-graphics-s:GLExtensions.obj
 0002:000040a8       ??_C@_0BG@MLODKKFL@glGetTexParameterIuiv@ 00000001400a80a8     sfml-graphics-s:GLExtensions.obj
 0002:000040c0       ??_C@_0BO@ODFLPNG@glGetTransformFeedbackVarying@ 00000001400a80c0     sfml-graphics-s:GLExtensions.obj
 0002:000040e0       ??_C@_0BA@NIGECFIF@glGetUniformuiv@ 00000001400a80e0     sfml-graphics-s:GLExtensions.obj
 0002:000040f0       ??_C@_0BF@KPDNEONP@glGetVertexAttribIiv@ 00000001400a80f0     sfml-graphics-s:GLExtensions.obj
 0002:00004108       ??_C@_0BG@GCBDCABB@glGetVertexAttribIuiv@ 00000001400a8108     sfml-graphics-s:GLExtensions.obj
 0002:00004120       ??_C@_0N@IMGKGOKN@glIsEnabledi@ 00000001400a8120     sfml-graphics-s:GLExtensions.obj
 0002:00004130       ??_C@_0BA@FGBIJCNH@glIsFramebuffer@ 00000001400a8130     sfml-graphics-s:GLExtensions.obj
 0002:00004140       ??_C@_0BB@DGGHKKOH@glIsRenderbuffer@ 00000001400a8140     sfml-graphics-s:GLExtensions.obj
 0002:00004158       ??_C@_0BA@ODJEGGAE@glIsVertexArray@ 00000001400a8158     sfml-graphics-s:GLExtensions.obj
 0002:00004168       ??_C@_0BB@EOHJGBIO@glMapBufferRange@ 00000001400a8168     sfml-graphics-s:GLExtensions.obj
 0002:00004180       ??_C@_0BG@EOIILGMJ@glRenderbufferStorage@ 00000001400a8180     sfml-graphics-s:GLExtensions.obj
 0002:00004198       ??_C@_0CB@HNONLGJE@glRenderbufferStorageMultisampl@ 00000001400a8198     sfml-graphics-s:GLExtensions.obj
 0002:000041c0       ??_C@_0BC@MAFJKEHB@glTexParameterIiv@ 00000001400a81c0     sfml-graphics-s:GLExtensions.obj
 0002:000041d8       ??_C@_0BD@FDBCMKBE@glTexParameterIuiv@ 00000001400a81d8     sfml-graphics-s:GLExtensions.obj
 0002:000041f0       ??_C@_0BM@IJFAKBEF@glTransformFeedbackVaryings@ 00000001400a81f0     sfml-graphics-s:GLExtensions.obj
 0002:00004210       ??_C@_0N@HKPEFJDP@glUniform1ui@ 00000001400a8210     sfml-graphics-s:GLExtensions.obj
 0002:00004220       ??_C@_0O@MPHJAHBE@glUniform1uiv@ 00000001400a8220     sfml-graphics-s:GLExtensions.obj
 0002:00004230       ??_C@_0N@GIEBPGNB@glUniform2ui@ 00000001400a8230     sfml-graphics-s:GLExtensions.obj
 0002:00004240       ??_C@_0O@IINJHNME@glUniform2uiv@ 00000001400a8240     sfml-graphics-s:GLExtensions.obj
 0002:00004250       ??_C@_0N@NAPNJBLE@glUniform3ui@ 00000001400a8250     sfml-graphics-s:GLExtensions.obj
 0002:00004260       ??_C@_0O@LFLJFEHE@glUniform3uiv@ 00000001400a8260     sfml-graphics-s:GLExtensions.obj
 0002:00004270       ??_C@_0N@ENCKKJAN@glUniform4ui@ 00000001400a8270     sfml-graphics-s:GLExtensions.obj
 0002:00004280       ??_C@_0O@HJJIIGE@glUniform4uiv@ 00000001400a8280     sfml-graphics-s:GLExtensions.obj
 0002:00004290       ??_C@_0BC@CDIIMMAL@glVertexAttribI1i@ 00000001400a8290     sfml-graphics-s:GLExtensions.obj
 0002:000042a8       ??_C@_0BD@OOJEIPDE@glVertexAttribI1iv@ 00000001400a82a8     sfml-graphics-s:GLExtensions.obj
 0002:000042c0       ??_C@_0BD@DGPCNLLO@glVertexAttribI1ui@ 00000001400a82c0     sfml-graphics-s:GLExtensions.obj
 0002:000042d8       ??_C@_0BE@FFIKLCCA@glVertexAttribI1uiv@ 00000001400a82d8     sfml-graphics-s:GLExtensions.obj
 0002:000042f0       ??_C@_0BC@CBMOHCFC@glVertexAttribI2i@ 00000001400a82f0     sfml-graphics-s:GLExtensions.obj
 0002:00004308       ??_C@_0BD@PMCBCANK@glVertexAttribI2iv@ 00000001400a8308     sfml-graphics-s:GLExtensions.obj
 0002:00004320       ??_C@_0BD@CEEHHEFA@glVertexAttribI2ui@ 00000001400a8320     sfml-graphics-s:GLExtensions.obj
 0002:00004338       ??_C@_0BE@BCCKMIPA@glVertexAttribI2uiv@ 00000001400a8338     sfml-graphics-s:GLExtensions.obj
 0002:00004350       ??_C@_0BC@CAAMBIGF@glVertexAttribI3i@ 00000001400a8350     sfml-graphics-s:GLExtensions.obj
 0002:00004368       ??_C@_0BD@EEJNEHLP@glVertexAttribI3iv@ 00000001400a8368     sfml-graphics-s:GLExtensions.obj
 0002:00004380       ??_C@_0BD@JMPLBDDF@glVertexAttribI3ui@ 00000001400a8380     sfml-graphics-s:GLExtensions.obj
 0002:00004398       ??_C@_0BE@CPEKOBEA@glVertexAttribI3uiv@ 00000001400a8398     sfml-graphics-s:GLExtensions.obj
 0002:000043b0       ??_C@_0BD@NFBPJAOH@glVertexAttribI4bv@ 00000001400a83b0     sfml-graphics-s:GLExtensions.obj
 0002:000043c8       ??_C@_0BC@CFEDAOOA@glVertexAttribI4i@ 00000001400a83c8     sfml-graphics-s:GLExtensions.obj
 0002:000043e0       ??_C@_0BD@NJEKHPAG@glVertexAttribI4iv@ 00000001400a83e0     sfml-graphics-s:GLExtensions.obj
 0002:000043f8       ??_C@_0BD@MIPLFJKA@glVertexAttribI4sv@ 00000001400a83f8     sfml-graphics-s:GLExtensions.obj
 0002:00004410       ??_C@_0BE@JBDPNCLB@glVertexAttribI4ubv@ 00000001400a8410     sfml-graphics-s:GLExtensions.obj
 0002:00004428       ??_C@_0BD@BCMCLIM@glVertexAttribI4ui@ 00000001400a8428     sfml-graphics-s:GLExtensions.obj
 0002:00004440       ??_C@_0BE@JNGKDNFA@glVertexAttribI4uiv@ 00000001400a8440     sfml-graphics-s:GLExtensions.obj
 0002:00004458       ??_C@_0BE@IMNLBLPG@glVertexAttribI4usv@ 00000001400a8458     sfml-graphics-s:GLExtensions.obj
 0002:00004470       ??_C@_0BH@NLOEHKCD@glVertexAttribIPointer@ 00000001400a8470     sfml-graphics-s:GLExtensions.obj
 0002:00004488       ??_C@_0BE@EPKABDOG@glCopyBufferSubData@ 00000001400a8488     sfml-graphics-s:GLExtensions.obj
 0002:000044a0       ??_C@_0BG@HIOFINAN@glDrawArraysInstanced@ 00000001400a84a0     sfml-graphics-s:GLExtensions.obj
 0002:000044b8       ??_C@_0BI@CGJENFBH@glDrawElementsInstanced@ 00000001400a84b8     sfml-graphics-s:GLExtensions.obj
 0002:000044d0       ??_C@_0BM@KEMCJPAJ@glGetActiveUniformBlockName@ 00000001400a84d0     sfml-graphics-s:GLExtensions.obj
 0002:000044f0       ??_C@_0BK@DMHOPJGL@glGetActiveUniformBlockiv@ 00000001400a84f0     sfml-graphics-s:GLExtensions.obj
 0002:00004510       ??_C@_0BH@EGGFHKJJ@glGetActiveUniformName@ 00000001400a8510     sfml-graphics-s:GLExtensions.obj
 0002:00004528       ??_C@_0BG@JEHIMPCG@glGetActiveUniformsiv@ 00000001400a8528     sfml-graphics-s:GLExtensions.obj
 0002:00004540       ??_C@_0BH@CBDIMHHE@glGetUniformBlockIndex@ 00000001400a8540     sfml-graphics-s:GLExtensions.obj
 0002:00004558       ??_C@_0BE@MDPMIDEE@glGetUniformIndices@ 00000001400a8558     sfml-graphics-s:GLExtensions.obj
 0002:00004570       ??_C@_0BI@LJDLNGAF@glPrimitiveRestartIndex@ 00000001400a8570     sfml-graphics-s:GLExtensions.obj
 0002:00004588       ??_C@_0M@IIMBBALL@glTexBuffer@ 00000001400a8588     sfml-graphics-s:GLExtensions.obj
 0002:00004598       ??_C@_0BG@BOLEKKCP@glUniformBlockBinding@ 00000001400a8598     sfml-graphics-s:GLExtensions.obj
 0002:000045b0       ??_C@_0BB@KDMPGJAC@glClientWaitSync@ 00000001400a85b0     sfml-graphics-s:GLExtensions.obj
 0002:000045c8       ??_C@_0N@PIFDNDFG@glDeleteSync@ 00000001400a85c8     sfml-graphics-s:GLExtensions.obj
 0002:000045d8       ??_C@_0BJ@LFMMIAHA@glDrawElementsBaseVertex@ 00000001400a85d8     sfml-graphics-s:GLExtensions.obj
 0002:000045f8       ??_C@_0CC@KLOIIKNA@glDrawElementsInstancedBaseVert@ 00000001400a85f8     sfml-graphics-s:GLExtensions.obj
 0002:00004620       ??_C@_0BO@KBDDBILP@glDrawRangeElementsBaseVertex@ 00000001400a8620     sfml-graphics-s:GLExtensions.obj
 0002:00004640       ??_C@_0M@EFGFPFLP@glFenceSync@ 00000001400a8640     sfml-graphics-s:GLExtensions.obj
 0002:00004650       ??_C@_0BF@ENLMLILA@glFramebufferTexture@ 00000001400a8650     sfml-graphics-s:GLExtensions.obj
 0002:00004668       ??_C@_0BJ@KKBIDGPP@glGetBufferParameteri64v@ 00000001400a8668     sfml-graphics-s:GLExtensions.obj
 0002:00004688       ??_C@_0BC@KOJILIEC@glGetInteger64i_v@ 00000001400a8688     sfml-graphics-s:GLExtensions.obj
 0002:000046a0       ??_C@_0BA@INMBOHGL@glGetInteger64v@ 00000001400a86a0     sfml-graphics-s:GLExtensions.obj
 0002:000046b0       ??_C@_0BD@DHLIMGN@glGetMultisamplefv@ 00000001400a86b0     sfml-graphics-s:GLExtensions.obj
 0002:000046c8       ??_C@_0M@MPEEOPIN@glGetSynciv@ 00000001400a86c8     sfml-graphics-s:GLExtensions.obj
 0002:000046d8       ??_C@_08JPIIHJEO@glIsSync@ 00000001400a86d8     sfml-graphics-s:GLExtensions.obj
 0002:000046e8       ??_C@_0BO@NAPFJEEK@glMultiDrawElementsBaseVertex@ 00000001400a86e8     sfml-graphics-s:GLExtensions.obj
 0002:00004708       ??_C@_0BC@ECOAPEBI@glProvokingVertex@ 00000001400a8708     sfml-graphics-s:GLExtensions.obj
 0002:00004720       ??_C@_0O@JNHBCHMB@glSampleMaski@ 00000001400a8720     sfml-graphics-s:GLExtensions.obj
 0002:00004730       ??_C@_0BI@FHDFLFA@glTexImage2DMultisample@ 00000001400a8730     sfml-graphics-s:GLExtensions.obj
 0002:00004748       ??_C@_0BI@JIHMLKCG@glTexImage3DMultisample@ 00000001400a8748     sfml-graphics-s:GLExtensions.obj
 0002:00004760       ??_C@_0L@MHLOGHGO@glWaitSync@ 00000001400a8760     sfml-graphics-s:GLExtensions.obj
 0002:00004770       ??_C@_0BO@POJBGCGG@glBindFragDataLocationIndexed@ 00000001400a8770     sfml-graphics-s:GLExtensions.obj
 0002:00004790       ??_C@_0O@PDEILAPG@glBindSampler@ 00000001400a8790     sfml-graphics-s:GLExtensions.obj
 0002:000047a0       ??_C@_0M@PEKBINNN@glColorP3ui@ 00000001400a87a0     sfml-graphics-s:GLExtensions.obj
 0002:000047b0       ??_C@_0N@IBPDNBJE@glColorP3uiv@ 00000001400a87b0     sfml-graphics-s:GLExtensions.obj
 0002:000047c0       ??_C@_0M@GJHGLFGE@glColorP4ui@ 00000001400a87c0     sfml-graphics-s:GLExtensions.obj
 0002:000047d0       ??_C@_0N@DDNDANIE@glColorP4uiv@ 00000001400a87d0     sfml-graphics-s:GLExtensions.obj
 0002:000047e0       ??_C@_0BB@FLPAOEOO@glDeleteSamplers@ 00000001400a87e0     sfml-graphics-s:GLExtensions.obj
 0002:000047f8       ??_C@_0O@EMMLGGLG@glGenSamplers@ 00000001400a87f8     sfml-graphics-s:GLExtensions.obj
 0002:00004808       ??_C@_0BD@COCJFEOH@glGetFragDataIndex@ 00000001400a8808     sfml-graphics-s:GLExtensions.obj
 0002:00004820       ??_C@_0BF@JDAPDEPE@glGetQueryObjecti64v@ 00000001400a8820     sfml-graphics-s:GLExtensions.obj
 0002:00004838       ??_C@_0BG@NEGGOMJO@glGetQueryObjectui64v@ 00000001400a8838     sfml-graphics-s:GLExtensions.obj
 0002:00004850       ??_C@_0BJ@KOMJDLDN@glGetSamplerParameterIiv@ 00000001400a8850     sfml-graphics-s:GLExtensions.obj
 0002:00004870       ??_C@_0BK@CMBGFHDA@glGetSamplerParameterIuiv@ 00000001400a8870     sfml-graphics-s:GLExtensions.obj
 0002:00004890       ??_C@_0BI@FPHMKMKC@glGetSamplerParameterfv@ 00000001400a8890     sfml-graphics-s:GLExtensions.obj
 0002:000048a8       ??_C@_0BI@FECAOLJP@glGetSamplerParameteriv@ 00000001400a88a8     sfml-graphics-s:GLExtensions.obj
 0002:000048c0       ??_C@_0M@LAJKHOKJ@glIsSampler@ 00000001400a88c0     sfml-graphics-s:GLExtensions.obj
 0002:000048d0       ??_C@_0BE@OAHHKHKG@glMultiTexCoordP1ui@ 00000001400a88d0     sfml-graphics-s:GLExtensions.obj
 0002:000048e8       ??_C@_0BF@EGDAKPAK@glMultiTexCoordP1uiv@ 00000001400a88e8     sfml-graphics-s:GLExtensions.obj
 0002:00004900       ??_C@_0BE@PCMCAIEI@glMultiTexCoordP2ui@ 00000001400a8900     sfml-graphics-s:GLExtensions.obj
 0002:00004918       ??_C@_0BF@BJANFNK@glMultiTexCoordP2uiv@ 00000001400a8918     sfml-graphics-s:GLExtensions.obj
 0002:00004930       ??_C@_0BE@EKHOGPCN@glMultiTexCoordP3ui@ 00000001400a8930     sfml-graphics-s:GLExtensions.obj
 0002:00004948       ??_C@_0BF@DMPAPMGK@glMultiTexCoordP3uiv@ 00000001400a8948     sfml-graphics-s:GLExtensions.obj
 0002:00004960       ??_C@_0BE@NHKJFHJE@glMultiTexCoordP4ui@ 00000001400a8960     sfml-graphics-s:GLExtensions.obj
 0002:00004978       ??_C@_0BF@IONACAHK@glMultiTexCoordP4uiv@ 00000001400a8978     sfml-graphics-s:GLExtensions.obj
 0002:00004990       ??_C@_0N@PBEFBNHO@glNormalP3ui@ 00000001400a8990     sfml-graphics-s:GLExtensions.obj
 0002:000049a0       ??_C@_0O@MOCJMHFG@glNormalP3uiv@ 00000001400a89a0     sfml-graphics-s:GLExtensions.obj
 0002:000049b0       ??_C@_0P@KALICDIM@glQueryCounter@ 00000001400a89b0     sfml-graphics-s:GLExtensions.obj
 0002:000049c0       ??_C@_0BG@HKEIFIHF@glSamplerParameterIiv@ 00000001400a89c0     sfml-graphics-s:GLExtensions.obj
 0002:000049d8       ??_C@_0BH@FEMFBPPB@glSamplerParameterIuiv@ 00000001400a89d8     sfml-graphics-s:GLExtensions.obj
 0002:000049f0       ??_C@_0BE@CGLJNDFB@glSamplerParameterf@ 00000001400a89f0     sfml-graphics-s:GLExtensions.obj
 0002:00004a08       ??_C@_0BF@GFCPAGMB@glSamplerParameterfv@ 00000001400a8a08     sfml-graphics-s:GLExtensions.obj
 0002:00004a20       ??_C@_0BE@KBCBMPJO@glSamplerParameteri@ 00000001400a8a20     sfml-graphics-s:GLExtensions.obj
 0002:00004a38       ??_C@_0BF@GOHDEBPM@glSamplerParameteriv@ 00000001400a8a38     sfml-graphics-s:GLExtensions.obj
 0002:00004a50       ??_C@_0BF@PDDGBPKP@glSecondaryColorP3ui@ 00000001400a8a50     sfml-graphics-s:GLExtensions.obj
 0002:00004a68       ??_C@_0BG@DPPPFGBG@glSecondaryColorP3uiv@ 00000001400a8a68     sfml-graphics-s:GLExtensions.obj
 0002:00004a80       ??_C@_0P@OLJHLLHJ@glTexCoordP1ui@ 00000001400a8a80     sfml-graphics-s:GLExtensions.obj
 0002:00004a90       ??_C@_0BA@FAFHIAFD@glTexCoordP1uiv@ 00000001400a8a90     sfml-graphics-s:GLExtensions.obj
 0002:00004aa0       ??_C@_0P@PJCCBEJH@glTexCoordP2ui@ 00000001400a8aa0     sfml-graphics-s:GLExtensions.obj
 0002:00004ab0       ??_C@_0BA@BHPHPKID@glTexCoordP2uiv@ 00000001400a8ab0     sfml-graphics-s:GLExtensions.obj
 0002:00004ac0       ??_C@_0P@EBJOHDPC@glTexCoordP3ui@ 00000001400a8ac0     sfml-graphics-s:GLExtensions.obj
 0002:00004ad0       ??_C@_0BA@CKJHNDDD@glTexCoordP3uiv@ 00000001400a8ad0     sfml-graphics-s:GLExtensions.obj
 0002:00004ae0       ??_C@_0P@NMEJELEL@glTexCoordP4ui@ 00000001400a8ae0     sfml-graphics-s:GLExtensions.obj
 0002:00004af0       ??_C@_0BA@JILHAPCD@glTexCoordP4uiv@ 00000001400a8af0     sfml-graphics-s:GLExtensions.obj
 0002:00004b00       ??_C@_0BG@NEBMAEHM@glVertexAttribDivisor@ 00000001400a8b00     sfml-graphics-s:GLExtensions.obj
 0002:00004b18       ??_C@_0BD@FLACCOEN@glVertexAttribP1ui@ 00000001400a8b18     sfml-graphics-s:GLExtensions.obj
 0002:00004b30       ??_C@_0BE@HBFDOBHD@glVertexAttribP1uiv@ 00000001400a8b30     sfml-graphics-s:GLExtensions.obj
 0002:00004b48       ??_C@_0BD@EJLHIBKD@glVertexAttribP2ui@ 00000001400a8b48     sfml-graphics-s:GLExtensions.obj
 0002:00004b60       ??_C@_0BE@DGPDJLKD@glVertexAttribP2uiv@ 00000001400a8b60     sfml-graphics-s:GLExtensions.obj
 0002:00004b78       ??_C@_0BD@PBALOGMG@glVertexAttribP3ui@ 00000001400a8b78     sfml-graphics-s:GLExtensions.obj
 0002:00004b90       ??_C@_0BE@LJDLCBD@glVertexAttribP3uiv@ 00000001400a8b90     sfml-graphics-s:GLExtensions.obj
 0002:00004ba8       ??_C@_0BD@GMNMNOHP@glVertexAttribP4ui@ 00000001400a8ba8     sfml-graphics-s:GLExtensions.obj
 0002:00004bc0       ??_C@_0BE@LJLDGOAD@glVertexAttribP4uiv@ 00000001400a8bc0     sfml-graphics-s:GLExtensions.obj
 0002:00004bd8       ??_C@_0N@EFBCIBMC@glVertexP2ui@ 00000001400a8bd8     sfml-graphics-s:GLExtensions.obj
 0002:00004be8       ??_C@_0O@MEKGPGN@glVertexP2uiv@ 00000001400a8be8     sfml-graphics-s:GLExtensions.obj
 0002:00004bf8       ??_C@_0N@PNKOOGKH@glVertexP3ui@ 00000001400a8bf8     sfml-graphics-s:GLExtensions.obj
 0002:00004c08       ??_C@_0O@DBCKEGNN@glVertexP3uiv@ 00000001400a8c08     sfml-graphics-s:GLExtensions.obj
 0002:00004c18       ??_C@_0N@GAHJNOBO@glVertexP4ui@ 00000001400a8c18     sfml-graphics-s:GLExtensions.obj
 0002:00004c28       ??_C@_0O@IDAKJKMN@glVertexP4uiv@ 00000001400a8c28     sfml-graphics-s:GLExtensions.obj
 0002:00004c38       ??_C@_0BE@BDKPJDEE@glBeginQueryIndexed@ 00000001400a8c38     sfml-graphics-s:GLExtensions.obj
 0002:00004c50       ??_C@_0BI@BPJKLMIG@glBindTransformFeedback@ 00000001400a8c50     sfml-graphics-s:GLExtensions.obj
 0002:00004c68       ??_C@_0BJ@FNMBAGAC@glBlendEquationSeparatei@ 00000001400a8c68     sfml-graphics-s:GLExtensions.obj
 0002:00004c88       ??_C@_0BB@MKHLNEOM@glBlendEquationi@ 00000001400a8c88     sfml-graphics-s:GLExtensions.obj
 0002:00004ca0       ??_C@_0BF@PDDGKNBJ@glBlendFuncSeparatei@ 00000001400a8ca0     sfml-graphics-s:GLExtensions.obj
 0002:00004cb8       ??_C@_0N@IKKELNNP@glBlendFunci@ 00000001400a8cb8     sfml-graphics-s:GLExtensions.obj
 0002:00004cc8       ??_C@_0BL@DIGEBFBK@glDeleteTransformFeedbacks@ 00000001400a8cc8     sfml-graphics-s:GLExtensions.obj
 0002:00004ce8       ??_C@_0BF@BGDCPAEP@glDrawArraysIndirect@ 00000001400a8ce8     sfml-graphics-s:GLExtensions.obj
 0002:00004d00       ??_C@_0BH@LJJDOEDH@glDrawElementsIndirect@ 00000001400a8d00     sfml-graphics-s:GLExtensions.obj
 0002:00004d18       ??_C@_0BI@LEOILCPN@glDrawTransformFeedback@ 00000001400a8d18     sfml-graphics-s:GLExtensions.obj
 0002:00004d30       ??_C@_0BO@IGLFNCDG@glDrawTransformFeedbackStream@ 00000001400a8d30     sfml-graphics-s:GLExtensions.obj
 0002:00004d50       ??_C@_0BC@DPMHMNME@glEndQueryIndexed@ 00000001400a8d50     sfml-graphics-s:GLExtensions.obj
 0002:00004d68       ??_C@_0BI@KANKBGAE@glGenTransformFeedbacks@ 00000001400a8d68     sfml-graphics-s:GLExtensions.obj
 0002:00004d80       ??_C@_0BK@JPHEACLL@glGetActiveSubroutineName@ 00000001400a8d80     sfml-graphics-s:GLExtensions.obj
 0002:00004da0       ??_C@_0CB@KCFFPCGJ@glGetActiveSubroutineUniformNam@ 00000001400a8da0     sfml-graphics-s:GLExtensions.obj
 0002:00004dc8       ??_C@_0BP@FAPFAJFP@glGetActiveSubroutineUniformiv@ 00000001400a8dc8     sfml-graphics-s:GLExtensions.obj
 0002:00004de8       ??_C@_0BE@LOKJCDFH@glGetProgramStageiv@ 00000001400a8de8     sfml-graphics-s:GLExtensions.obj
 0002:00004e00       ??_C@_0BE@CCFJPMFI@glGetQueryIndexediv@ 00000001400a8e00     sfml-graphics-s:GLExtensions.obj
 0002:00004e18       ??_C@_0BF@ONDIGCJG@glGetSubroutineIndex@ 00000001400a8e18     sfml-graphics-s:GLExtensions.obj
 0002:00004e30       ??_C@_0BP@IBIPLDOA@glGetSubroutineUniformLocation@ 00000001400a8e30     sfml-graphics-s:GLExtensions.obj
 0002:00004e50       ??_C@_0BK@BLMOFAGJ@glGetUniformSubroutineuiv@ 00000001400a8e50     sfml-graphics-s:GLExtensions.obj
 0002:00004e70       ??_C@_0P@NGEMHI@glGetUniformdv@ 00000001400a8e70     sfml-graphics-s:GLExtensions.obj
 0002:00004e80       ??_C@_0BG@BGFLKHBM@glIsTransformFeedback@ 00000001400a8e80     sfml-graphics-s:GLExtensions.obj
 0002:00004e98       ??_C@_0BD@EDGCEBP@glMinSampleShading@ 00000001400a8e98     sfml-graphics-s:GLExtensions.obj
 0002:00004eb0       ??_C@_0BD@LJKINJKN@glPatchParameterfv@ 00000001400a8eb0     sfml-graphics-s:GLExtensions.obj
 0002:00004ec8       ??_C@_0BC@PAPDGMLA@glPatchParameteri@ 00000001400a8ec8     sfml-graphics-s:GLExtensions.obj
 0002:00004ee0       ??_C@_0BJ@FFNLKBCB@glPauseTransformFeedback@ 00000001400a8ee0     sfml-graphics-s:GLExtensions.obj
 0002:00004f00       ??_C@_0BK@JMHONFHF@glResumeTransformFeedback@ 00000001400a8f00     sfml-graphics-s:GLExtensions.obj
 0002:00004f20       ??_C@_0M@PJLEGNGH@glUniform1d@ 00000001400a8f20     sfml-graphics-s:GLExtensions.obj
 0002:00004f30       ??_C@_0N@KKEKJOOG@glUniform1dv@ 00000001400a8f30     sfml-graphics-s:GLExtensions.obj
 0002:00004f40       ??_C@_0M@PLPCNDDO@glUniform2d@ 00000001400a8f40     sfml-graphics-s:GLExtensions.obj
 0002:00004f50       ??_C@_0N@LIPPDBAI@glUniform2dv@ 00000001400a8f50     sfml-graphics-s:GLExtensions.obj
 0002:00004f60       ??_C@_0M@PKDALJAJ@glUniform3d@ 00000001400a8f60     sfml-graphics-s:GLExtensions.obj
 0002:00004f70       ??_C@_0N@EDFGGN@glUniform3dv@ 00000001400a8f70     sfml-graphics-s:GLExtensions.obj
 0002:00004f80       ??_C@_0M@PPHPKPIM@glUniform4d@ 00000001400a8f80     sfml-graphics-s:GLExtensions.obj
 0002:00004f90       ??_C@_0N@JNJEGONE@glUniform4dv@ 00000001400a8f90     sfml-graphics-s:GLExtensions.obj
 0002:00004fa0       ??_C@_0BD@JLJNJPBN@glUniformMatrix2dv@ 00000001400a8fa0     sfml-graphics-s:GLExtensions.obj
 0002:00004fb8       ??_C@_0BF@KALNBGFE@glUniformMatrix2x3dv@ 00000001400a8fb8     sfml-graphics-s:GLExtensions.obj
 0002:00004fd0       ??_C@_0BF@DNGKCOON@glUniformMatrix2x4dv@ 00000001400a8fd0     sfml-graphics-s:GLExtensions.obj
 0002:00004fe8       ??_C@_0BD@CDCBPIHI@glUniformMatrix3dv@ 00000001400a8fe8     sfml-graphics-s:GLExtensions.obj
 0002:00005000       ??_C@_0BF@NDFNKCJE@glUniformMatrix3x2dv@ 00000001400a9000     sfml-graphics-s:GLExtensions.obj
 0002:00005018       ??_C@_0BF@PGDGPNEI@glUniformMatrix3x4dv@ 00000001400a9018     sfml-graphics-s:GLExtensions.obj
 0002:00005030       ??_C@_0BD@LOPGMAMB@glUniformMatrix4dv@ 00000001400a9030     sfml-graphics-s:GLExtensions.obj
 0002:00005048       ??_C@_0BF@MOFIJCCM@glUniformMatrix4x2dv@ 00000001400a9048     sfml-graphics-s:GLExtensions.obj
 0002:00005060       ??_C@_0BF@HGOEPFEJ@glUniformMatrix4x3dv@ 00000001400a9060     sfml-graphics-s:GLExtensions.obj
 0002:00005078       ??_C@_0BI@CDPOBBHI@glUniformSubroutinesuiv@ 00000001400a9078     sfml-graphics-s:GLExtensions.obj
 0002:00005090       ??_C@_0BG@IAIOGMEB@glActiveShaderProgram@ 00000001400a9090     sfml-graphics-s:GLExtensions.obj
 0002:000050a8       ??_C@_0BG@GLPOKNCG@glBindProgramPipeline@ 00000001400a90a8     sfml-graphics-s:GLExtensions.obj
 0002:000050c0       ??_C@_0O@FMBMCDIL@glClearDepthf@ 00000001400a90c0     sfml-graphics-s:GLExtensions.obj
 0002:000050d0       ??_C@_0BH@BOJGDFJN@glCreateShaderProgramv@ 00000001400a90d0     sfml-graphics-s:GLExtensions.obj
 0002:000050e8       ??_C@_0BJ@CHBGABHE@glDeleteProgramPipelines@ 00000001400a90e8     sfml-graphics-s:GLExtensions.obj
 0002:00005108       ??_C@_0BD@JLCIOMKN@glDepthRangeArrayv@ 00000001400a9108     sfml-graphics-s:GLExtensions.obj
 0002:00005120       ??_C@_0BE@FMCFIJBP@glDepthRangeIndexed@ 00000001400a9120     sfml-graphics-s:GLExtensions.obj
 0002:00005138       ??_C@_0O@JDFJDNND@glDepthRangef@ 00000001400a9138     sfml-graphics-s:GLExtensions.obj
 0002:00005148       ??_C@_0BG@CCBKOCA@glGenProgramPipelines@ 00000001400a9148     sfml-graphics-s:GLExtensions.obj
 0002:00005160       ??_C@_0P@PDJCBGIA@glGetDoublei_v@ 00000001400a9160     sfml-graphics-s:GLExtensions.obj
 0002:00005170       ??_C@_0O@JKEOHGC@glGetFloati_v@ 00000001400a9170     sfml-graphics-s:GLExtensions.obj
 0002:00005180       ??_C@_0BD@JBCEHKON@glGetProgramBinary@ 00000001400a9180     sfml-graphics-s:GLExtensions.obj
 0002:00005198       ??_C@_0BM@BFFCFFFG@glGetProgramPipelineInfoLog@ 00000001400a9198     sfml-graphics-s:GLExtensions.obj
 0002:000051b8       ??_C@_0BH@DNOPNJMO@glGetProgramPipelineiv@ 00000001400a91b8     sfml-graphics-s:GLExtensions.obj
 0002:000051d0       ??_C@_0BL@MLAOOHPD@glGetShaderPrecisionFormat@ 00000001400a91d0     sfml-graphics-s:GLExtensions.obj
 0002:000051f0       ??_C@_0BF@JADLCNLO@glGetVertexAttribLdv@ 00000001400a91f0     sfml-graphics-s:GLExtensions.obj
 0002:00005208       ??_C@_0BE@DLHPDHCH@glIsProgramPipeline@ 00000001400a9208     sfml-graphics-s:GLExtensions.obj
 0002:00005220       ??_C@_0BA@MIIDHOO@glProgramBinary@ 00000001400a9220     sfml-graphics-s:GLExtensions.obj
 0002:00005230       ??_C@_0BE@EELDBEME@glProgramParameteri@ 00000001400a9230     sfml-graphics-s:GLExtensions.obj
 0002:00005248       ??_C@_0BD@JLIFLIMB@glProgramUniform1d@ 00000001400a9248     sfml-graphics-s:GLExtensions.obj
 0002:00005260       ??_C@_0BE@JFJNKJOO@glProgramUniform1dv@ 00000001400a9260     sfml-graphics-s:GLExtensions.obj
 0002:00005278       ??_C@_0BD@KJLDNKED@glProgramUniform1f@ 00000001400a9278     sfml-graphics-s:GLExtensions.obj
 0002:00005290       ??_C@_0BE@JGBJHNIA@glProgramUniform1fv@ 00000001400a9290     sfml-graphics-s:GLExtensions.obj
 0002:000052a8       ??_C@_0BD@COCLMGIM@glProgramUniform1i@ 00000001400a92a8     sfml-graphics-s:GLExtensions.obj
 0002:000052c0       ??_C@_0BE@JNEFDKLN@glProgramUniform1iv@ 00000001400a92c0     sfml-graphics-s:GLExtensions.obj
 0002:000052d8       ??_C@_0BE@EFCDGODH@glProgramUniform1ui@ 00000001400a92d8     sfml-graphics-s:GLExtensions.obj
 0002:000052f0       ??_C@_0BF@MBJNFIBB@glProgramUniform1uiv@ 00000001400a92f0     sfml-graphics-s:GLExtensions.obj
 0002:00005308       ??_C@_0BD@JJMDAGJI@glProgramUniform2d@ 00000001400a9308     sfml-graphics-s:GLExtensions.obj
 0002:00005320       ??_C@_0BE@IHCIAGAA@glProgramUniform2dv@ 00000001400a9320     sfml-graphics-s:GLExtensions.obj
 0002:00005338       ??_C@_0BD@KLPFGEBK@glProgramUniform2f@ 00000001400a9338     sfml-graphics-s:GLExtensions.obj
 0002:00005350       ??_C@_0BE@IEKMNCGO@glProgramUniform2fv@ 00000001400a9350     sfml-graphics-s:GLExtensions.obj
 0002:00005368       ??_C@_0BD@CMGNHINF@glProgramUniform2i@ 00000001400a9368     sfml-graphics-s:GLExtensions.obj
 0002:00005380       ??_C@_0BE@IPPAJFFD@glProgramUniform2iv@ 00000001400a9380     sfml-graphics-s:GLExtensions.obj
 0002:00005398       ??_C@_0BE@FHJGMBNJ@glProgramUniform2ui@ 00000001400a9398     sfml-graphics-s:GLExtensions.obj
 0002:000053b0       ??_C@_0BF@IGDNCCMB@glProgramUniform2uiv@ 00000001400a93b0     sfml-graphics-s:GLExtensions.obj
 0002:000053c8       ??_C@_0BD@JIABGMKP@glProgramUniform3d@ 00000001400a93c8     sfml-graphics-s:GLExtensions.obj
 0002:000053e0       ??_C@_0BE@DPJEGBGF@glProgramUniform3dv@ 00000001400a93e0     sfml-graphics-s:GLExtensions.obj
 0002:000053f8       ??_C@_0BD@KKDHAOCN@glProgramUniform3f@ 00000001400a93f8     sfml-graphics-s:GLExtensions.obj
 0002:00005410       ??_C@_0BE@DMBALFAL@glProgramUniform3fv@ 00000001400a9410     sfml-graphics-s:GLExtensions.obj
 0002:00005428       ??_C@_0BD@CNKPBCOC@glProgramUniform3i@ 00000001400a9428     sfml-graphics-s:GLExtensions.obj
 0002:00005440       ??_C@_0BE@DHEMPCDG@glProgramUniform3iv@ 00000001400a9440     sfml-graphics-s:GLExtensions.obj
 0002:00005458       ??_C@_0BE@OPCKKGLM@glProgramUniform3ui@ 00000001400a9458     sfml-graphics-s:GLExtensions.obj
 0002:00005470       ??_C@_0BF@LLFNALHB@glProgramUniform3uiv@ 00000001400a9470     sfml-graphics-s:GLExtensions.obj
 0002:00005488       ??_C@_0BD@JNEOHKCK@glProgramUniform4d@ 00000001400a9488     sfml-graphics-s:GLExtensions.obj
 0002:000054a0       ??_C@_0BE@KCEDFJNM@glProgramUniform4dv@ 00000001400a94a0     sfml-graphics-s:GLExtensions.obj
 0002:000054b8       ??_C@_0BD@KPHIBIKI@glProgramUniform4f@ 00000001400a94b8     sfml-graphics-s:GLExtensions.obj
 0002:000054d0       ??_C@_0BE@KBMHINLC@glProgramUniform4fv@ 00000001400a94d0     sfml-graphics-s:GLExtensions.obj
 0002:000054e8       ??_C@_0BD@CIOAAEGH@glProgramUniform4i@ 00000001400a94e8     sfml-graphics-s:GLExtensions.obj
 0002:00005500       ??_C@_0BE@KKJLMKIP@glProgramUniform4iv@ 00000001400a9500     sfml-graphics-s:GLExtensions.obj
 0002:00005518       ??_C@_0BE@HCPNJOAF@glProgramUniform4ui@ 00000001400a9518     sfml-graphics-s:GLExtensions.obj
 0002:00005530       ??_C@_0BF@JHNNHGB@glProgramUniform4uiv@ 00000001400a9530     sfml-graphics-s:GLExtensions.obj
 0002:00005548       ??_C@_0BK@PAHLFKGL@glProgramUniformMatrix2dv@ 00000001400a9548     sfml-graphics-s:GLExtensions.obj
 0002:00005568       ??_C@_0BK@PDPPIOAF@glProgramUniformMatrix2fv@ 00000001400a9568     sfml-graphics-s:GLExtensions.obj
 0002:00005588       ??_C@_0BM@DCNGJFPN@glProgramUniformMatrix2x3dv@ 00000001400a9588     sfml-graphics-s:GLExtensions.obj
 0002:000055a8       ??_C@_0BM@DBFCEBJD@glProgramUniformMatrix2x3fv@ 00000001400a95a8     sfml-graphics-s:GLExtensions.obj
 0002:000055c8       ??_C@_0BM@KPABKNEE@glProgramUniformMatrix2x4dv@ 00000001400a95c8     sfml-graphics-s:GLExtensions.obj
 0002:000055e8       ??_C@_0BM@KMIFHJCK@glProgramUniformMatrix2x4fv@ 00000001400a95e8     sfml-graphics-s:GLExtensions.obj
 0002:00005608       ??_C@_0BK@EIMHDNAO@glProgramUniformMatrix3dv@ 00000001400a9608     sfml-graphics-s:GLExtensions.obj
 0002:00005628       ??_C@_0BK@ELEDOJGA@glProgramUniformMatrix3fv@ 00000001400a9628     sfml-graphics-s:GLExtensions.obj
 0002:00005648       ??_C@_0BM@EBDGCBDN@glProgramUniformMatrix3x2dv@ 00000001400a9648     sfml-graphics-s:GLExtensions.obj
 0002:00005668       ??_C@_0BM@ECLCPFFD@glProgramUniformMatrix3x2fv@ 00000001400a9668     sfml-graphics-s:GLExtensions.obj
 0002:00005688       ??_C@_0BM@GEFNHOOB@glProgramUniformMatrix3x4dv@ 00000001400a9688     sfml-graphics-s:GLExtensions.obj
 0002:000056a8       ??_C@_0BM@GHNJKKIP@glProgramUniformMatrix3x4fv@ 00000001400a96a8     sfml-graphics-s:GLExtensions.obj
 0002:000056c8       ??_C@_0BK@NFBAAFLH@glProgramUniformMatrix4dv@ 00000001400a96c8     sfml-graphics-s:GLExtensions.obj
 0002:000056e8       ??_C@_0BK@NGJENBNJ@glProgramUniformMatrix4fv@ 00000001400a96e8     sfml-graphics-s:GLExtensions.obj
 0002:00005708       ??_C@_0BM@FMDDBBIF@glProgramUniformMatrix4x2dv@ 00000001400a9708     sfml-graphics-s:GLExtensions.obj
 0002:00005728       ??_C@_0BM@FPLHMFOL@glProgramUniformMatrix4x2fv@ 00000001400a9728     sfml-graphics-s:GLExtensions.obj
 0002:00005748       ??_C@_0BM@OEIPHGOA@glProgramUniformMatrix4x3dv@ 00000001400a9748     sfml-graphics-s:GLExtensions.obj
 0002:00005768       ??_C@_0BM@OHALKCIO@glProgramUniformMatrix4x3fv@ 00000001400a9768     sfml-graphics-s:GLExtensions.obj
 0002:00005788       ??_C@_0BI@HGKABJPJ@glReleaseShaderCompiler@ 00000001400a9788     sfml-graphics-s:GLExtensions.obj
 0002:000057a0       ??_C@_0BA@BMNFINIA@glScissorArrayv@ 00000001400a97a0     sfml-graphics-s:GLExtensions.obj
 0002:000057b0       ??_C@_0BB@BJHNCIAL@glScissorIndexed@ 00000001400a97b0     sfml-graphics-s:GLExtensions.obj
 0002:000057c8       ??_C@_0BC@OOKOHKNA@glScissorIndexedv@ 00000001400a97c8     sfml-graphics-s:GLExtensions.obj
 0002:000057e0       ??_C@_0P@IMINELFB@glShaderBinary@ 00000001400a97e0     sfml-graphics-s:GLExtensions.obj
 0002:000057f0       ??_C@_0BD@CADKHDMH@glUseProgramStages@ 00000001400a97f0     sfml-graphics-s:GLExtensions.obj
 0002:00005808       ??_C@_0BK@HHHCKEGH@glValidateProgramPipeline@ 00000001400a9808     sfml-graphics-s:GLExtensions.obj
 0002:00005828       ??_C@_0BC@KBPIECHE@glVertexAttribL1d@ 00000001400a9828     sfml-graphics-s:GLExtensions.obj
 0002:00005840       ??_C@_0BD@COKMJDBH@glVertexAttribL1dv@ 00000001400a9840     sfml-graphics-s:GLExtensions.obj
 0002:00005858       ??_C@_0BC@KDLOPMCN@glVertexAttribL2d@ 00000001400a9858     sfml-graphics-s:GLExtensions.obj
 0002:00005870       ??_C@_0BD@DMBJDMPJ@glVertexAttribL2dv@ 00000001400a9870     sfml-graphics-s:GLExtensions.obj
 0002:00005888       ??_C@_0BC@KCHMJGBK@glVertexAttribL3d@ 00000001400a9888     sfml-graphics-s:GLExtensions.obj
 0002:000058a0       ??_C@_0BD@IEKFFLJM@glVertexAttribL3dv@ 00000001400a98a0     sfml-graphics-s:GLExtensions.obj
 0002:000058b8       ??_C@_0BC@KHDDIAJP@glVertexAttribL4d@ 00000001400a98b8     sfml-graphics-s:GLExtensions.obj
 0002:000058d0       ??_C@_0BD@BJHCGDCF@glVertexAttribL4dv@ 00000001400a98d0     sfml-graphics-s:GLExtensions.obj
 0002:000058e8       ??_C@_0BH@JBHDDPGM@glVertexAttribLPointer@ 00000001400a98e8     sfml-graphics-s:GLExtensions.obj
 0002:00005900       ??_C@_0BB@JIDIDPIB@glViewportArrayv@ 00000001400a9900     sfml-graphics-s:GLExtensions.obj
 0002:00005918       ??_C@_0BD@JIBIAPIN@glViewportIndexedf@ 00000001400a9918     sfml-graphics-s:GLExtensions.obj
 0002:00005930       ??_C@_0BE@OKPEDJOC@glViewportIndexedfv@ 00000001400a9930     sfml-graphics-s:GLExtensions.obj
 0002:00005948       ??_C@_0BD@GAKEPNGD@glBindImageTexture@ 00000001400a9948     sfml-graphics-s:GLExtensions.obj
 0002:00005960       ??_C@_0CC@FBJBJHCN@glDrawArraysInstancedBaseInstan@ 00000001400a9960     sfml-graphics-s:GLExtensions.obj
 0002:00005988       ??_C@_0CE@NGNINKJD@glDrawElementsInstancedBaseInst@ 00000001400a9988     sfml-graphics-s:GLExtensions.obj
 0002:000059b0       ??_C@_0CO@GCMNEAOA@glDrawElementsInstancedBaseVert@ 00000001400a99b0     sfml-graphics-s:GLExtensions.obj
 0002:000059e0       ??_C@_0CB@NDMLCEF@glDrawTransformFeedbackInstance@ 00000001400a99e0     sfml-graphics-s:GLExtensions.obj
 0002:00005a08       ??_C@_0CH@OMPFKBLK@glDrawTransformFeedbackStreamIn@ 00000001400a9a08     sfml-graphics-s:GLExtensions.obj
 0002:00005a30       ??_C@_0CB@CEHFMJFN@glGetActiveAtomicCounterBufferi@ 00000001400a9a30     sfml-graphics-s:GLExtensions.obj
 0002:00005a58       ??_C@_0BG@BAOCDJPF@glGetInternalformativ@ 00000001400a9a58     sfml-graphics-s:GLExtensions.obj
 0002:00005a70       ??_C@_0BA@HIHPNLBJ@glMemoryBarrier@ 00000001400a9a70     sfml-graphics-s:GLExtensions.obj
 0002:00005a80       ??_C@_0P@LCLGPEBO@glTexStorage1D@ 00000001400a9a80     sfml-graphics-s:GLExtensions.obj
 0002:00005a90       ??_C@_0P@LAPAEKEH@glTexStorage2D@ 00000001400a9a90     sfml-graphics-s:GLExtensions.obj
 0002:00005aa0       ??_C@_0P@LBDCCAHA@glTexStorage3D@ 00000001400a9aa0     sfml-graphics-s:GLExtensions.obj
 0002:00005ab0       ??_C@_0BD@FCGJAOHG@glBindVertexBuffer@ 00000001400a9ab0     sfml-graphics-s:GLExtensions.obj
 0002:00005ac8       ??_C@_0BC@FCMBBKMP@glClearBufferData@ 00000001400a9ac8     sfml-graphics-s:GLExtensions.obj
 0002:00005ae0       ??_C@_0BF@FDHIBCMD@glClearBufferSubData@ 00000001400a9ae0     sfml-graphics-s:GLExtensions.obj
 0002:00005af8       ??_C@_0BD@BNCHOBBL@glCopyImageSubData@ 00000001400a9af8     sfml-graphics-s:GLExtensions.obj
 0002:00005b10       ??_C@_0BH@IGFENJCI@glDebugMessageCallback@ 00000001400a9b10     sfml-graphics-s:GLExtensions.obj
 0002:00005b28       ??_C@_0BG@MNBDCEEP@glDebugMessageControl@ 00000001400a9b28     sfml-graphics-s:GLExtensions.obj
 0002:00005b40       ??_C@_0BF@DGOJNFDO@glDebugMessageInsert@ 00000001400a9b40     sfml-graphics-s:GLExtensions.obj
 0002:00005b58       ??_C@_0BC@DKKFFIGC@glDispatchCompute@ 00000001400a9b58     sfml-graphics-s:GLExtensions.obj
 0002:00005b70       ??_C@_0BK@EJMOGMMI@glDispatchComputeIndirect@ 00000001400a9b70     sfml-graphics-s:GLExtensions.obj
 0002:00005b90       ??_C@_0BI@MLACHGDK@glFramebufferParameteri@ 00000001400a9b90     sfml-graphics-s:GLExtensions.obj
 0002:00005ba8       ??_C@_0BF@FGBMJKND@glGetDebugMessageLog@ 00000001400a9ba8     sfml-graphics-s:GLExtensions.obj
 0002:00005bc0       ??_C@_0BM@BFEEFCMK@glGetFramebufferParameteriv@ 00000001400a9bc0     sfml-graphics-s:GLExtensions.obj
 0002:00005be0       ??_C@_0BI@PHNNEGBD@glGetInternalformati64v@ 00000001400a9be0     sfml-graphics-s:GLExtensions.obj
 0002:00005bf8       ??_C@_0BB@MOEDHKDB@glGetObjectLabel@ 00000001400a9bf8     sfml-graphics-s:GLExtensions.obj
 0002:00005c10       ??_C@_0BE@MIJFJOHM@glGetObjectPtrLabel@ 00000001400a9c10     sfml-graphics-s:GLExtensions.obj
 0002:00005c28       ??_C@_0BI@ICGPDPK@glGetProgramInterfaceiv@ 00000001400a9c28     sfml-graphics-s:GLExtensions.obj
 0002:00005c40       ??_C@_0BK@DBDCONKB@glGetProgramResourceIndex@ 00000001400a9c40     sfml-graphics-s:GLExtensions.obj
 0002:00005c60       ??_C@_0BN@BIJNENLC@glGetProgramResourceLocation@ 00000001400a9c60     sfml-graphics-s:GLExtensions.obj
 0002:00005c80       ??_C@_0CC@GHECGAIH@glGetProgramResourceLocationInd@ 00000001400a9c80     sfml-graphics-s:GLExtensions.obj
 0002:00005ca8       ??_C@_0BJ@OHCPEAGJ@glGetProgramResourceName@ 00000001400a9ca8     sfml-graphics-s:GLExtensions.obj
 0002:00005cc8       ??_C@_0BH@LEDFEPHI@glGetProgramResourceiv@ 00000001400a9cc8     sfml-graphics-s:GLExtensions.obj
 0002:00005ce0       ??_C@_0BH@OGIFIBHA@glInvalidateBufferData@ 00000001400a9ce0     sfml-graphics-s:GLExtensions.obj
 0002:00005cf8       ??_C@_0BK@HOHOHNAC@glInvalidateBufferSubData@ 00000001400a9cf8     sfml-graphics-s:GLExtensions.obj
 0002:00005d18       ??_C@_0BI@OAJPOHIP@glInvalidateFramebuffer@ 00000001400a9d18     sfml-graphics-s:GLExtensions.obj
 0002:00005d30       ??_C@_0BL@IHGLAPPE@glInvalidateSubFramebuffer@ 00000001400a9d30     sfml-graphics-s:GLExtensions.obj
 0002:00005d50       ??_C@_0BF@KHIECPKG@glInvalidateTexImage@ 00000001400a9d50     sfml-graphics-s:GLExtensions.obj
 0002:00005d68       ??_C@_0BI@FJDKFLGL@glInvalidateTexSubImage@ 00000001400a9d68     sfml-graphics-s:GLExtensions.obj
 0002:00005d80       ??_C@_0BK@IKGAIKOP@glMultiDrawArraysIndirect@ 00000001400a9d80     sfml-graphics-s:GLExtensions.obj
 0002:00005da0       ??_C@_0BM@KHEEFMKO@glMultiDrawElementsIndirect@ 00000001400a9da0     sfml-graphics-s:GLExtensions.obj
 0002:00005dc0       ??_C@_0O@EFJDECDM@glObjectLabel@ 00000001400a9dc0     sfml-graphics-s:GLExtensions.obj
 0002:00005dd0       ??_C@_0BB@FBABGDIL@glObjectPtrLabel@ 00000001400a9dd0     sfml-graphics-s:GLExtensions.obj
 0002:00005de8       ??_C@_0BA@PMJBDENK@glPopDebugGroup@ 00000001400a9de8     sfml-graphics-s:GLExtensions.obj
 0002:00005df8       ??_C@_0BB@DEFFBEGJ@glPushDebugGroup@ 00000001400a9df8     sfml-graphics-s:GLExtensions.obj
 0002:00005e10       ??_C@_0BM@GDDCNIBO@glShaderStorageBlockBinding@ 00000001400a9e10     sfml-graphics-s:GLExtensions.obj
 0002:00005e30       ??_C@_0BB@DPMGLFNI@glTexBufferRange@ 00000001400a9e30     sfml-graphics-s:GLExtensions.obj
 0002:00005e48       ??_C@_0BK@PDJAKDKP@glTexStorage2DMultisample@ 00000001400a9e48     sfml-graphics-s:GLExtensions.obj
 0002:00005e68       ??_C@_0BK@GOJPECNJ@glTexStorage3DMultisample@ 00000001400a9e68     sfml-graphics-s:GLExtensions.obj
 0002:00005e88       ??_C@_0O@BNFDGIMP@glTextureView@ 00000001400a9e88     sfml-graphics-s:GLExtensions.obj
 0002:00005e98       ??_C@_0BG@MLFHCGE@glVertexAttribBinding@ 00000001400a9e98     sfml-graphics-s:GLExtensions.obj
 0002:00005eb0       ??_C@_0BF@JEIPPBFE@glVertexAttribFormat@ 00000001400a9eb0     sfml-graphics-s:GLExtensions.obj
 0002:00005ec8       ??_C@_0BG@KJAHAHDI@glVertexAttribIFormat@ 00000001400a9ec8     sfml-graphics-s:GLExtensions.obj
 0002:00005ee0       ??_C@_0BG@OBOHAJFM@glVertexAttribLFormat@ 00000001400a9ee0     sfml-graphics-s:GLExtensions.obj
 0002:00005ef8       ??_C@_0BH@GNGCLGOI@glVertexBindingDivisor@ 00000001400a9ef8     sfml-graphics-s:GLExtensions.obj
 0002:00005f10       ??_C@_0BC@ENBBLPHM@glBindBuffersBase@ 00000001400a9f10     sfml-graphics-s:GLExtensions.obj
 0002:00005f28       ??_C@_0BD@ODFFOKPN@glBindBuffersRange@ 00000001400a9f28     sfml-graphics-s:GLExtensions.obj
 0002:00005f40       ??_C@_0BE@NAMJLOCK@glBindImageTextures@ 00000001400a9f40     sfml-graphics-s:GLExtensions.obj
 0002:00005f58       ??_C@_0P@FADPDFKM@glBindSamplers@ 00000001400a9f58     sfml-graphics-s:GLExtensions.obj
 0002:00005f68       ??_C@_0P@KHDEIIMA@glBindTextures@ 00000001400a9f68     sfml-graphics-s:GLExtensions.obj
 0002:00005f78       ??_C@_0BE@LNCGJHDC@glBindVertexBuffers@ 00000001400a9f78     sfml-graphics-s:GLExtensions.obj
 0002:00005f90       ??_C@_0BA@COBILMHM@glBufferStorage@ 00000001400a9f90     sfml-graphics-s:GLExtensions.obj
 0002:00005fa0       ??_C@_0BA@FNPOIBAF@glClearTexImage@ 00000001400a9fa0     sfml-graphics-s:GLExtensions.obj
 0002:00005fb0       ??_C@_0BD@CFALBON@glClearTexSubImage@ 00000001400a9fb0     sfml-graphics-s:GLExtensions.obj
 0002:00005fc8       ??_C@_0BC@NKGMGGNI@glBindTextureUnit@ 00000001400a9fc8     sfml-graphics-s:GLExtensions.obj
 0002:00005fe0       ??_C@_0BH@FNFDNHAI@glBlitNamedFramebuffer@ 00000001400a9fe0     sfml-graphics-s:GLExtensions.obj
 0002:00005ff8       ??_C@_0BO@LMABFPGK@glCheckNamedFramebufferStatus@ 00000001400a9ff8     sfml-graphics-s:GLExtensions.obj
 0002:00006018       ??_C@_0BH@KJMLMCB@glClearNamedBufferData@ 00000001400aa018     sfml-graphics-s:GLExtensions.obj
 0002:00006030       ??_C@_0BK@BNIDNJBH@glClearNamedBufferSubData@ 00000001400aa030     sfml-graphics-s:GLExtensions.obj
 0002:00006050       ??_C@_0BK@BJONNAKJ@glClearNamedFramebufferfi@ 00000001400aa050     sfml-graphics-s:GLExtensions.obj
 0002:00006070       ??_C@_0BK@NELHNODH@glClearNamedFramebufferfv@ 00000001400aa070     sfml-graphics-s:GLExtensions.obj
 0002:00006090       ??_C@_0BK@NPOLJJAK@glClearNamedFramebufferiv@ 00000001400aa090     sfml-graphics-s:GLExtensions.obj
 0002:000060b0       ??_C@_0BL@JENKNAJN@glClearNamedFramebufferuiv@ 00000001400aa0b0     sfml-graphics-s:GLExtensions.obj
 0002:000060d0       ??_C@_0O@DMMKFMGC@glClipControl@ 00000001400aa0d0     sfml-graphics-s:GLExtensions.obj
 0002:000060e0       ??_C@_0BO@NIHAIHFC@glCompressedTextureSubImage1D@ 00000001400aa0e0     sfml-graphics-s:GLExtensions.obj
 0002:00006100       ??_C@_0BO@NKDGDJAL@glCompressedTextureSubImage2D@ 00000001400aa100     sfml-graphics-s:GLExtensions.obj
 0002:00006120       ??_C@_0BO@NLPEFDDM@glCompressedTextureSubImage3D@ 00000001400aa120     sfml-graphics-s:GLExtensions.obj
 0002:00006140       ??_C@_0BJ@MJPDCHND@glCopyNamedBufferSubData@ 00000001400aa140     sfml-graphics-s:GLExtensions.obj
 0002:00006160       ??_C@_0BI@DBEKPOLO@glCopyTextureSubImage1D@ 00000001400aa160     sfml-graphics-s:GLExtensions.obj
 0002:00006178       ??_C@_0BI@DDAMEAOH@glCopyTextureSubImage2D@ 00000001400aa178     sfml-graphics-s:GLExtensions.obj
 0002:00006190       ??_C@_0BI@DCMOCKNA@glCopyTextureSubImage3D@ 00000001400aa190     sfml-graphics-s:GLExtensions.obj
 0002:000061a8       ??_C@_0BA@LNBCEANP@glCreateBuffers@ 00000001400aa1a8     sfml-graphics-s:GLExtensions.obj
 0002:000061b8       ??_C@_0BF@DDKJIBLC@glCreateFramebuffers@ 00000001400aa1b8     sfml-graphics-s:GLExtensions.obj
 0002:000061d0       ??_C@_0BJ@GJEEIMGK@glCreateProgramPipelines@ 00000001400aa1d0     sfml-graphics-s:GLExtensions.obj
 0002:000061f0       ??_C@_0BA@PGNDPLG@glCreateQueries@ 00000001400aa1f0     sfml-graphics-s:GLExtensions.obj
 0002:00006200       ??_C@_0BG@JJNJGAME@glCreateRenderbuffers@ 00000001400aa200     sfml-graphics-s:GLExtensions.obj
 0002:00006218       ??_C@_0BB@EHBNEMMP@glCreateSamplers@ 00000001400aa218     sfml-graphics-s:GLExtensions.obj
 0002:00006230       ??_C@_0BB@LABGPBKD@glCreateTextures@ 00000001400aa230     sfml-graphics-s:GLExtensions.obj
 0002:00006248       ??_C@_0BL@HPCMJLAK@glCreateTransformFeedbacks@ 00000001400aa248     sfml-graphics-s:GLExtensions.obj
 0002:00006268       ??_C@_0BF@CMMGIOCI@glCreateVertexArrays@ 00000001400aa268     sfml-graphics-s:GLExtensions.obj
 0002:00006280       ??_C@_0BL@FEKBMKFD@glDisableVertexArrayAttrib@ 00000001400aa280     sfml-graphics-s:GLExtensions.obj
 0002:000062a0       ??_C@_0BK@MJMKFCHC@glEnableVertexArrayAttrib@ 00000001400aa2a0     sfml-graphics-s:GLExtensions.obj
 0002:000062c0       ??_C@_0BO@DBGNKBKH@glFlushMappedNamedBufferRange@ 00000001400aa2c0     sfml-graphics-s:GLExtensions.obj
 0002:000062e0       ??_C@_0BI@JJPLGFEG@glGenerateTextureMipmap@ 00000001400aa2e0     sfml-graphics-s:GLExtensions.obj
 0002:000062f8       ??_C@_0BM@JOKODHH@glGetCompressedTextureImage@ 00000001400aa2f8     sfml-graphics-s:GLExtensions.obj
 0002:00006318       ??_C@_0BP@BIDENANP@glGetCompressedTextureSubImage@ 00000001400aa318     sfml-graphics-s:GLExtensions.obj
 0002:00006338       ??_C@_0BJ@ILPAOCDN@glGetGraphicsResetStatus@ 00000001400aa338     sfml-graphics-s:GLExtensions.obj
 0002:00006358       ??_C@_0BO@ECJNIDNL@glGetNamedBufferParameteri64v@ 00000001400aa358     sfml-graphics-s:GLExtensions.obj
 0002:00006378       ??_C@_0BM@KFAGBFPK@glGetNamedBufferParameteriv@ 00000001400aa378     sfml-graphics-s:GLExtensions.obj
 0002:00006398       ??_C@_0BJ@NBEMEIKG@glGetNamedBufferPointerv@ 00000001400aa398     sfml-graphics-s:GLExtensions.obj
 0002:000063b8       ??_C@_0BI@PJBCKPNA@glGetNamedBufferSubData@ 00000001400aa3b8     sfml-graphics-s:GLExtensions.obj
 0002:000063d0       ??_C@_0CL@BGDPEPCC@glGetNamedFramebufferAttachment@ 00000001400aa3d0     sfml-graphics-s:GLExtensions.obj
 0002:00006400       ??_C@_0CB@COGAJBEM@glGetNamedFramebufferParameteri@ 00000001400aa400     sfml-graphics-s:GLExtensions.obj
 0002:00006428       ??_C@_0CC@FCEAEAHI@glGetNamedRenderbufferParameter@ 00000001400aa428     sfml-graphics-s:GLExtensions.obj
 0002:00006450       ??_C@_0BL@KFECDHBF@glGetQueryBufferObjecti64v@ 00000001400aa450     sfml-graphics-s:GLExtensions.obj
 0002:00006470       ??_C@_0BJ@OBIFNHGB@glGetQueryBufferObjectiv@ 00000001400aa470     sfml-graphics-s:GLExtensions.obj
 0002:00006490       ??_C@_0BM@DFNHDHD@glGetQueryBufferObjectui64v@ 00000001400aa490     sfml-graphics-s:GLExtensions.obj
 0002:000064b0       ??_C@_0BK@EOIEAGAD@glGetQueryBufferObjectuiv@ 00000001400aa4b0     sfml-graphics-s:GLExtensions.obj
 0002:000064d0       ??_C@_0BC@PJDCJNIH@glGetTextureImage@ 00000001400aa4d0     sfml-graphics-s:GLExtensions.obj
 0002:000064e8       ??_C@_0BN@HMEFKCC@glGetTextureLevelParameterfv@ 00000001400aa4e8     sfml-graphics-s:GLExtensions.obj
 0002:00006508       ??_C@_0BN@MJIBNBP@glGetTextureLevelParameteriv@ 00000001400aa508     sfml-graphics-s:GLExtensions.obj
 0002:00006528       ??_C@_0BJ@PIPELMMF@glGetTextureParameterIiv@ 00000001400aa528     sfml-graphics-s:GLExtensions.obj
 0002:00006548       ??_C@_0BK@JPCGBAJJ@glGetTextureParameterIuiv@ 00000001400aa548     sfml-graphics-s:GLExtensions.obj
 0002:00006568       ??_C@_0BI@NBDPHHJH@glGetTextureParameterfv@ 00000001400aa568     sfml-graphics-s:GLExtensions.obj
 0002:00006580       ??_C@_0BI@NKGDDAKK@glGetTextureParameteriv@ 00000001400aa580     sfml-graphics-s:GLExtensions.obj
 0002:00006598       ??_C@_0BF@JEEEKNGB@glGetTextureSubImage@ 00000001400aa598     sfml-graphics-s:GLExtensions.obj
 0002:000065b0       ??_C@_0BM@KDHFPNLE@glGetTransformFeedbacki64_v@ 00000001400aa5b0     sfml-graphics-s:GLExtensions.obj
 0002:000065d0       ??_C@_0BK@IPHNHFEI@glGetTransformFeedbacki_v@ 00000001400aa5d0     sfml-graphics-s:GLExtensions.obj
 0002:000065f0       ??_C@_0BJ@OFMLPMDO@glGetTransformFeedbackiv@ 00000001400aa5f0     sfml-graphics-s:GLExtensions.obj
 0002:00006610       ??_C@_0BM@HHNNHCN@glGetVertexArrayIndexed64iv@ 00000001400aa610     sfml-graphics-s:GLExtensions.obj
 0002:00006630       ??_C@_0BK@FIIPMDBK@glGetVertexArrayIndexediv@ 00000001400aa630     sfml-graphics-s:GLExtensions.obj
 0002:00006650       ??_C@_0BD@CPJNCJFG@glGetVertexArrayiv@ 00000001400aa650     sfml-graphics-s:GLExtensions.obj
 0002:00006668       ??_C@_0BB@EFKGOAOL@glGetnColorTable@ 00000001400aa668     sfml-graphics-s:GLExtensions.obj
 0002:00006680       ??_C@_0BJ@HLNIHAOG@glGetnCompressedTexImage@ 00000001400aa680     sfml-graphics-s:GLExtensions.obj
 0002:000066a0       ??_C@_0BI@GBFNHONB@glGetnConvolutionFilter@ 00000001400aa6a0     sfml-graphics-s:GLExtensions.obj
 0002:000066b8       ??_C@_0BA@POEMGEO@glGetnHistogram@ 00000001400aa6b8     sfml-graphics-s:GLExtensions.obj
 0002:000066c8       ??_C@_0M@FBDPJCFH@glGetnMapdv@ 00000001400aa6c8     sfml-graphics-s:GLExtensions.obj
 0002:000066d8       ??_C@_0M@FCLLEGDJ@glGetnMapfv@ 00000001400aa6d8     sfml-graphics-s:GLExtensions.obj
 0002:000066e8       ??_C@_0M@FJOHABAE@glGetnMapiv@ 00000001400aa6e8     sfml-graphics-s:GLExtensions.obj
 0002:000066f8       ??_C@_0N@EFFKFJMK@glGetnMinmax@ 00000001400aa6f8     sfml-graphics-s:GLExtensions.obj
 0002:00006708       ??_C@_0BB@JKBANCED@glGetnPixelMapfv@ 00000001400aa708     sfml-graphics-s:GLExtensions.obj
 0002:00006720       ??_C@_0BC@MDPMMCLE@glGetnPixelMapuiv@ 00000001400aa720     sfml-graphics-s:GLExtensions.obj
 0002:00006738       ??_C@_0BC@NCENOEBC@glGetnPixelMapusv@ 00000001400aa738     sfml-graphics-s:GLExtensions.obj
 0002:00006750       ??_C@_0BF@NBHIHHJA@glGetnPolygonStipple@ 00000001400aa750     sfml-graphics-s:GLExtensions.obj
 0002:00006768       ??_C@_0BG@LBKKJBFC@glGetnSeparableFilter@ 00000001400aa768     sfml-graphics-s:GLExtensions.obj
 0002:00006780       ??_C@_0P@FBKOCLCM@glGetnTexImage@ 00000001400aa780     sfml-graphics-s:GLExtensions.obj
 0002:00006790       ??_C@_0BA@KLGIFHJB@glGetnUniformdv@ 00000001400aa790     sfml-graphics-s:GLExtensions.obj
 0002:000067a0       ??_C@_0BA@KIOMIDPP@glGetnUniformfv@ 00000001400aa7a0     sfml-graphics-s:GLExtensions.obj
 0002:000067b0       ??_C@_0BA@KDLAMEMC@glGetnUniformiv@ 00000001400aa7b0     sfml-graphics-s:GLExtensions.obj
 0002:000067c0       ??_C@_0BB@BBJMBEC@glGetnUniformuiv@ 00000001400aa7c0     sfml-graphics-s:GLExtensions.obj
 0002:000067d8       ??_C@_0CB@OGGNKJIL@glInvalidateNamedFramebufferDat@ 00000001400aa7d8     sfml-graphics-s:GLExtensions.obj
 0002:00006800       ??_C@_0CE@DEGDCFND@glInvalidateNamedFramebufferSub@ 00000001400aa800     sfml-graphics-s:GLExtensions.obj
 0002:00006828       ??_C@_0BB@JLMCGIDB@glMapNamedBuffer@ 00000001400aa828     sfml-graphics-s:GLExtensions.obj
 0002:00006840       ??_C@_0BG@JLCGKFD@glMapNamedBufferRange@ 00000001400aa840     sfml-graphics-s:GLExtensions.obj
 0002:00006858       ??_C@_0BI@IDCHHHAI@glMemoryBarrierByRegion@ 00000001400aa858     sfml-graphics-s:GLExtensions.obj
 0002:00006870       ??_C@_0BC@LHEABGCG@glNamedBufferData@ 00000001400aa870     sfml-graphics-s:GLExtensions.obj
 0002:00006888       ??_C@_0BF@INMFIINC@glNamedBufferStorage@ 00000001400aa888     sfml-graphics-s:GLExtensions.obj
 0002:000068a0       ??_C@_0BF@MDEBAFLD@glNamedBufferSubData@ 00000001400aa8a0     sfml-graphics-s:GLExtensions.obj
 0002:000068b8       ??_C@_0BN@MOAIHNEF@glNamedFramebufferDrawBuffer@ 00000001400aa8b8     sfml-graphics-s:GLExtensions.obj
 0002:000068d8       ??_C@_0BO@CGKJHFH@glNamedFramebufferDrawBuffers@ 00000001400aa8d8     sfml-graphics-s:GLExtensions.obj
 0002:000068f8       ??_C@_0BN@LBMOOIHC@glNamedFramebufferParameteri@ 00000001400aa8f8     sfml-graphics-s:GLExtensions.obj
 0002:00006918       ??_C@_0BN@LPANNPJE@glNamedFramebufferReadBuffer@ 00000001400aa918     sfml-graphics-s:GLExtensions.obj
 0002:00006938       ??_C@_0BP@MGCPNBGC@glNamedFramebufferRenderbuffer@ 00000001400aa938     sfml-graphics-s:GLExtensions.obj
 0002:00006958       ??_C@_0BK@PNJJLPPI@glNamedFramebufferTexture@ 00000001400aa958     sfml-graphics-s:GLExtensions.obj
 0002:00006978       ??_C@_0BP@PHGPDAJM@glNamedFramebufferTextureLayer@ 00000001400aa978     sfml-graphics-s:GLExtensions.obj
 0002:00006998       ??_C@_0BL@DGDPFKGM@glNamedRenderbufferStorage@ 00000001400aa998     sfml-graphics-s:GLExtensions.obj
 0002:000069b8       ??_C@_0CG@IDKJGKBA@glNamedRenderbufferStorageMulti@ 00000001400aa9b8     sfml-graphics-s:GLExtensions.obj
 0002:000069e0       ??_C@_0O@NELODAJJ@glReadnPixels@ 00000001400aa9e0     sfml-graphics-s:GLExtensions.obj
 0002:000069f0       ??_C@_0BB@MNKDFGFC@glTextureBarrier@ 00000001400aa9f0     sfml-graphics-s:GLExtensions.obj
 0002:00006a08       ??_C@_0BA@BEJOBNBA@glTextureBuffer@ 00000001400aaa08     sfml-graphics-s:GLExtensions.obj
 0002:00006a18       ??_C@_0BF@HAEPGPBJ@glTextureBufferRange@ 00000001400aaa18     sfml-graphics-s:GLExtensions.obj
 0002:00006a30       ??_C@_0BG@CMHFNPIN@glTextureParameterIiv@ 00000001400aaa30     sfml-graphics-s:GLExtensions.obj
 0002:00006a48       ??_C@_0BH@OHPFFIFI@glTextureParameterIuiv@ 00000001400aaa48     sfml-graphics-s:GLExtensions.obj
 0002:00006a60       ??_C@_0BE@NLINBPMM@glTextureParameterf@ 00000001400aaa60     sfml-graphics-s:GLExtensions.obj
 0002:00006a78       ??_C@_0BF@OLGMNNPE@glTextureParameterfv@ 00000001400aaa78     sfml-graphics-s:GLExtensions.obj
 0002:00006a90       ??_C@_0BE@FMBFADAD@glTextureParameteri@ 00000001400aaa90     sfml-graphics-s:GLExtensions.obj
 0002:00006aa8       ??_C@_0BF@OADAJKMJ@glTextureParameteriv@ 00000001400aaaa8     sfml-graphics-s:GLExtensions.obj
 0002:00006ac0       ??_C@_0BD@CJOBHECL@glTextureStorage1D@ 00000001400aaac0     sfml-graphics-s:GLExtensions.obj
 0002:00006ad8       ??_C@_0BD@CLKHMKHC@glTextureStorage2D@ 00000001400aaad8     sfml-graphics-s:GLExtensions.obj
 0002:00006af0       ??_C@_0BO@CIHBMJOI@glTextureStorage2DMultisample@ 00000001400aaaf0     sfml-graphics-s:GLExtensions.obj
 0002:00006b10       ??_C@_0BD@CKGFKAEF@glTextureStorage3D@ 00000001400aab10     sfml-graphics-s:GLExtensions.obj
 0002:00006b28       ??_C@_0BO@LFHOCIJO@glTextureStorage3DMultisample@ 00000001400aab28     sfml-graphics-s:GLExtensions.obj
 0002:00006b48       ??_C@_0BE@IDMGLJDA@glTextureSubImage1D@ 00000001400aab48     sfml-graphics-s:GLExtensions.obj
 0002:00006b60       ??_C@_0BE@IBIAAHGJ@glTextureSubImage2D@ 00000001400aab60     sfml-graphics-s:GLExtensions.obj
 0002:00006b78       ??_C@_0BE@IAECGNFO@glTextureSubImage3D@ 00000001400aab78     sfml-graphics-s:GLExtensions.obj
 0002:00006b90       ??_C@_0BO@EGLKNJFA@glTransformFeedbackBufferBase@ 00000001400aab90     sfml-graphics-s:GLExtensions.obj
 0002:00006bb0       ??_C@_0BP@NBIGCNHI@glTransformFeedbackBufferRange@ 00000001400aabb0     sfml-graphics-s:GLExtensions.obj
 0002:00006bd0       ??_C@_0BD@LAAONAHD@glUnmapNamedBuffer@ 00000001400aabd0     sfml-graphics-s:GLExtensions.obj
 0002:00006be8       ??_C@_0BL@DJHJAEGB@glVertexArrayAttribBinding@ 00000001400aabe8     sfml-graphics-s:GLExtensions.obj
 0002:00006c08       ??_C@_0BK@ONFBAOHM@glVertexArrayAttribFormat@ 00000001400aac08     sfml-graphics-s:GLExtensions.obj
 0002:00006c28       ??_C@_0BL@JMMLHBDN@glVertexArrayAttribIFormat@ 00000001400aac28     sfml-graphics-s:GLExtensions.obj
 0002:00006c48       ??_C@_0BL@NECLHPFJ@glVertexArrayAttribLFormat@ 00000001400aac48     sfml-graphics-s:GLExtensions.obj
 0002:00006c68       ??_C@_0BM@BNDNIOBB@glVertexArrayBindingDivisor@ 00000001400aac68     sfml-graphics-s:GLExtensions.obj
 0002:00006c88       ??_C@_0BL@GGCAPDMO@glVertexArrayElementBuffer@ 00000001400aac88     sfml-graphics-s:GLExtensions.obj
 0002:00006ca8       ??_C@_0BK@BIEMNHGJ@glVertexArrayVertexBuffer@ 00000001400aaca8     sfml-graphics-s:GLExtensions.obj
 0002:00006cc8       ??_C@_0BL@DAGELPBO@glVertexArrayVertexBuffers@ 00000001400aacc8     sfml-graphics-s:GLExtensions.obj
 0002:00006ce8       ??_C@_0BP@GGIOCPJI@glMultiDrawArraysIndirectCount@ 00000001400aace8     sfml-graphics-s:GLExtensions.obj
 0002:00006d08       ??_C@_0CB@BPEMAMPH@glMultiDrawElementsIndirectCoun@ 00000001400aad08     sfml-graphics-s:GLExtensions.obj
 0002:00006d30       ??_C@_0BF@ECLDHBOO@glPolygonOffsetClamp@ 00000001400aad30     sfml-graphics-s:GLExtensions.obj
 0002:00006d48       ??_C@_0BD@LNCLLNDI@glSpecializeShader@ 00000001400aad48     sfml-graphics-s:GLExtensions.obj
 0002:00006d60       ??_C@_0BB@OAGHGJAC@glBindProgramARB@ 00000001400aad60     sfml-graphics-s:GLExtensions.obj
 0002:00006d78       ??_C@_0BE@EJCMOJPP@glDeleteProgramsARB@ 00000001400aad78     sfml-graphics-s:GLExtensions.obj
 0002:00006d90       ??_C@_0BB@JDDNIFAN@glGenProgramsARB@ 00000001400aad90     sfml-graphics-s:GLExtensions.obj
 0002:00006da8       ??_C@_0BO@NHNBOOKI@glGetProgramEnvParameterdvARB@ 00000001400aada8     sfml-graphics-s:GLExtensions.obj
 0002:00006dc8       ??_C@_0BO@JKBJEPKD@glGetProgramEnvParameterfvARB@ 00000001400aadc8     sfml-graphics-s:GLExtensions.obj
 0002:00006de8       ??_C@_0CA@IBOBFJKB@glGetProgramLocalParameterdvARB@ 00000001400aade8     sfml-graphics-s:GLExtensions.obj
 0002:00006e08       ??_C@_0CA@MMCJPIKK@glGetProgramLocalParameterfvARB@ 00000001400aae08     sfml-graphics-s:GLExtensions.obj
 0002:00006e28       ??_C@_0BG@OAOKBADO@glGetProgramStringARB@ 00000001400aae28     sfml-graphics-s:GLExtensions.obj
 0002:00006e40       ??_C@_0BC@OHCOJECC@glGetProgramivARB@ 00000001400aae40     sfml-graphics-s:GLExtensions.obj
 0002:00006e58       ??_C@_0P@LKCDEJPE@glIsProgramARB@ 00000001400aae58     sfml-graphics-s:GLExtensions.obj
 0002:00006e68       ??_C@_0BL@IFMMBIHE@glProgramEnvParameter4dARB@ 00000001400aae68     sfml-graphics-s:GLExtensions.obj
 0002:00006e88       ??_C@_0BM@NICJGLCN@glProgramEnvParameter4dvARB@ 00000001400aae88     sfml-graphics-s:GLExtensions.obj
 0002:00006ea8       ??_C@_0BL@PPAMELBE@glProgramEnvParameter4fARB@ 00000001400aaea8     sfml-graphics-s:GLExtensions.obj
 0002:00006ec8       ??_C@_0BM@JFOBMKCG@glProgramEnvParameter4fvARB@ 00000001400aaec8     sfml-graphics-s:GLExtensions.obj
 0002:00006ee8       ??_C@_0BN@ELHLGELC@glProgramLocalParameter4dARB@ 00000001400aaee8     sfml-graphics-s:GLExtensions.obj
 0002:00006f08       ??_C@_0BO@KKOALLNE@glProgramLocalParameter4dvARB@ 00000001400aaf08     sfml-graphics-s:GLExtensions.obj
 0002:00006f28       ??_C@_0BN@DBLLDHNC@glProgramLocalParameter4fARB@ 00000001400aaf28     sfml-graphics-s:GLExtensions.obj
 0002:00006f48       ??_C@_0BO@OHCIBKNP@glProgramLocalParameter4fvARB@ 00000001400aaf48     sfml-graphics-s:GLExtensions.obj
 0002:00006f68       ??_C@_0BD@HIBLHAHB@glProgramStringARB@ 00000001400aaf68     sfml-graphics-s:GLExtensions.obj
 0002:00006f80       ??_C@_0BI@KFEKMNEL@glFramebufferTextureARB@ 00000001400aaf80     sfml-graphics-s:GLExtensions.obj
 0002:00006f98       ??_C@_0BM@PJPLFKLO@glFramebufferTextureFaceARB@ 00000001400aaf98     sfml-graphics-s:GLExtensions.obj
 0002:00006fb8       ??_C@_0BN@OEJIBP@glFramebufferTextureLayerARB@ 00000001400aafb8     sfml-graphics-s:GLExtensions.obj
 0002:00006fd8       ??_C@_0BH@GELPODLK@glProgramParameteriARB@ 00000001400aafd8     sfml-graphics-s:GLExtensions.obj
 0002:00006ff0       ??_C@_0BA@JAMHNPHF@glColorSubTable@ 00000001400aaff0     sfml-graphics-s:GLExtensions.obj
 0002:00007000       ??_C@_0N@PCFLODHG@glColorTable@ 00000001400ab000     sfml-graphics-s:GLExtensions.obj
 0002:00007010       ??_C@_0BI@DEIGFBNP@glColorTableParameterfv@ 00000001400ab010     sfml-graphics-s:GLExtensions.obj
 0002:00007028       ??_C@_0BI@DPNKBGOC@glColorTableParameteriv@ 00000001400ab028     sfml-graphics-s:GLExtensions.obj
 0002:00007040       ??_C@_0BG@CJBBBGMA@glConvolutionFilter1D@ 00000001400ab040     sfml-graphics-s:GLExtensions.obj
 0002:00007058       ??_C@_0BG@CLFHKIJJ@glConvolutionFilter2D@ 00000001400ab058     sfml-graphics-s:GLExtensions.obj
 0002:00007070       ??_C@_0BI@PLJALAOH@glConvolutionParameterf@ 00000001400ab070     sfml-graphics-s:GLExtensions.obj
 0002:00007088       ??_C@_0BJ@EHPADJBL@glConvolutionParameterfv@ 00000001400ab088     sfml-graphics-s:GLExtensions.obj
 0002:000070a8       ??_C@_0BI@HMAIKMCI@glConvolutionParameteri@ 00000001400ab0a8     sfml-graphics-s:GLExtensions.obj
 0002:000070c0       ??_C@_0BJ@EMKMHOCG@glConvolutionParameteriv@ 00000001400ab0c0     sfml-graphics-s:GLExtensions.obj
 0002:000070e0       ??_C@_0BE@LPPLPNIO@glCopyColorSubTable@ 00000001400ab0e0     sfml-graphics-s:GLExtensions.obj
 0002:000070f8       ??_C@_0BB@KFNEDBPG@glCopyColorTable@ 00000001400ab0f8     sfml-graphics-s:GLExtensions.obj
 0002:00007110       ??_C@_0BK@GEKJMFLK@glCopyConvolutionFilter1D@ 00000001400ab110     sfml-graphics-s:GLExtensions.obj
 0002:00007130       ??_C@_0BK@GGOPHLOD@glCopyConvolutionFilter2D@ 00000001400ab130     sfml-graphics-s:GLExtensions.obj
 0002:00007150       ??_C@_0BA@JMNLAECM@glGetColorTable@ 00000001400ab150     sfml-graphics-s:GLExtensions.obj
 0002:00007160       ??_C@_0BL@NIJNHALB@glGetColorTableParameterfv@ 00000001400ab160     sfml-graphics-s:GLExtensions.obj
 0002:00007180       ??_C@_0BL@NDMBDHIM@glGetColorTableParameteriv@ 00000001400ab180     sfml-graphics-s:GLExtensions.obj
 0002:000071a0       ??_C@_0BH@LPCMFECN@glGetConvolutionFilter@ 00000001400ab1a0     sfml-graphics-s:GLExtensions.obj
 0002:000071b8       ??_C@_0BM@ONBGGOGF@glGetConvolutionParameterfv@ 00000001400ab1b8     sfml-graphics-s:GLExtensions.obj
 0002:000071d8       ??_C@_0BM@OGEKCJFI@glGetConvolutionParameteriv@ 00000001400ab1d8     sfml-graphics-s:GLExtensions.obj
 0002:000071f8       ??_C@_0P@KEFKNNKH@glGetHistogram@ 00000001400ab1f8     sfml-graphics-s:GLExtensions.obj
 0002:00007208       ??_C@_0BK@IFPDKCN@glGetHistogramParameterfv@ 00000001400ab208     sfml-graphics-s:GLExtensions.obj
 0002:00007228       ??_C@_0BK@DADHNBA@glGetHistogramParameteriv@ 00000001400ab228     sfml-graphics-s:GLExtensions.obj
 0002:00007248       ??_C@_0M@ILDMABIA@glGetMinmax@ 00000001400ab248     sfml-graphics-s:GLExtensions.obj
 0002:00007258       ??_C@_0BH@ONPKEHGK@glGetMinmaxParameterfv@ 00000001400ab258     sfml-graphics-s:GLExtensions.obj
 0002:00007270       ??_C@_0BH@OGKGAAFH@glGetMinmaxParameteriv@ 00000001400ab270     sfml-graphics-s:GLExtensions.obj
 0002:00007288       ??_C@_0BF@LPFBPGKD@glGetSeparableFilter@ 00000001400ab288     sfml-graphics-s:GLExtensions.obj
 0002:000072a0       ??_C@_0M@EPLLGADA@glHistogram@ 00000001400ab2a0     sfml-graphics-s:GLExtensions.obj
 0002:000072b0       ??_C@_08ONCKEMPI@glMinmax@ 00000001400ab2b0     sfml-graphics-s:GLExtensions.obj
 0002:000072c0       ??_C@_0BB@OBMEDNFE@glResetHistogram@ 00000001400ab2c0     sfml-graphics-s:GLExtensions.obj
 0002:000072d8       ??_C@_0O@MKNEKFLH@glResetMinmax@ 00000001400ab2d8     sfml-graphics-s:GLExtensions.obj
 0002:000072e8       ??_C@_0BE@IEPFBBMM@glSeparableFilter2D@ 00000001400ab2e8     sfml-graphics-s:GLExtensions.obj
 0002:00007300       ??_C@_0BD@IKCKKKNH@glActiveTextureARB@ 00000001400ab300     sfml-graphics-s:GLExtensions.obj
 0002:00007318       ??_C@_0BJ@PBJNGLJH@glClientActiveTextureARB@ 00000001400ab318     sfml-graphics-s:GLExtensions.obj
 0002:00007338       ??_C@_0BF@JJDGKFDO@glMultiTexCoord1dARB@ 00000001400ab338     sfml-graphics-s:GLExtensions.obj
 0002:00007350       ??_C@_0BG@EODMDJBO@glMultiTexCoord1dvARB@ 00000001400ab350     sfml-graphics-s:GLExtensions.obj
 0002:00007368       ??_C@_0BF@ODPGPGFO@glMultiTexCoord1fARB@ 00000001400ab368     sfml-graphics-s:GLExtensions.obj
 0002:00007380       ??_C@_0BG@DPEJIBF@glMultiTexCoord1fvARB@ 00000001400ab380     sfml-graphics-s:GLExtensions.obj
 0002:00007398       ??_C@_0BF@GBKGGBIP@glMultiTexCoord1iARB@ 00000001400ab398     sfml-graphics-s:GLExtensions.obj
 0002:000073b0       ??_C@_0BG@PCKCCKMA@glMultiTexCoord1ivARB@ 00000001400ab3b0     sfml-graphics-s:GLExtensions.obj
 0002:000073c8       ??_C@_0BF@ELPGOOKM@glMultiTexCoord1sARB@ 00000001400ab3c8     sfml-graphics-s:GLExtensions.obj
 0002:000073e0       ??_C@_0BG@FAOPALDN@glMultiTexCoord1svARB@ 00000001400ab3e0     sfml-graphics-s:GLExtensions.obj
 0002:000073f8       ??_C@_0BF@BPKCNHJA@glMultiTexCoord2dARB@ 00000001400ab3f8     sfml-graphics-s:GLExtensions.obj
 0002:00007410       ??_C@_0BG@HPNECDID@glMultiTexCoord2dvARB@ 00000001400ab410     sfml-graphics-s:GLExtensions.obj
 0002:00007428       ??_C@_0BF@GFGCIEPA@glMultiTexCoord2fARB@ 00000001400ab428     sfml-graphics-s:GLExtensions.obj
 0002:00007440       ??_C@_0BG@DCBMICII@glMultiTexCoord2fvARB@ 00000001400ab440     sfml-graphics-s:GLExtensions.obj
 0002:00007458       ??_C@_0BF@OHDCBDCB@glMultiTexCoord2iARB@ 00000001400ab458     sfml-graphics-s:GLExtensions.obj
 0002:00007470       ??_C@_0BG@MDEKDAFN@glMultiTexCoord2ivARB@ 00000001400ab470     sfml-graphics-s:GLExtensions.obj
 0002:00007488       ??_C@_0BF@MNGCJMAC@glMultiTexCoord2sARB@ 00000001400ab488     sfml-graphics-s:GLExtensions.obj
 0002:000074a0       ??_C@_0BG@GBAHBBKA@glMultiTexCoord2svARB@ 00000001400ab4a0     sfml-graphics-s:GLExtensions.obj
 0002:000074b8       ??_C@_0BF@NEPOAEDF@glMultiTexCoord3dARB@ 00000001400ab4b8     sfml-graphics-s:GLExtensions.obj
 0002:000074d0       ??_C@_0BG@NJKDCIDH@glMultiTexCoord3dvARB@ 00000001400ab4d0     sfml-graphics-s:GLExtensions.obj
 0002:000074e8       ??_C@_0BF@KODOFHFF@glMultiTexCoord3fARB@ 00000001400ab4e8     sfml-graphics-s:GLExtensions.obj
 0002:00007500       ??_C@_0BG@JEGLIJDM@glMultiTexCoord3fvARB@ 00000001400ab500     sfml-graphics-s:GLExtensions.obj
 0002:00007518       ??_C@_0BF@CMGOMAIE@glMultiTexCoord3iARB@ 00000001400ab518     sfml-graphics-s:GLExtensions.obj
 0002:00007530       ??_C@_0BG@GFDNDLOJ@glMultiTexCoord3ivARB@ 00000001400ab530     sfml-graphics-s:GLExtensions.obj
 0002:00007548       ??_C@_0BF@GDOEPKH@glMultiTexCoord3sARB@ 00000001400ab548     sfml-graphics-s:GLExtensions.obj
 0002:00007560       ??_C@_0BG@MHHABKBE@glMultiTexCoord3svARB@ 00000001400ab560     sfml-graphics-s:GLExtensions.obj
 0002:00007578       ??_C@_0BF@MJPLDEIN@glMultiTexCoord4dARB@ 00000001400ab578     sfml-graphics-s:GLExtensions.obj
 0002:00007590       ??_C@_0BG@BMAEBGLJ@glMultiTexCoord4dvARB@ 00000001400ab590     sfml-graphics-s:GLExtensions.obj
 0002:000075a8       ??_C@_0BF@LDDLGHON@glMultiTexCoord4fARB@ 00000001400ab5a8     sfml-graphics-s:GLExtensions.obj
 0002:000075c0       ??_C@_0BG@FBMMLHLC@glMultiTexCoord4fvARB@ 00000001400ab5c0     sfml-graphics-s:GLExtensions.obj
 0002:000075d8       ??_C@_0BF@DBGLPADM@glMultiTexCoord4iARB@ 00000001400ab5d8     sfml-graphics-s:GLExtensions.obj
 0002:000075f0       ??_C@_0BG@KAJKAFGH@glMultiTexCoord4ivARB@ 00000001400ab5f0     sfml-graphics-s:GLExtensions.obj
 0002:00007608       ??_C@_0BF@BLDLHPBP@glMultiTexCoord4sARB@ 00000001400ab608     sfml-graphics-s:GLExtensions.obj
 0002:00007620       ??_C@_0BG@CNHCEJK@glMultiTexCoord4svARB@ 00000001400ab620     sfml-graphics-s:GLExtensions.obj
 0002:00007638       ??_C@_0BC@GINLBKLJ@glAttachObjectARB@ 00000001400ab638     sfml-graphics-s:GLExtensions.obj
 0002:00007650       ??_C@_0BD@BEDGBOPM@glCompileShaderARB@ 00000001400ab650     sfml-graphics-s:GLExtensions.obj
 0002:00007668       ??_C@_0BJ@KGMBEPBI@glCreateProgramObjectARB@ 00000001400ab668     sfml-graphics-s:GLExtensions.obj
 0002:00007688       ??_C@_0BI@FMNPOEGE@glCreateShaderObjectARB@ 00000001400ab688     sfml-graphics-s:GLExtensions.obj
 0002:000076a0       ??_C@_0BC@MJFNICLA@glDeleteObjectARB@ 00000001400ab6a0     sfml-graphics-s:GLExtensions.obj
 0002:000076b8       ??_C@_0BC@OPBLIDAI@glDetachObjectARB@ 00000001400ab6b8     sfml-graphics-s:GLExtensions.obj
 0002:000076d0       ??_C@_0BG@FNEOAGIK@glGetActiveUniformARB@ 00000001400ab6d0     sfml-graphics-s:GLExtensions.obj
 0002:000076e8       ??_C@_0BI@KFAABOIL@glGetAttachedObjectsARB@ 00000001400ab6e8     sfml-graphics-s:GLExtensions.obj
 0002:00007700       ??_C@_0P@LFBJNCKO@glGetHandleARB@ 00000001400ab700     sfml-graphics-s:GLExtensions.obj
 0002:00007710       ??_C@_0BA@FLIOBLOG@glGetInfoLogARB@ 00000001400ab710     sfml-graphics-s:GLExtensions.obj
 0002:00007720       ??_C@_0BK@HCFOBODO@glGetObjectParameterfvARB@ 00000001400ab720     sfml-graphics-s:GLExtensions.obj
 0002:00007740       ??_C@_0BK@IDAIKMOL@glGetObjectParameterivARB@ 00000001400ab740     sfml-graphics-s:GLExtensions.obj
 0002:00007760       ??_C@_0BF@OBGOKFNE@glGetShaderSourceARB@ 00000001400ab760     sfml-graphics-s:GLExtensions.obj
 0002:00007778       ??_C@_0BI@CAFPPHDC@glGetUniformLocationARB@ 00000001400ab778     sfml-graphics-s:GLExtensions.obj
 0002:00007790       ??_C@_0BC@KKIJAHAK@glGetUniformfvARB@ 00000001400ab790     sfml-graphics-s:GLExtensions.obj
 0002:000077a8       ??_C@_0BC@FLNPLFNP@glGetUniformivARB@ 00000001400ab7a8     sfml-graphics-s:GLExtensions.obj
 0002:000077c0       ??_C@_0BB@HPIAOOAG@glLinkProgramARB@ 00000001400ab7c0     sfml-graphics-s:GLExtensions.obj
 0002:000077d8       ??_C@_0BC@MCCOFGJG@glShaderSourceARB@ 00000001400ab7d8     sfml-graphics-s:GLExtensions.obj
 0002:000077f0       ??_C@_0P@KFNIAEEC@glUniform1fARB@ 00000001400ab7f0     sfml-graphics-s:GLExtensions.obj
 0002:00007800       ??_C@_0BA@BHLDOKKI@glUniform1fvARB@ 00000001400ab800     sfml-graphics-s:GLExtensions.obj
 0002:00007810       ??_C@_0P@CHIIJDJD@glUniform1iARB@ 00000001400ab810     sfml-graphics-s:GLExtensions.obj
 0002:00007820       ??_C@_0BA@OGOFFIHN@glUniform1ivARB@ 00000001400ab820     sfml-graphics-s:GLExtensions.obj
 0002:00007830       ??_C@_0P@CDEMHGOM@glUniform2fARB@ 00000001400ab830     sfml-graphics-s:GLExtensions.obj
 0002:00007840       ??_C@_0BA@CGFLPADF@glUniform2fvARB@ 00000001400ab840     sfml-graphics-s:GLExtensions.obj
 0002:00007850       ??_C@_0P@KBBMOBDN@glUniform2iARB@ 00000001400ab850     sfml-graphics-s:GLExtensions.obj
 0002:00007860       ??_C@_0BA@NHANECOA@glUniform2ivARB@ 00000001400ab860     sfml-graphics-s:GLExtensions.obj
 0002:00007870       ??_C@_0P@OIBAKFEJ@glUniform3fARB@ 00000001400ab870     sfml-graphics-s:GLExtensions.obj
 0002:00007880       ??_C@_0BA@IACMPLIB@glUniform3fvARB@ 00000001400ab880     sfml-graphics-s:GLExtensions.obj
 0002:00007890       ??_C@_0P@GKEADCJI@glUniform3iARB@ 00000001400ab890     sfml-graphics-s:GLExtensions.obj
 0002:000078a0       ??_C@_0BA@HBHKEJFE@glUniform3ivARB@ 00000001400ab8a0     sfml-graphics-s:GLExtensions.obj
 0002:000078b0       ??_C@_0P@PFBFJFPB@glUniform4fARB@ 00000001400ab8b0     sfml-graphics-s:GLExtensions.obj
 0002:000078c0       ??_C@_0BA@EFILMFAP@glUniform4fvARB@ 00000001400ab8c0     sfml-graphics-s:GLExtensions.obj
 0002:000078d0       ??_C@_0P@HHEFACCA@glUniform4iARB@ 00000001400ab8d0     sfml-graphics-s:GLExtensions.obj
 0002:000078e0       ??_C@_0BA@LENNHHNK@glUniform4ivARB@ 00000001400ab8e0     sfml-graphics-s:GLExtensions.obj
 0002:000078f0       ??_C@_0BG@KPIOAAJO@glUniformMatrix2fvARB@ 00000001400ab8f0     sfml-graphics-s:GLExtensions.obj
 0002:00007908       ??_C@_0BG@JPJALCK@glUniformMatrix3fvARB@ 00000001400ab908     sfml-graphics-s:GLExtensions.obj
 0002:00007920       ??_C@_0BG@MMFODFKE@glUniformMatrix4fvARB@ 00000001400ab920     sfml-graphics-s:GLExtensions.obj
 0002:00007938       ??_C@_0BG@JEOFPDIM@glUseProgramObjectARB@ 00000001400ab938     sfml-graphics-s:GLExtensions.obj
 0002:00007950       ??_C@_0BF@BGDHGNPG@glValidateProgramARB@ 00000001400ab950     sfml-graphics-s:GLExtensions.obj
 0002:00007968       ??_C@_0BA@FDIFNALK@glBindBufferARB@ 00000001400ab968     sfml-graphics-s:GLExtensions.obj
 0002:00007978       ??_C@_0BA@HLIGBCAN@glBufferDataARB@ 00000001400ab978     sfml-graphics-s:GLExtensions.obj
 0002:00007988       ??_C@_0BD@KFMFAAJP@glBufferSubDataARB@ 00000001400ab988     sfml-graphics-s:GLExtensions.obj
 0002:000079a0       ??_C@_0BD@FPFIIGCI@glDeleteBuffersARB@ 00000001400ab9a0     sfml-graphics-s:GLExtensions.obj
 0002:000079b8       ??_C@_0BA@COIMKEED@glGenBuffersARB@ 00000001400ab9b8     sfml-graphics-s:GLExtensions.obj
 0002:000079c8       ??_C@_0BK@NELBDMOH@glGetBufferParameterivARB@ 00000001400ab9c8     sfml-graphics-s:GLExtensions.obj
 0002:000079e8       ??_C@_0BH@KNGCJBNB@glGetBufferPointervARB@ 00000001400ab9e8     sfml-graphics-s:GLExtensions.obj
 0002:00007a00       ??_C@_0BG@DNDEGANA@glGetBufferSubDataARB@ 00000001400aba00     sfml-graphics-s:GLExtensions.obj
 0002:00007a18       ??_C@_0O@BCHKDNEE@glIsBufferARB@ 00000001400aba18     sfml-graphics-s:GLExtensions.obj
 0002:00007a28       ??_C@_0P@GLCCGPAH@glMapBufferARB@ 00000001400aba28     sfml-graphics-s:GLExtensions.obj
 0002:00007a38       ??_C@_0BB@IODLHHEP@glUnmapBufferARB@ 00000001400aba38     sfml-graphics-s:GLExtensions.obj
 0002:00007a50       ??_C@_0BO@HGKLJN@glDisableVertexAttribArrayARB@ 00000001400aba50     sfml-graphics-s:GLExtensions.obj
 0002:00007a70       ??_C@_0BN@FKABDPBF@glEnableVertexAttribArrayARB@ 00000001400aba70     sfml-graphics-s:GLExtensions.obj
 0002:00007a90       ??_C@_0BN@PFKJEGFB@glGetVertexAttribPointervARB@ 00000001400aba90     sfml-graphics-s:GLExtensions.obj
 0002:00007ab0       ??_C@_0BH@OMNBLIA@glGetVertexAttribdvARB@ 00000001400abab0     sfml-graphics-s:GLExtensions.obj
 0002:00007ac8       ??_C@_0BH@EDAFLKIL@glGetVertexAttribfvARB@ 00000001400abac8     sfml-graphics-s:GLExtensions.obj
 0002:00007ae0       ??_C@_0BH@LCFDAIFO@glGetVertexAttribivARB@ 00000001400abae0     sfml-graphics-s:GLExtensions.obj
 0002:00007af8       ??_C@_0BE@KOFFOLEH@glVertexAttrib1dARB@ 00000001400abaf8     sfml-graphics-s:GLExtensions.obj
 0002:00007b10       ??_C@_0BF@GHNCJDMI@glVertexAttrib1dvARB@ 00000001400abb10     sfml-graphics-s:GLExtensions.obj
 0002:00007b28       ??_C@_0BE@NEJFLICH@glVertexAttrib1fARB@ 00000001400abb28     sfml-graphics-s:GLExtensions.obj
 0002:00007b40       ??_C@_0BF@CKBKDCMD@glVertexAttrib1fvARB@ 00000001400abb40     sfml-graphics-s:GLExtensions.obj
 0002:00007b58       ??_C@_0BE@HMJFKANF@glVertexAttrib1sARB@ 00000001400abb58     sfml-graphics-s:GLExtensions.obj
 0002:00007b70       ??_C@_0BF@HJABKBOL@glVertexAttrib1svARB@ 00000001400abb70     sfml-graphics-s:GLExtensions.obj
 0002:00007b88       ??_C@_0BE@CIMBJJOJ@glVertexAttrib2dARB@ 00000001400abb88     sfml-graphics-s:GLExtensions.obj
 0002:00007ba0       ??_C@_0BF@FGDKIJFF@glVertexAttrib2dvARB@ 00000001400abba0     sfml-graphics-s:GLExtensions.obj
 0002:00007bb8       ??_C@_0BE@FCABMKIJ@glVertexAttrib2fARB@ 00000001400abbb8     sfml-graphics-s:GLExtensions.obj
 0002:00007bd0       ??_C@_0BF@BLPCCIFO@glVertexAttrib2fvARB@ 00000001400abbd0     sfml-graphics-s:GLExtensions.obj
 0002:00007be8       ??_C@_0BE@PKABNCHL@glVertexAttrib2sARB@ 00000001400abbe8     sfml-graphics-s:GLExtensions.obj
 0002:00007c00       ??_C@_0BF@EIOJLLHG@glVertexAttrib2svARB@ 00000001400abc00     sfml-graphics-s:GLExtensions.obj
 0002:00007c18       ??_C@_0BE@ODJNEKEM@glVertexAttrib3dARB@ 00000001400abc18     sfml-graphics-s:GLExtensions.obj
 0002:00007c30       ??_C@_0BF@PAENICOB@glVertexAttrib3dvARB@ 00000001400abc30     sfml-graphics-s:GLExtensions.obj
 0002:00007c48       ??_C@_0BE@JJFNBJCM@glVertexAttrib3fARB@ 00000001400abc48     sfml-graphics-s:GLExtensions.obj
 0002:00007c60       ??_C@_0BF@LNIFCDOK@glVertexAttrib3fvARB@ 00000001400abc60     sfml-graphics-s:GLExtensions.obj
 0002:00007c78       ??_C@_0BE@DBFNABNO@glVertexAttrib3sARB@ 00000001400abc78     sfml-graphics-s:GLExtensions.obj
 0002:00007c90       ??_C@_0BF@OOJOLAMC@glVertexAttrib3svARB@ 00000001400abc90     sfml-graphics-s:GLExtensions.obj
 0002:00007ca8       ??_C@_0BG@KBHGKCDK@glVertexAttrib4NbvARB@ 00000001400abca8     sfml-graphics-s:GLExtensions.obj
 0002:00007cc0       ??_C@_0BG@MLLBFCPJ@glVertexAttrib4NivARB@ 00000001400abcc0     sfml-graphics-s:GLExtensions.obj
 0002:00007cd8       ??_C@_0BG@GJPMHDAE@glVertexAttrib4NsvARB@ 00000001400abcd8     sfml-graphics-s:GLExtensions.obj
 0002:00007cf0       ??_C@_0BG@CKMFKBFL@glVertexAttrib4NubARB@ 00000001400abcf0     sfml-graphics-s:GLExtensions.obj
 0002:00007d08       ??_C@_0BH@HDFHFPMN@glVertexAttrib4NubvARB@ 00000001400abd08     sfml-graphics-s:GLExtensions.obj
 0002:00007d20       ??_C@_0BH@BJJAKPAO@glVertexAttrib4NuivARB@ 00000001400abd20     sfml-graphics-s:GLExtensions.obj
 0002:00007d38       ??_C@_0BH@LLNNIOPD@glVertexAttrib4NusvARB@ 00000001400abd38     sfml-graphics-s:GLExtensions.obj
 0002:00007d50       ??_C@_0BF@ODLDFPHC@glVertexAttrib4bvARB@ 00000001400abd50     sfml-graphics-s:GLExtensions.obj
 0002:00007d68       ??_C@_0BE@POJIHKPE@glVertexAttrib4dARB@ 00000001400abd68     sfml-graphics-s:GLExtensions.obj
 0002:00007d80       ??_C@_0BF@DFOKLMGP@glVertexAttrib4dvARB@ 00000001400abd80     sfml-graphics-s:GLExtensions.obj
 0002:00007d98       ??_C@_0BE@IEFICJJE@glVertexAttrib4fARB@ 00000001400abd98     sfml-graphics-s:GLExtensions.obj
 0002:00007db0       ??_C@_0BF@HICCBNGE@glVertexAttrib4fvARB@ 00000001400abdb0     sfml-graphics-s:GLExtensions.obj
 0002:00007dc8       ??_C@_0BF@IJHEKPLB@glVertexAttrib4ivARB@ 00000001400abdc8     sfml-graphics-s:GLExtensions.obj
 0002:00007de0       ??_C@_0BE@CMFIDBGG@glVertexAttrib4sARB@ 00000001400abde0     sfml-graphics-s:GLExtensions.obj
 0002:00007df8       ??_C@_0BF@CLDJIOEM@glVertexAttrib4svARB@ 00000001400abdf8     sfml-graphics-s:GLExtensions.obj
 0002:00007e10       ??_C@_0BG@LBCFDJC@glVertexAttrib4ubvARB@ 00000001400abe10     sfml-graphics-s:GLExtensions.obj
 0002:00007e28       ??_C@_0BG@GBNFKDFB@glVertexAttrib4uivARB@ 00000001400abe28     sfml-graphics-s:GLExtensions.obj
 0002:00007e40       ??_C@_0BG@MDJIICKM@glVertexAttrib4usvARB@ 00000001400abe40     sfml-graphics-s:GLExtensions.obj
 0002:00007e58       ??_C@_0BJ@KNOILOPF@glVertexAttribPointerARB@ 00000001400abe58     sfml-graphics-s:GLExtensions.obj
 0002:00007e78       ??_C@_0BI@HAONMJFP@glBindAttribLocationARB@ 00000001400abe78     sfml-graphics-s:GLExtensions.obj
 0002:00007e90       ??_C@_0BF@NFLELGHN@glGetActiveAttribARB@ 00000001400abe90     sfml-graphics-s:GLExtensions.obj
 0002:00007ea8       ??_C@_0BH@BINIAJMB@glGetAttribLocationARB@ 00000001400abea8     sfml-graphics-s:GLExtensions.obj
 0002:00007ec0       ??_C@_0BG@NEEPLLAI@glDepthRangeArraydvNV@ 00000001400abec0     sfml-graphics-s:GLExtensions.obj
 0002:00007ed8       ??_C@_0BH@JEJOCJBI@glDepthRangeIndexeddNV@ 00000001400abed8     sfml-graphics-s:GLExtensions.obj
 0002:00007ef0       ??_C@_0BL@INMJGNKI@glBlendEquationSeparateEXT@ 00000001400abef0     sfml-graphics-s:GLExtensions.obj
 0002:00007f10       ??_C@_0BH@GFPLHCKF@glBlendFuncSeparateEXT@ 00000001400abf10     sfml-graphics-s:GLExtensions.obj
 0002:00007f28       ??_C@_0BD@CFOJJHII@glBlendEquationEXT@ 00000001400abf28     sfml-graphics-s:GLExtensions.obj
 0002:00007f40       ??_C@_0BE@EDHFEHBO@glCopyTexImage1DEXT@ 00000001400abf40     sfml-graphics-s:GLExtensions.obj
 0002:00007f58       ??_C@_0BE@MFOBDFLA@glCopyTexImage2DEXT@ 00000001400abf58     sfml-graphics-s:GLExtensions.obj
 0002:00007f70       ??_C@_0BH@PGHCOMMF@glCopyTexSubImage1DEXT@ 00000001400abf70     sfml-graphics-s:GLExtensions.obj
 0002:00007f88       ??_C@_0BH@HAOGJOGL@glCopyTexSubImage2DEXT@ 00000001400abf88     sfml-graphics-s:GLExtensions.obj
 0002:00007fa0       ??_C@_0BH@LLLKENMO@glCopyTexSubImage3DEXT@ 00000001400abfa0     sfml-graphics-s:GLExtensions.obj
 0002:00007fb8       ??_C@_0BF@GOMLACDI@glBlitFramebufferEXT@ 00000001400abfb8     sfml-graphics-s:GLExtensions.obj
 0002:00007fd0       ??_C@_0CE@IGIMMIPN@glRenderbufferStorageMultisampl@ 00000001400abfd0     sfml-graphics-s:GLExtensions.obj
 0002:00007ff8       ??_C@_0BF@EMIECBAK@glBindFramebufferEXT@ 00000001400abff8     sfml-graphics-s:GLExtensions.obj
 0002:00008010       ??_C@_0BG@GLKALDNN@glBindRenderbufferEXT@ 00000001400ac010     sfml-graphics-s:GLExtensions.obj
 0002:00008028       ??_C@_0BM@GOHPHGGE@glCheckFramebufferStatusEXT@ 00000001400ac028     sfml-graphics-s:GLExtensions.obj
 0002:00008048       ??_C@_0BI@NPEJNLO@glDeleteFramebuffersEXT@ 00000001400ac048     sfml-graphics-s:GLExtensions.obj
 0002:00008060       ??_C@_0BJ@FCLEPNJL@glDeleteRenderbuffersEXT@ 00000001400ac060     sfml-graphics-s:GLExtensions.obj
 0002:00008080       ??_C@_0BN@BAGKOCJP@glFramebufferRenderbufferEXT@ 00000001400ac080     sfml-graphics-s:GLExtensions.obj
 0002:000080a0       ??_C@_0BK@DDHFDNIL@glFramebufferTexture1DEXT@ 00000001400ac0a0     sfml-graphics-s:GLExtensions.obj
 0002:000080c0       ??_C@_0BK@LFOBEPCF@glFramebufferTexture2DEXT@ 00000001400ac0c0     sfml-graphics-s:GLExtensions.obj
 0002:000080e0       ??_C@_0BK@HOLNJMIA@glFramebufferTexture3DEXT@ 00000001400ac0e0     sfml-graphics-s:GLExtensions.obj
 0002:00008100       ??_C@_0BF@FFIJGJAM@glGenFramebuffersEXT@ 00000001400ac100     sfml-graphics-s:GLExtensions.obj
 0002:00008118       ??_C@_0BG@HHIDFCMP@glGenRenderbuffersEXT@ 00000001400ac118     sfml-graphics-s:GLExtensions.obj
 0002:00008130       ??_C@_0BE@CIGLHJJK@glGenerateMipmapEXT@ 00000001400ac130     sfml-graphics-s:GLExtensions.obj
 0002:00008148       ??_C@_0CJ@GLBPNGII@glGetFramebufferAttachmentParam@ 00000001400ac148     sfml-graphics-s:GLExtensions.obj
 0002:00008178       ??_C@_0CA@NHMNLBAE@glGetRenderbufferParameterivEXT@ 00000001400ac178     sfml-graphics-s:GLExtensions.obj
 0002:00008198       ??_C@_0BD@MIGPBMHK@glIsFramebufferEXT@ 00000001400ac198     sfml-graphics-s:GLExtensions.obj
 0002:000081b0       ??_C@_0BE@DLCBCJNM@glIsRenderbufferEXT@ 00000001400ac1b0     sfml-graphics-s:GLExtensions.obj
 0002:000081c8       ??_C@_0BJ@NPDAOAPK@glRenderbufferStorageEXT@ 00000001400ac1c8     sfml-graphics-s:GLExtensions.obj
 0002:000081e8       ??_C@_0BH@PKNCEEOM@glProgramParameteriEXT@ 00000001400ac1e8     sfml-graphics-s:GLExtensions.obj
 0002:00008200       ??_C@_0BD@MHDOEKHM@glTexSubImage1DEXT@ 00000001400ac200     sfml-graphics-s:GLExtensions.obj
 0002:00008218       ??_C@_0BD@EBKKDINC@glTexSubImage2DEXT@ 00000001400ac218     sfml-graphics-s:GLExtensions.obj
 0002:00008230       ??_C@_0BN@JOIJDPEJ@glFramebufferTextureLayerEXT@ 00000001400ac230     sfml-graphics-s:GLExtensions.obj
 0002:00008250       ??_C@_0BJ@LJBONNCK@glAreTexturesResidentEXT@ 00000001400ac250     sfml-graphics-s:GLExtensions.obj
 0002:00008270       ??_C@_0BB@EBKBDLEN@glBindTextureEXT@ 00000001400ac270     sfml-graphics-s:GLExtensions.obj
 0002:00008288       ??_C@_0BE@LDBFENJM@glDeleteTexturesEXT@ 00000001400ac288     sfml-graphics-s:GLExtensions.obj
 0002:000082a0       ??_C@_0BB@GJAECBGO@glGenTexturesEXT@ 00000001400ac2a0     sfml-graphics-s:GLExtensions.obj
 0002:000082b8       ??_C@_0P@BLOFBLLL@glIsTextureEXT@ 00000001400ac2b8     sfml-graphics-s:GLExtensions.obj
 0002:000082c8       ??_C@_0BI@BHBMGKCN@glPrioritizeTexturesEXT@ 00000001400ac2c8     sfml-graphics-s:GLExtensions.obj
 0002:000082e0       ??_C@_0BC@PBPJCKDL@glArrayElementEXT@ 00000001400ac2e0     sfml-graphics-s:GLExtensions.obj
 0002:000082f8       ??_C@_0BC@JAGLJGCN@glColorPointerEXT@ 00000001400ac2f8     sfml-graphics-s:GLExtensions.obj
 0002:00008310       ??_C@_0BA@NIBACEFN@glDrawArraysEXT@ 00000001400ac310     sfml-graphics-s:GLExtensions.obj
 0002:00008320       ??_C@_0BF@LIECLKLC@glEdgeFlagPointerEXT@ 00000001400ac320     sfml-graphics-s:GLExtensions.obj
 0002:00008338       ??_C@_0BB@EPJHLPNN@glGetPointervEXT@ 00000001400ac338     sfml-graphics-s:GLExtensions.obj
 0002:00008350       ??_C@_0BC@DOBCGHJI@glIndexPointerEXT@ 00000001400ac350     sfml-graphics-s:GLExtensions.obj
 0002:00008368       ??_C@_0BD@IBDDMGPJ@glNormalPointerEXT@ 00000001400ac368     sfml-graphics-s:GLExtensions.obj
 0002:00008380       ??_C@_0BF@PKEIBLPO@glTexCoordPointerEXT@ 00000001400ac380     sfml-graphics-s:GLExtensions.obj
 0002:00008398       ??_C@_0BD@IDICNFAP@glVertexPointerEXT@ 00000001400ac398     sfml-graphics-s:GLExtensions.obj
 0002:000083b0       ??_C@_0BI@IALGGLKI@glBlendFuncSeparateINGR@ 00000001400ac3b0     sfml-graphics-s:GLExtensions.obj
 0002:000083c8       ??_C@_0BI@DLCHGKBN@glFramebufferTextureEXT@ 00000001400ac3c8     sfml-graphics-s:GLExtensions.obj
 0002:000083e0       ??_C@_0BM@GHJGPNOI@glFramebufferTextureFaceEXT@ 00000001400ac3e0     sfml-graphics-s:GLExtensions.obj
 0002:00008400       ??_C@_0BH@FCFCFIOB@glProgramVertexLimitNV@ 00000001400ac400     sfml-graphics-s:GLExtensions.obj
 0002:00008418       ??_C@_0BI@IDMBIFPA@glAreProgramsResidentNV@ 00000001400ac418     sfml-graphics-s:GLExtensions.obj
 0002:00008430       ??_C@_0BA@EFGCLOIP@glBindProgramNV@ 00000001400ac430     sfml-graphics-s:GLExtensions.obj
 0002:00008440       ??_C@_0BD@LCEMBAGD@glDeleteProgramsNV@ 00000001400ac440     sfml-graphics-s:GLExtensions.obj
 0002:00008458       ??_C@_0BD@EHHBAHPJ@glExecuteProgramNV@ 00000001400ac458     sfml-graphics-s:GLExtensions.obj
 0002:00008470       ??_C@_0BA@MDJIDCAI@glGenProgramsNV@ 00000001400ac470     sfml-graphics-s:GLExtensions.obj
 0002:00008480       ??_C@_0BK@LCJCCCJD@glGetProgramParameterdvNV@ 00000001400ac480     sfml-graphics-s:GLExtensions.obj
 0002:000084a0       ??_C@_0BK@MIFCHBPD@glGetProgramParameterfvNV@ 00000001400ac4a0     sfml-graphics-s:GLExtensions.obj
 0002:000084c0       ??_C@_0BF@MIBLICIP@glGetProgramStringNV@ 00000001400ac4c0     sfml-graphics-s:GLExtensions.obj
 0002:000084d8       ??_C@_0BB@GBFLIHIL@glGetProgramivNV@ 00000001400ac4d8     sfml-graphics-s:GLExtensions.obj
 0002:000084f0       ??_C@_0BF@MHCKMIOA@glGetTrackMatrixivNV@ 00000001400ac4f0     sfml-graphics-s:GLExtensions.obj
 0002:00008508       ??_C@_0BM@FBGAKENC@glGetVertexAttribPointervNV@ 00000001400ac508     sfml-graphics-s:GLExtensions.obj
 0002:00008528       ??_C@_0BG@OBHBBAIN@glGetVertexAttribdvNV@ 00000001400ac528     sfml-graphics-s:GLExtensions.obj
 0002:00008540       ??_C@_0BG@JLLBEDON@glGetVertexAttribfvNV@ 00000001400ac540     sfml-graphics-s:GLExtensions.obj
 0002:00008558       ??_C@_0BG@BJOBNEDM@glGetVertexAttribivNV@ 00000001400ac558     sfml-graphics-s:GLExtensions.obj
 0002:00008570       ??_C@_0O@EJNFDHB@glIsProgramNV@ 00000001400ac570     sfml-graphics-s:GLExtensions.obj
 0002:00008580       ??_C@_0BA@FMIIKLKD@glLoadProgramNV@ 00000001400ac580     sfml-graphics-s:GLExtensions.obj
 0002:00008590       ??_C@_0BH@IECDKIN@glProgramParameter4dNV@ 00000001400ac590     sfml-graphics-s:GLExtensions.obj
 0002:000085a8       ??_C@_0BI@FIEKGFPD@glProgramParameter4dvNV@ 00000001400ac5a8     sfml-graphics-s:GLExtensions.obj
 0002:000085c0       ??_C@_0BH@KCELPCAG@glProgramParameter4fNV@ 00000001400ac5c0     sfml-graphics-s:GLExtensions.obj
 0002:000085d8       ??_C@_0BI@CCIKDGJD@glProgramParameter4fvNV@ 00000001400ac5d8     sfml-graphics-s:GLExtensions.obj
 0002:000085f0       ??_C@_0BJ@HIKFLGHF@glProgramParameters4dvNV@ 00000001400ac5f0     sfml-graphics-s:GLExtensions.obj
 0002:00008610       ??_C@_0BJ@CGFOFBF@glProgramParameters4fvNV@ 00000001400ac610     sfml-graphics-s:GLExtensions.obj
 0002:00008630       ??_C@_0BM@NPHADIJC@glRequestResidentProgramsNV@ 00000001400ac630     sfml-graphics-s:GLExtensions.obj
 0002:00008650       ??_C@_0BA@KGODFEBP@glTrackMatrixNV@ 00000001400ac650     sfml-graphics-s:GLExtensions.obj
 0002:00008660       ??_C@_0BD@HDGDKPGN@glVertexAttrib1dNV@ 00000001400ac660     sfml-graphics-s:GLExtensions.obj
 0002:00008678       ??_C@_0BE@PIDLKGBO@glVertexAttrib1dvNV@ 00000001400ac678     sfml-graphics-s:GLExtensions.obj
 0002:00008690       ??_C@_0BD@NJGKGHOG@glVertexAttrib1fNV@ 00000001400ac690     sfml-graphics-s:GLExtensions.obj
 0002:000086a8       ??_C@_0BE@ICPLPFHO@glVertexAttrib1fvNV@ 00000001400ac6a8     sfml-graphics-s:GLExtensions.obj
 0002:000086c0       ??_C@_0BD@LOKNMAEL@glVertexAttrib1sNV@ 00000001400ac6c0     sfml-graphics-s:GLExtensions.obj
 0002:000086d8       ??_C@_0BE@CKPLONIM@glVertexAttrib1svNV@ 00000001400ac6d8     sfml-graphics-s:GLExtensions.obj
 0002:000086f0       ??_C@_0BD@DEMDNFLN@glVertexAttrib2dNV@ 00000001400ac6f0     sfml-graphics-s:GLExtensions.obj
 0002:00008708       ??_C@_0BE@HOKPNELA@glVertexAttrib2dvNV@ 00000001400ac708     sfml-graphics-s:GLExtensions.obj
 0002:00008720       ??_C@_0BD@JOMKBNDG@glVertexAttrib2fNV@ 00000001400ac720     sfml-graphics-s:GLExtensions.obj
 0002:00008738       ??_C@_0BE@EGPIHNA@glVertexAttrib2fvNV@ 00000001400ac738     sfml-graphics-s:GLExtensions.obj
 0002:00008750       ??_C@_0BD@PJANLKJL@glVertexAttrib2sNV@ 00000001400ac750     sfml-graphics-s:GLExtensions.obj
 0002:00008768       ??_C@_0BE@KMGPJPCC@glVertexAttrib2svNV@ 00000001400ac768     sfml-graphics-s:GLExtensions.obj
 0002:00008780       ??_C@_0BD@JKDPMAN@glVertexAttrib3dNV@ 00000001400ac780     sfml-graphics-s:GLExtensions.obj
 0002:00008798       ??_C@_0BE@LFPDAHBF@glVertexAttrib3dvNV@ 00000001400ac798     sfml-graphics-s:GLExtensions.obj
 0002:000087b0       ??_C@_0BD@KDKKDEIG@glVertexAttrib3fNV@ 00000001400ac7b0     sfml-graphics-s:GLExtensions.obj
 0002:000087c8       ??_C@_0BE@MPDDFEHF@glVertexAttrib3fvNV@ 00000001400ac7c8     sfml-graphics-s:GLExtensions.obj
 0002:000087e0       ??_C@_0BD@MEGNJDCL@glVertexAttrib3sNV@ 00000001400ac7e0     sfml-graphics-s:GLExtensions.obj
 0002:000087f8       ??_C@_0BE@GHDDEMIH@glVertexAttrib3svNV@ 00000001400ac7f8     sfml-graphics-s:GLExtensions.obj
 0002:00008810       ??_C@_0BD@LLIDCABN@glVertexAttrib4dNV@ 00000001400ac810     sfml-graphics-s:GLExtensions.obj
 0002:00008828       ??_C@_0BE@KIPGDHKN@glVertexAttrib4dvNV@ 00000001400ac828     sfml-graphics-s:GLExtensions.obj
 0002:00008840       ??_C@_0BD@BBIKOIJG@glVertexAttrib4fNV@ 00000001400ac840     sfml-graphics-s:GLExtensions.obj
 0002:00008858       ??_C@_0BE@NCDGGEMN@glVertexAttrib4fvNV@ 00000001400ac858     sfml-graphics-s:GLExtensions.obj
 0002:00008870       ??_C@_0BD@HGENEPDL@glVertexAttrib4sNV@ 00000001400ac870     sfml-graphics-s:GLExtensions.obj
 0002:00008888       ??_C@_0BE@HKDGHMDP@glVertexAttrib4svNV@ 00000001400ac888     sfml-graphics-s:GLExtensions.obj
 0002:000088a0       ??_C@_0BE@CKANEJFH@glVertexAttrib4ubNV@ 00000001400ac8a0     sfml-graphics-s:GLExtensions.obj
 0002:000088b8       ??_C@_0BF@DOGOBBEK@glVertexAttrib4ubvNV@ 00000001400ac8b8     sfml-graphics-s:GLExtensions.obj
 0002:000088d0       ??_C@_0BI@HINEBBOP@glVertexAttribPointerNV@ 00000001400ac8d0     sfml-graphics-s:GLExtensions.obj
 0002:000088e8       ??_C@_0BF@KEELOHGH@glVertexAttribs1dvNV@ 00000001400ac8e8     sfml-graphics-s:GLExtensions.obj
 0002:00008900       ??_C@_0BF@NOILLEAH@glVertexAttribs1fvNV@ 00000001400ac900     sfml-graphics-s:GLExtensions.obj
 0002:00008918       ??_C@_0BF@HGILKMPF@glVertexAttribs1svNV@ 00000001400ac918     sfml-graphics-s:GLExtensions.obj
 0002:00008930       ??_C@_0BF@CCNPJFMJ@glVertexAttribs2dvNV@ 00000001400ac930     sfml-graphics-s:GLExtensions.obj
 0002:00008948       ??_C@_0BF@FIBPMGKJ@glVertexAttribs2fvNV@ 00000001400ac948     sfml-graphics-s:GLExtensions.obj
 0002:00008960       ??_C@_0BF@PABPNOFL@glVertexAttribs2svNV@ 00000001400ac960     sfml-graphics-s:GLExtensions.obj
 0002:00008978       ??_C@_0BF@OJIDEGGM@glVertexAttribs3dvNV@ 00000001400ac978     sfml-graphics-s:GLExtensions.obj
 0002:00008990       ??_C@_0BF@JDEDBFAM@glVertexAttribs3fvNV@ 00000001400ac990     sfml-graphics-s:GLExtensions.obj
 0002:000089a8       ??_C@_0BF@DLEDANPO@glVertexAttribs3svNV@ 00000001400ac9a8     sfml-graphics-s:GLExtensions.obj
 0002:000089c0       ??_C@_0BF@PEIGHGNE@glVertexAttribs4dvNV@ 00000001400ac9c0     sfml-graphics-s:GLExtensions.obj
 0002:000089d8       ??_C@_0BF@IOEGCFLE@glVertexAttribs4fvNV@ 00000001400ac9d8     sfml-graphics-s:GLExtensions.obj
 0002:000089f0       ??_C@_0BF@CGEGDNEG@glVertexAttribs4svNV@ 00000001400ac9f0     sfml-graphics-s:GLExtensions.obj
 0002:00008a08       ??_C@_0BG@BHOLKIJD@glVertexAttribs4ubvNV@ 00000001400aca08     sfml-graphics-s:GLExtensions.obj
 0002:00008a20       ??_C@_0BB@GDHINGME@glClearDepthfOES@ 00000001400aca20     sfml-graphics-s:GLExtensions.obj
 0002:00008a38       ??_C@_0BA@JMAPOOAM@glClipPlanefOES@ 00000001400aca38     sfml-graphics-s:GLExtensions.obj
 0002:00008a48       ??_C@_0BB@NDCACDMD@glDepthRangefOES@ 00000001400aca48     sfml-graphics-s:GLExtensions.obj
 0002:00008a60       ??_C@_0O@ODKBHPMC@glFrustumfOES@ 00000001400aca60     sfml-graphics-s:GLExtensions.obj
 0002:00008a70       ??_C@_0BD@BKDKDAP@glGetClipPlanefOES@ 00000001400aca70     sfml-graphics-s:GLExtensions.obj
 0002:00008a88       ??_C@_0M@GIOJKEML@glOrthofOES@ 00000001400aca88     sfml-graphics-s:GLExtensions.obj
 0002:00008a98       ??_C@_0BJ@EKCAAKBG@GL_ARB_ES2_compatibility@ 00000001400aca98     sfml-graphics-s:GLExtensions.obj
 0002:00008ab8       ??_C@_0BL@EMMAHNAP@GL_ARB_ES3_1_compatibility@ 00000001400acab8     sfml-graphics-s:GLExtensions.obj
 0002:00008ad8       ??_C@_0BF@LBGBLLJA@GL_ARB_base_instance@ 00000001400acad8     sfml-graphics-s:GLExtensions.obj
 0002:00008af0       ??_C@_0BL@HJCIPJMC@GL_ARB_blend_func_extended@ 00000001400acaf0     sfml-graphics-s:GLExtensions.obj
 0002:00008b10       ??_C@_0BG@FDMKKDFD@GL_ARB_buffer_storage@ 00000001400acb10     sfml-graphics-s:GLExtensions.obj
 0002:00008b28       ??_C@_0BL@DOOAPCEA@GL_ARB_clear_buffer_object@ 00000001400acb28     sfml-graphics-s:GLExtensions.obj
 0002:00008b48       ??_C@_0BF@HDHNHFHJ@GL_ARB_clear_texture@ 00000001400acb48     sfml-graphics-s:GLExtensions.obj
 0002:00008b60       ??_C@_0BE@NFGEKHNE@GL_ARB_clip_control@ 00000001400acb60     sfml-graphics-s:GLExtensions.obj
 0002:00008b78       ??_C@_0BG@CCENKDIE@GL_ARB_compute_shader@ 00000001400acb78     sfml-graphics-s:GLExtensions.obj
 0002:00008b90       ??_C@_0BD@IGEHEAFM@GL_ARB_copy_buffer@ 00000001400acb90     sfml-graphics-s:GLExtensions.obj
 0002:00008ba8       ??_C@_0BC@IMNLOGMO@GL_ARB_copy_image@ 00000001400acba8     sfml-graphics-s:GLExtensions.obj
 0002:00008bc0       ??_C@_0BL@PDNNCIDH@GL_ARB_direct_state_access@ 00000001400acbc0     sfml-graphics-s:GLExtensions.obj
 0002:00008be0       ??_C@_0CB@BLEOOCCF@GL_ARB_draw_elements_base_verte@ 00000001400acbe0     sfml-graphics-s:GLExtensions.obj
 0002:00008c08       ??_C@_0BF@OIHOMOBN@GL_ARB_draw_indirect@ 00000001400acc08     sfml-graphics-s:GLExtensions.obj
 0002:00008c20       ??_C@_0BI@LELAEDDA@GL_ARB_fragment_program@ 00000001400acc20     sfml-graphics-s:GLExtensions.obj
 0002:00008c38       ??_C@_0BH@MOFIMEJB@GL_ARB_fragment_shader@ 00000001400acc38     sfml-graphics-s:GLExtensions.obj
 0002:00008c50       ??_C@_0CC@CGMKCMOO@GL_ARB_framebuffer_no_attachmen@ 00000001400acc50     sfml-graphics-s:GLExtensions.obj
 0002:00008c78       ??_C@_0BK@EJHLNENJ@GL_ARB_framebuffer_object@ 00000001400acc78     sfml-graphics-s:GLExtensions.obj
 0002:00008c98       ??_C@_0BI@DHMGIOF@GL_ARB_geometry_shader4@ 00000001400acc98     sfml-graphics-s:GLExtensions.obj
 0002:00008cb0       ??_C@_0BK@HNPMALLK@GL_ARB_get_program_binary@ 00000001400accb0     sfml-graphics-s:GLExtensions.obj
 0002:00008cd0       ??_C@_0BN@IAACIKEI@GL_ARB_get_texture_sub_image@ 00000001400accd0     sfml-graphics-s:GLExtensions.obj
 0002:00008cf0       ??_C@_0BH@JHCDBEBL@GL_ARB_gpu_shader_fp64@ 00000001400accf0     sfml-graphics-s:GLExtensions.obj
 0002:00008d08       ??_C@_0P@GDHEIIHD@GL_ARB_imaging@ 00000001400acd08     sfml-graphics-s:GLExtensions.obj
 0002:00008d18       ??_C@_0BM@CAEGIJIO@GL_ARB_internalformat_query@ 00000001400acd18     sfml-graphics-s:GLExtensions.obj
 0002:00008d38       ??_C@_0BN@OHFALMNP@GL_ARB_internalformat_query2@ 00000001400acd38     sfml-graphics-s:GLExtensions.obj
 0002:00008d58       ??_C@_0BK@HKMBDNBJ@GL_ARB_invalidate_subdata@ 00000001400acd58     sfml-graphics-s:GLExtensions.obj
 0002:00008d78       ??_C@_0BI@KIPAKECP@GL_ARB_map_buffer_range@ 00000001400acd78     sfml-graphics-s:GLExtensions.obj
 0002:00008d90       ??_C@_0BC@HHGOLJHF@GL_ARB_multi_bind@ 00000001400acd90     sfml-graphics-s:GLExtensions.obj
 0002:00008da8       ??_C@_0BL@PDDLDNGB@GL_ARB_multi_draw_indirect@ 00000001400acda8     sfml-graphics-s:GLExtensions.obj
 0002:00008dc8       ??_C@_0BE@MEMOPMEA@GL_ARB_multitexture@ 00000001400acdc8     sfml-graphics-s:GLExtensions.obj
 0002:00008de0       ??_C@_0BM@FIFAJGJE@GL_ARB_polygon_offset_clamp@ 00000001400acde0     sfml-graphics-s:GLExtensions.obj
 0002:00008e00       ??_C@_0BP@DBPLPPLA@GL_ARB_program_interface_query@ 00000001400ace00     sfml-graphics-s:GLExtensions.obj
 0002:00008e20       ??_C@_0BI@NPHNNGHO@GL_ARB_provoking_vertex@ 00000001400ace20     sfml-graphics-s:GLExtensions.obj
 0002:00008e38       ??_C@_0BH@CHCPNBIE@GL_ARB_sampler_objects@ 00000001400ace38     sfml-graphics-s:GLExtensions.obj
 0002:00008e50       ??_C@_0BP@CCMMHIFB@GL_ARB_separate_shader_objects@ 00000001400ace50     sfml-graphics-s:GLExtensions.obj
 0002:00008e70       ??_C@_0BO@IIINIEKI@GL_ARB_shader_atomic_counters@ 00000001400ace70     sfml-graphics-s:GLExtensions.obj
 0002:00008e90       ??_C@_0BP@JHNJKEFP@GL_ARB_shader_image_load_store@ 00000001400ace90     sfml-graphics-s:GLExtensions.obj
 0002:00008eb0       ??_C@_0BG@OLLFAEMA@GL_ARB_shader_objects@ 00000001400aceb0     sfml-graphics-s:GLExtensions.obj
 0002:00008ec8       ??_C@_0CE@HBCJMOIO@GL_ARB_shader_storage_buffer_ob@ 00000001400acec8     sfml-graphics-s:GLExtensions.obj
 0002:00008ef0       ??_C@_0BJ@EAMBOGJL@GL_ARB_shader_subroutine@ 00000001400acef0     sfml-graphics-s:GLExtensions.obj
 0002:00008f10       ??_C@_0BM@IABMMANC@GL_ARB_shading_language_100@ 00000001400acf10     sfml-graphics-s:GLExtensions.obj
 0002:00008f30       ??_C@_0M@OGKHMI@GL_ARB_sync@ 00000001400acf30     sfml-graphics-s:GLExtensions.obj
 0002:00008f40       ??_C@_0BL@MJOBOBBG@GL_ARB_tessellation_shader@ 00000001400acf40     sfml-graphics-s:GLExtensions.obj
 0002:00008f60       ??_C@_0BH@FNOGDEPL@GL_ARB_texture_barrier@ 00000001400acf60     sfml-graphics-s:GLExtensions.obj
 0002:00008f78       ??_C@_0BM@IPNAGCND@GL_ARB_texture_buffer_range@ 00000001400acf78     sfml-graphics-s:GLExtensions.obj
 0002:00008f98       ??_C@_0BL@JLKLCCCH@GL_ARB_texture_multisample@ 00000001400acf98     sfml-graphics-s:GLExtensions.obj
 0002:00008fb8       ??_C@_0CA@IICOLDCN@GL_ARB_texture_non_power_of_two@ 00000001400acfb8     sfml-graphics-s:GLExtensions.obj
 0002:00008fd8       ??_C@_0BH@KEOKNPHF@GL_ARB_texture_storage@ 00000001400acfd8     sfml-graphics-s:GLExtensions.obj
 0002:00008ff0       ??_C@_0CD@EKHGLAOK@GL_ARB_texture_storage_multisam@ 00000001400acff0     sfml-graphics-s:GLExtensions.obj
 0002:00009018       ??_C@_0BE@HCMLPJMK@GL_ARB_texture_view@ 00000001400ad018     sfml-graphics-s:GLExtensions.obj
 0002:00009030       ??_C@_0BD@HBOIOKNA@GL_ARB_timer_query@ 00000001400ad030     sfml-graphics-s:GLExtensions.obj
 0002:00009048       ??_C@_0BL@EGOBOOAA@GL_ARB_transform_feedback2@ 00000001400ad048     sfml-graphics-s:GLExtensions.obj
 0002:00009068       ??_C@_0BL@FPPKNPEB@GL_ARB_transform_feedback3@ 00000001400ad068     sfml-graphics-s:GLExtensions.obj
 0002:00009088       ??_C@_0CE@HBNDFFCP@GL_ARB_transform_feedback_insta@ 00000001400ad088     sfml-graphics-s:GLExtensions.obj
 0002:000090b0       ??_C@_0BN@GLDJDGLC@GL_ARB_uniform_buffer_object@ 00000001400ad0b0     sfml-graphics-s:GLExtensions.obj
 0002:000090d0       ??_C@_0BL@PNJKGHIL@GL_ARB_vertex_array_object@ 00000001400ad0d0     sfml-graphics-s:GLExtensions.obj
 0002:000090f0       ??_C@_0BL@KMJMBFGI@GL_ARB_vertex_attrib_64bit@ 00000001400ad0f0     sfml-graphics-s:GLExtensions.obj
 0002:00009110       ??_C@_0BN@BGEDEMFB@GL_ARB_vertex_attrib_binding@ 00000001400ad110     sfml-graphics-s:GLExtensions.obj
 0002:00009130       ??_C@_0BM@OOMEFFAE@GL_ARB_vertex_buffer_object@ 00000001400ad130     sfml-graphics-s:GLExtensions.obj
 0002:00009150       ??_C@_0BG@LDHOGOBF@GL_ARB_vertex_program@ 00000001400ad150     sfml-graphics-s:GLExtensions.obj
 0002:00009168       ??_C@_0BF@GNLBPIJF@GL_ARB_vertex_shader@ 00000001400ad168     sfml-graphics-s:GLExtensions.obj
 0002:00009180       ??_C@_0CC@GKEHOMBK@GL_ARB_vertex_type_2_10_10_10_r@ 00000001400ad180     sfml-graphics-s:GLExtensions.obj
 0002:000091a8       ??_C@_0BG@NIIIOCNH@GL_ARB_viewport_array@ 00000001400ad1a8     sfml-graphics-s:GLExtensions.obj
 0002:000091c0       ??_C@_0BP@PPPKEOIM@GL_EXT_blend_equation_separate@ 00000001400ad1c0     sfml-graphics-s:GLExtensions.obj
 0002:000091e0       ??_C@_0BL@OHIMOMCA@GL_EXT_blend_func_separate@ 00000001400ad1e0     sfml-graphics-s:GLExtensions.obj
 0002:00009200       ??_C@_0BE@CICKIAIK@GL_EXT_blend_minmax@ 00000001400ad200     sfml-graphics-s:GLExtensions.obj
 0002:00009218       ??_C@_0BG@ILCIGDKH@GL_EXT_blend_subtract@ 00000001400ad218     sfml-graphics-s:GLExtensions.obj
 0002:00009230       ??_C@_0BE@DFBNEHNH@GL_EXT_copy_texture@ 00000001400ad230     sfml-graphics-s:GLExtensions.obj
 0002:00009248       ??_C@_0BI@HCGEDMJI@GL_EXT_framebuffer_blit@ 00000001400ad248     sfml-graphics-s:GLExtensions.obj
 0002:00009260       ??_C@_0BP@MBELPLHD@GL_EXT_framebuffer_multisample@ 00000001400ad260     sfml-graphics-s:GLExtensions.obj
 0002:00009280       ??_C@_0BK@GDONINOA@GL_EXT_framebuffer_object@ 00000001400ad280     sfml-graphics-s:GLExtensions.obj
 0002:000092a0       ??_C@_0BI@MIAOPMHJ@GL_EXT_geometry_shader4@ 00000001400ad2a0     sfml-graphics-s:GLExtensions.obj
 0002:000092b8       ??_C@_0BM@EBAGAGKL@GL_EXT_packed_depth_stencil@ 00000001400ad2b8     sfml-graphics-s:GLExtensions.obj
 0002:000092d8       ??_C@_0BC@CLMEPFHP@GL_EXT_subtexture@ 00000001400ad2d8     sfml-graphics-s:GLExtensions.obj
 0002:000092f0       ??_C@_0BF@NFIKFJJJ@GL_EXT_texture_array@ 00000001400ad2f0     sfml-graphics-s:GLExtensions.obj
 0002:00009308       ??_C@_0BG@FPPPAJDP@GL_EXT_texture_object@ 00000001400ad308     sfml-graphics-s:GLExtensions.obj
 0002:00009320       ??_C@_0BE@OFNKIPHM@GL_EXT_texture_sRGB@ 00000001400ad320     sfml-graphics-s:GLExtensions.obj
 0002:00009338       ??_C@_0BE@PFGKPDCP@GL_EXT_vertex_array@ 00000001400ad338     sfml-graphics-s:GLExtensions.obj
 0002:00009350       ??_C@_0BM@IBLPOJLK@GL_INGR_blend_func_separate@ 00000001400ad350     sfml-graphics-s:GLExtensions.obj
 0002:00009370       ??_C@_0N@EMKBAJC@GL_KHR_debug@ 00000001400ad370     sfml-graphics-s:GLExtensions.obj
 0002:00009380       ??_C@_0BC@CJJHKOBH@GL_KHR_robustness@ 00000001400ad380     sfml-graphics-s:GLExtensions.obj
 0002:00009398       ??_C@_0BI@OIGDMHOE@GL_NV_geometry_program4@ 00000001400ad398     sfml-graphics-s:GLExtensions.obj
 0002:000093b0       ??_C@_0BF@DFHLNMLP@GL_NV_vertex_program@ 00000001400ad3b0     sfml-graphics-s:GLExtensions.obj
 0002:000093c8       ??_C@_0BI@PHJBAGMB@GL_OES_single_precision@ 00000001400ad3c8     sfml-graphics-s:GLExtensions.obj
 0002:000093e0       ??_C@_0BL@JOCOPCOL@GL_SGIS_texture_edge_clamp@ 00000001400ad3e0     sfml-graphics-s:GLExtensions.obj
 0002:00009400       ??_C@_0O@ENGHJHNB@OpenGL?5ES?9CM?5@ 00000001400ad400     sfml-graphics-s:GLExtensions.obj
 0002:00009410       ??_C@_0O@EMKFPNOG@OpenGL?5ES?9CL?5@ 00000001400ad410     sfml-graphics-s:GLExtensions.obj
 0002:00009420       ??_C@_0L@JLFHOCGA@OpenGL?5ES?5@ 00000001400ad420     sfml-graphics-s:GLExtensions.obj
 0002:0000942c       ??_C@_05KBEOJPB@?$CFd?4?$CFd@ 00000001400ad42c     sfml-graphics-s:GLExtensions.obj
 0002:00009438       ??_C@_0DJ@JBLEELMN@sfml?9graphics?5requires?5support?5@ 00000001400ad438     sfml-graphics-s:GLExtensions.obj
 0002:000098f0       ??_C@_0CO@HNIHIJAF@Trying?5to?5access?5the?5pixels?5of?5@ 00000001400ad8f0     sfml-graphics-s:Image.obj
 0002:00009920       __real@40000000            00000001400ad920     sfml-graphics-s:View.obj
 0002:00009930       ??_7bad_cast@std@@6B@      00000001400ad930     sfml-graphics-s:Shader.obj
 0002:00009940       ??_C@_08EPJLHIJG@bad?5cast@ 00000001400ad940     sfml-graphics-s:Shader.obj
 0002:00009950       ??_C@_0EO@EGDFBEKC@?$CIyou?5should?5test?5Shader?3?3isAvai@ 00000001400ad950     sfml-graphics-s:Shader.obj
 0002:000099a0       ??_C@_0EG@PGIMEIF@Failed?5to?5bind?5or?5unbind?5shader@ 00000001400ad9a0     sfml-graphics-s:Shader.obj
 0002:00009a68       ??_C@_02LMMGGCAJ@?3?5@     00000001400ada68     sfml-system-s:Utils.obj
 0002:00009a78       ??_7filesystem_error@filesystem@std@@6B@ 00000001400ada78     sfml-system-s:Utils.obj
 0002:00009a88       ??_C@_03NONCDIOG@?3?5?$CC@ 00000001400ada88     sfml-system-s:Utils.obj
 0002:00009a8c       ??_C@_04PHMHGEMA@?$CC?0?5?$CC@ 00000001400ada8c     sfml-system-s:Utils.obj
 0002:00009a98       ??_C@_08KPFDDLMF@absolute@ 00000001400ada98     sfml-system-s:Utils.obj
 0002:00009ab0       ??_7?$basic_stringbuf@DU?$char_traits@D@std@@V?$allocator@D@2@@std@@6B@ 00000001400adab0     sfml-system-s:Utils.obj
 0002:00009b30       ??_7?$basic_ostringstream@DU?$char_traits@D@std@@V?$allocator@D@2@@std@@6B@ 00000001400adb30     sfml-system-s:Utils.obj
 0002:00009b38       ??_8?$basic_ostringstream@DU?$char_traits@D@std@@V?$allocator@D@2@@std@@7B@ 00000001400adb38     sfml-system-s:Utils.obj
 0002:00009b40       ??_C@_0BE@LJOBEPPP@?5?5?5?5Absolute?5path?3?5@ 00000001400adb40     sfml-system-s:Utils.obj
 0002:00009b58       ??_C@_0BE@OCNFOMEC@?5?5?5?5Provided?5path?3?5@ 00000001400adb58     sfml-system-s:Utils.obj
 0002:00009b70       __xmm@00000000000000070000000000000000 00000001400adb70     sfml-system-s:Utils.obj
 0002:00009b88       ??_7WindowBase@sf@@6B@     00000001400adb88     sfml-window-s:WindowBase.obj
 0002:00009bc8       ??_7Window@sf@@6B@         00000001400adbc8     sfml-window-s:Window.obj
 0002:00009c38       ??_C@_0CI@IPIMHHEO@Failed?5to?5activate?5the?5window?8s@ 00000001400adc38     sfml-window-s:Window.obj
 0002:00009c60       ??_C@_0DF@PDBOIKOP@Failed?5to?5set?5window?5as?5active?5@ 00000001400adc60     sfml-window-s:Window.obj
 0002:00009c98       ??_C@_0DE@PFCJABKA@Failed?5to?5set?5context?5as?5active@ 00000001400adc98     sfml-window-s:Context.obj
 0002:00009cd0       ??_C@_0DF@LEFGNDHO@Failed?5to?5set?5context?5as?5inacti@ 00000001400adcd0     sfml-window-s:Context.obj
 0002:00009d10       ??_7WindowImpl@priv@sf@@6B@ 00000001400add10     sfml-window-s:WindowImpl.obj
 0002:00009da0       ??_C@_0EL@GFDKMDKN@Creating?5two?5fullscreen?5windows@ 00000001400adda0     sfml-window-s:WindowImpl.obj
 0002:00009df0       ??_C@_0EF@ECIEPEPA@The?5requested?5video?5mode?5is?5not@ 00000001400addf0     sfml-window-s:WindowImpl.obj
 0002:00009e38       ??_C@_02KCGCGHLG@?5?$HN@   00000001400ade38     sfml-window-s:WindowImpl.obj
 0002:00009e40       ??_C@_0BD@NFJIIDIB@?5?$HN?0?5bitsPerPixel?3?5@ 00000001400ade40     sfml-window-s:WindowImpl.obj
 0002:00009e58       ??_C@_0BI@FCBBOEAP@?5?5VideoMode?3?5?$HL?5size?3?5?$HL?5@ 00000001400ade58     sfml-window-s:WindowImpl.obj
 0002:00009e70       ??_C@_0BC@KBDMBKEH@deque?$DMT?$DO?5too?5long@ 00000001400ade70     sfml-window-s:WindowImpl.obj
 0002:00009e90       ??_7GlContext@priv@sf@@6B@ 00000001400ade90     sfml-window-s:GlContext.obj
 0002:00009eb0       ??_C@_0DP@IHONDLPP@Could?5not?5load?5necessary?5functi@ 00000001400adeb0     sfml-window-s:GlContext.obj
 0002:00009ef0       ??_C@_0BE@IBAOCCFG@?0?5defaulting?5to?51?41@ 00000001400adef0     sfml-window-s:GlContext.obj
 0002:00009f08       ??_C@_0CI@HPDPFNBK@Unable?5to?5parse?5OpenGL?5version?5@ 00000001400adf08     sfml-window-s:GlContext.obj
 0002:00009f30       ??_C@_0DM@LHIDBPCG@Unable?5to?5retrieve?5OpenGL?5versi@ 00000001400adf30     sfml-window-s:GlContext.obj
 0002:00009f70       ??_C@_0BF@CJMIIMBG@GL_ARB_compatibility@ 00000001400adf70     sfml-window-s:GlContext.obj
 0002:00009f88       ??_C@_0CO@EABALGKH@Warning?3?5Failed?5to?5enable?5GL_FR@ 00000001400adf88     sfml-window-s:GlContext.obj
 0002:00009fb8       ??_C@_0L@LPPIJIOH@?5?$DL?5sRGB?5?$DN?5@ 00000001400adfb8     sfml-window-s:GlContext.obj
 0002:00009fc8       ??_C@_0M@DEFIMECL@?5?$DL?5debug?5?$DN?5@ 00000001400adfc8     sfml-window-s:GlContext.obj
 0002:00009fd8       ??_C@_0L@CNKBAIFE@?5?$DL?5core?5?$DN?5@ 00000001400adfd8     sfml-window-s:GlContext.obj
 0002:00009fe8       ??_C@_0P@LEDOAIMO@?5?$DL?5AA?5level?5?$DN?5@ 00000001400adfe8     sfml-window-s:GlContext.obj
 0002:00009ff8       ??_C@_0BD@KDFMJMMJ@?5?$DL?5stencil?5bits?5?$DN?5@ 00000001400adff8     sfml-window-s:GlContext.obj
 0002:0000a010       ??_C@_0BB@CMEMOFMC@?5?$DL?5depth?5bits?5?$DN?5@ 00000001400ae010     sfml-window-s:GlContext.obj
 0002:0000a024       ??_C@_01LFCBOECM@?4@       00000001400ae024     sfml-window-s:GlContext.obj
 0002:0000a028       ??_C@_0BE@FOKDOFMI@Created?3?5version?5?$DN?5@ 00000001400ae028     sfml-window-s:GlContext.obj
 0002:0000a040       ??_C@_0BG@ODBLIPPM@Requested?3?5version?5?$DN?5@ 00000001400ae040     sfml-window-s:GlContext.obj
 0002:0000a060       ??_C@_0FJ@JNJNMJDI@Warning?3?5The?5created?5OpenGL?5con@ 00000001400ae060     sfml-window-s:GlContext.obj
 0002:0000a0c8       ??_7?$_Ref_count_obj2@USharedContext@GlContext@priv@sf@@@std@@6B@ 00000001400ae0c8     sfml-window-s:GlContext.obj
 0002:0000a0f0       ??_7?$_Ref_count_obj2@V?$vector@UUnsharedGlObject@Impl@GlContext@priv@sf@@V?$allocator@UUnsharedGlObject@Impl@GlContext@priv@sf@@@std@@@std@@@std@@6B@ 00000001400ae0f0     sfml-window-s:GlContext.obj
 0002:0000a110       ??_C@_0M@OBNMNENK@No?5Joystick@ 00000001400ae110     sfml-window-s:JoystickManager.obj
 0002:0000a120       ??_C@_0CH@PHNMPPGM@?5failed?5to?5open?0?5will?5not?5be?5av@ 00000001400ae120     sfml-window-s:SensorManager.obj
 0002:0000a148       ??_C@_0BB@DIIDCBIG@Warning?3?5sensor?5@ 00000001400ae148     sfml-window-s:SensorManager.obj
 0002:0000a160       ??_C@_1BI@OFLOOIFL@?$AAS?$AAF?$AAM?$AAL?$AA_?$AAW?$AAi?$AAn?$AAd?$AAo?$AAw@ 00000001400ae160     sfml-window-s:WindowImplWin32.obj
 0002:0000a180       ??_7WindowImplWin32@priv@sf@@6B@ 00000001400ae180     sfml-window-s:WindowImplWin32.obj
 0002:0000a220       ??_C@_1BG@LFCNCFLB@?$AAS?$AAh?$AAc?$AAo?$AAr?$AAe?$AA?4?$AAd?$AAl?$AAl@ 00000001400ae220     sfml-window-s:WindowImplWin32.obj
 0002:0000a238       ??_C@_0BH@DGFLCCMF@SetProcessDpiAwareness@ 00000001400ae238     sfml-window-s:WindowImplWin32.obj
 0002:0000a250       ??_C@_0CE@LKLKMAMK@Failed?5to?5set?5process?5DPI?5aware@ 00000001400ae250     sfml-window-s:WindowImplWin32.obj
 0002:0000a278       ??_C@_1BG@OILDLIOJ@?$AAu?$AAs?$AAe?$AAr?$AA3?$AA2?$AA?4?$AAd?$AAl?$AAl@ 00000001400ae278     sfml-window-s:WindowImplWin32.obj
 0002:0000a290       ??_C@_0BD@ENICNPLM@SetProcessDPIAware@ 00000001400ae290     sfml-window-s:WindowImplWin32.obj
 0002:0000a2a8       ??_C@_0CF@DAENCLDP@Failed?5to?5initialize?5raw?5mouse?5@ 00000001400ae2a8     sfml-window-s:WindowImplWin32.obj
 0002:0000a2d0       ??_C@_0CA@PNCHEHAF@Failed?5to?5set?5the?5window?8s?5icon@ 00000001400ae2d0     sfml-window-s:WindowImplWin32.obj
 0002:0000a2f0       ??_C@_0CN@LPFOCIJI@Failed?5to?5change?5display?5mode?5f@ 00000001400ae2f0     sfml-window-s:WindowImplWin32.obj
 0002:0000a320       __real@42f00000            00000001400ae320     sfml-window-s:WindowImplWin32.obj
 0002:0000a328       ??_C@_0P@GDACEMPM@Unknown?5error?4@ 00000001400ae328     sfml-window-s:WglContext.obj
 0002:0000a340       ??_7WglContext@priv@sf@@6B@ 00000001400ae340     sfml-window-s:WglContext.obj
 0002:0000a360       ??_C@_0BL@PDDHMPGF@wglCreateContextAttribsARB@ 00000001400ae360     sfml-window-s:WglContext.obj
 0002:0000a380       ??_C@_0BK@JOBLJGNA@wglGetExtensionsStringARB@ 00000001400ae380     sfml-window-s:WglContext.obj
 0002:0000a3a0       ??_C@_0BE@EEGPJDJE@wglCreatePbufferARB@ 00000001400ae3a0     sfml-window-s:WglContext.obj
 0002:0000a3b8       ??_C@_0BF@NBNLOHEN@wglDestroyPbufferARB@ 00000001400ae3b8     sfml-window-s:WglContext.obj
 0002:0000a3d0       ??_C@_0BD@PBENHCEO@wglGetPbufferDCARB@ 00000001400ae3d0     sfml-window-s:WglContext.obj
 0002:0000a3e8       ??_C@_0BD@HDEONFON@wglQueryPbufferARB@ 00000001400ae3e8     sfml-window-s:WglContext.obj
 0002:0000a400       ??_C@_0BH@GHMHENEG@wglReleasePbufferDCARB@ 00000001400ae400     sfml-window-s:WglContext.obj
 0002:0000a418       ??_C@_0BI@JPMGGILH@wglChoosePixelFormatARB@ 00000001400ae418     sfml-window-s:WglContext.obj
 0002:0000a430       ??_C@_0BN@JCPBBKNI@wglGetPixelFormatAttribfvARB@ 00000001400ae430     sfml-window-s:WglContext.obj
 0002:0000a450       ??_C@_0BN@GDKHKIAN@wglGetPixelFormatAttribivARB@ 00000001400ae450     sfml-window-s:WglContext.obj
 0002:0000a470       ??_C@_0BK@HGDBIG@wglGetExtensionsStringEXT@ 00000001400ae470     sfml-window-s:WglContext.obj
 0002:0000a490       ??_C@_0BG@EDKPJPEA@wglGetSwapIntervalEXT@ 00000001400ae490     sfml-window-s:WglContext.obj
 0002:0000a4a8       ??_C@_0BD@IINOPBDD@wglSwapIntervalEXT@ 00000001400ae4a8     sfml-window-s:WglContext.obj
 0002:0000a4c0       ??_C@_0BH@NCJDMLMG@WGL_ARB_create_context@ 00000001400ae4c0     sfml-window-s:WglContext.obj
 0002:0000a4d8       ??_C@_0BP@JAOBDJGN@WGL_ARB_create_context_profile@ 00000001400ae4d8     sfml-window-s:WglContext.obj
 0002:0000a4f8       ??_C@_0BK@LPCGJOMM@WGL_ARB_extensions_string@ 00000001400ae4f8     sfml-window-s:WglContext.obj
 0002:0000a518       ??_C@_0BJ@CIMJOHKL@WGL_ARB_framebuffer_sRGB@ 00000001400ae518     sfml-window-s:WglContext.obj
 0002:0000a538       ??_C@_0BE@BMOJHNDI@WGL_ARB_multisample@ 00000001400ae538     sfml-window-s:WglContext.obj
 0002:0000a550       ??_C@_0BA@DOKENKKH@WGL_ARB_pbuffer@ 00000001400ae550     sfml-window-s:WglContext.obj
 0002:0000a560       ??_C@_0BF@OGGDOHFN@WGL_ARB_pixel_format@ 00000001400ae560     sfml-window-s:WglContext.obj
 0002:0000a578       ??_C@_0BK@EGFEDDDH@WGL_EXT_extensions_string@ 00000001400ae578     sfml-window-s:WglContext.obj
 0002:0000a598       ??_C@_0BJ@ODLLHDDH@WGL_EXT_framebuffer_sRGB@ 00000001400ae598     sfml-window-s:WglContext.obj
 0002:0000a5b8       ??_C@_0BF@NPDKPIKE@WGL_EXT_swap_control@ 00000001400ae5b8     sfml-window-s:WglContext.obj
 0002:0000a5d0       ??_C@_0N@PGFJDFHF@OpenGL32?4dll@ 00000001400ae5d0     sfml-window-s:WglContext.obj
 0002:0000a5e0       ??_C@_0BC@GJAGFPFB@?5OpenGL?5context?3?5@ 00000001400ae5e0     sfml-window-s:WglContext.obj
 0002:0000a5f8       ??_C@_08IFCMKJCD@activate@ 00000001400ae5f8     sfml-window-s:WglContext.obj
 0002:0000a608       ??_C@_0L@NPGBCGOP@deactivate@ 00000001400ae608     sfml-window-s:WglContext.obj
 0002:0000a618       ??_C@_0L@FKFMOOIE@Failed?5to?5@ 00000001400ae618     sfml-window-s:WglContext.obj
 0002:0000a628       ??_C@_0BP@NNODJOML@Setting?5vertical?5sync?5failed?3?5@ 00000001400ae628     sfml-window-s:WglContext.obj
 0002:0000a648       ??_C@_0CE@NBOBMG@Setting?5vertical?5sync?5not?5suppo@ 00000001400ae648     sfml-window-s:WglContext.obj
 0002:0000a6c8       ??_C@_0CE@KAHAFFMH@Failed?5to?5enumerate?5pixel?5forma@ 00000001400ae6c8     sfml-window-s:WglContext.obj
 0002:0000a6f0       ??_C@_0CO@DAHCNAAF@Failed?5to?5retrieve?5pixel?5format@ 00000001400ae6f0     sfml-window-s:WglContext.obj
 0002:0000a720       ??_C@_0DM@OPKGBMLJ@Failed?5to?5retrieve?5pixel?5format@ 00000001400ae720     sfml-window-s:WglContext.obj
 0002:0000a760       ??_C@_0DO@GDIFMGMA@Failed?5to?5retrieve?5pixel?5format@ 00000001400ae760     sfml-window-s:WglContext.obj
 0002:0000a7a0       ??_C@_0DG@DIICGIPC@Failed?5to?5retrieve?5pixel?5format@ 00000001400ae7a0     sfml-window-s:WglContext.obj
 0002:0000a7d8       ??_C@_0BN@BLPICPJD@Cannot?5create?5OpenGL?5context@ 00000001400ae7d8     sfml-window-s:WglContext.obj
 0002:0000a7f8       ??_C@_0DM@DGFOOMIL@Failed?5to?5find?5a?5suitable?5pixel@ 00000001400ae7f8     sfml-window-s:WglContext.obj
 0002:0000a838       ??_C@_0DA@LGJCIEDC@Failed?5to?5set?5pixel?5format?5for?5@ 00000001400ae838     sfml-window-s:WglContext.obj
 0002:0000a880       ??_C@_0CG@IEFKHNPH@Failed?5to?5get?5selected?5pixel?5fo@ 00000001400ae880     sfml-window-s:WglContext.obj
 0002:0000a8b0       ??_C@_0EM@ECPLAMCJ@Warning?3?5Detected?5?$CCMicrosoft?5Co@ 00000001400ae8b0     sfml-window-s:WglContext.obj
 0002:0000a900       ??_C@_0GD@BELLHPLL@Warning?3?5The?5?$CCMicrosoft?5Corpora@ 00000001400ae900     sfml-window-s:WglContext.obj
 0002:0000a970       ??_C@_0DB@FMEENDEM@Failed?5to?5retrieve?5pixel?5buffer@ 00000001400ae970     sfml-window-s:WglContext.obj
 0002:0000a9a8       ??_C@_0CA@PFKLPMEM@Failed?5to?5create?5pixel?5buffer?3?5@ 00000001400ae9a8     sfml-window-s:WglContext.obj
 0002:0000a9c8       ??_C@_06GCFCNKMP@STATIC@   00000001400ae9c8     sfml-window-s:WglContext.obj
 0002:0000a9d0       ??_C@_0CC@NHIKLPMA@disabling?5compatibility?5and?5deb@ 00000001400ae9d0     sfml-window-s:WglContext.obj
 0002:0000a9f8       ??_C@_0DO@ICDDFELO@Selecting?5a?5profile?5during?5cont@ 00000001400ae9f8     sfml-window-s:WglContext.obj
 0002:0000aa38       ??_C@_0DF@PACNIGBO@Failed?5to?5deactivate?5shared?5con@ 00000001400aea38     sfml-window-s:WglContext.obj
 0002:0000aa70       ??_C@_0DF@MJIBNFMK@Failed?5to?5create?5an?5OpenGL?5cont@ 00000001400aea70     sfml-window-s:WglContext.obj
 0002:0000aaa8       ??_C@_0CF@JHENPCMN@Failed?5to?5share?5the?5OpenGL?5cont@ 00000001400aeaa8     sfml-window-s:WglContext.obj
 0002:0000ab68       ??_7?$basic_stringbuf@_WU?$char_traits@_W@std@@V?$allocator@_W@2@@std@@6B@ 00000001400aeb68     sfml-window-s:JoystickImpl.obj
 0002:0000abe8       ??_7?$basic_ostringstream@_WU?$char_traits@_W@std@@V?$allocator@_W@2@@std@@6B@ 00000001400aebe8     sfml-window-s:JoystickImpl.obj
 0002:0000abf0       ??_8?$basic_ostringstream@_WU?$char_traits@_W@std@@V?$allocator@_W@2@@std@@7B@ 00000001400aebf0     sfml-window-s:JoystickImpl.obj
 0002:0000abf8       ??_C@_0BB@EOJNGNKL@Unknown?5Joystick@ 00000001400aebf8     sfml-window-s:JoystickImpl.obj
 0002:0000ac10       ??_C@_1HC@PJNMBHHH@?$AAS?$AAy?$AAs?$AAt?$AAe?$AAm?$AA?2?$AAC?$AAu?$AAr?$AAr?$AAe?$AAn?$AAt?$AAC@ 00000001400aec10     sfml-window-s:JoystickImpl.obj
 0002:0000ac88       ??_C@_1DA@MEKOJHIM@?$AAC?$AAu?$AAr?$AAr?$AAe?$AAn?$AAt?$AAJ?$AAo?$AAy?$AAs?$AAt?$AAi?$AAc?$AAk@ 00000001400aec88     sfml-window-s:JoystickImpl.obj
 0002:0000acb8       ??_C@_0CP@OJMJHGLA@Unable?5to?5open?5registry?5for?5joy@ 00000001400aecb8     sfml-window-s:JoystickImpl.obj
 0002:0000ace8       ??_C@_1BC@MCOLODGF@?$AAJ?$AAo?$AAy?$AAs?$AAt?$AAi?$AAc?$AAk@ 00000001400aece8     sfml-window-s:JoystickImpl.obj
 0002:0000ad00       ??_C@_1BA@PMKGIGGL@?$AAO?$AAE?$AAM?$AAN?$AAa?$AAm?$AAe@ 00000001400aed00     sfml-window-s:JoystickImpl.obj
 0002:0000ad10       ??_C@_0DE@KJLFAJDB@Unable?5to?5query?5registry?5key?5fo@ 00000001400aed10     sfml-window-s:JoystickImpl.obj
 0002:0000ad50       ??_C@_1KA@HABJAIPK@?$AAS?$AAy?$AAs?$AAt?$AAe?$AAm?$AA?2?$AAC?$AAu?$AAr?$AAr?$AAe?$AAn?$AAt?$AAC@ 00000001400aed50     sfml-window-s:JoystickImpl.obj
 0002:0000adf0       ??_C@_0DD@HCODDJLL@Unable?5to?5open?5registry?5key?5for@ 00000001400aedf0     sfml-window-s:JoystickImpl.obj
 0002:0000ae28       ??_C@_0CM@HJLLFMKH@Unable?5to?5query?5name?5for?5joysti@ 00000001400aee28     sfml-window-s:JoystickImpl.obj
 0002:0000ae60       ??_C@_0EA@DCNDMMIM@DirectInput?5not?5available?0?5fall@ 00000001400aee60     sfml-window-s:JoystickImpl.obj
 0002:0000aea0       ??_C@_0M@ONOEDIJO@dinput8?4dll@ 00000001400aeea0     sfml-window-s:JoystickImpl.obj
 0002:0000aeb0       ??_C@_0BD@IJCCAMHG@DirectInput8Create@ 00000001400aeeb0     sfml-window-s:JoystickImpl.obj
 0002:0000aec8       ??_C@_0CD@JEBOMNAC@Failed?5to?5initialize?5DirectInpu@ 00000001400aeec8     sfml-window-s:JoystickImpl.obj
 0002:0000aef0       ??_C@_0CK@CHMDGMDI@Failed?5to?5enumerate?5DirectInput@ 00000001400aeef0     sfml-window-s:JoystickImpl.obj
 0002:0000af20       ??_C@_0CG@GCOLPAIL@Failed?5to?5create?5DirectInput?5de@ 00000001400aef20     sfml-window-s:JoystickImpl.obj
 0002:0000af48       ??_C@_0CP@JALPHNLL@Failed?5to?5set?5DirectInput?5devic@ 00000001400aef48     sfml-window-s:JoystickImpl.obj
 0002:0000af78       ??_C@_0DA@KPFGKEDJ@Failed?5to?5get?5DirectInput?5devic@ 00000001400aef78     sfml-window-s:JoystickImpl.obj
 0002:0000afa8       ??_C@_0DB@OGIKFDGM@Failed?5to?5enumerate?5DirectInput@ 00000001400aefa8     sfml-window-s:JoystickImpl.obj
 0002:0000afe0       ??_C@_0DH@NGNJGKL@Failed?5to?5get?5DirectInput?5devic@ 00000001400aefe0     sfml-window-s:JoystickImpl.obj
 0002:0000b018       ??_C@_0DK@OKDNOBNP@Failed?5to?5verify?5DirectInput?5de@ 00000001400af018     sfml-window-s:JoystickImpl.obj
 0002:0000b058       ??_C@_0DJ@IGLLEDJI@Failed?5to?5set?5DirectInput?5devic@ 00000001400af058     sfml-window-s:JoystickImpl.obj
 0002:0000b098       ??_C@_0CI@HLNDJNGG@Failed?5to?5get?5DirectInput?5devic@ 00000001400af098     sfml-window-s:JoystickImpl.obj
 0002:0000b0c0       ??_C@_0CJ@LHCAKIB@Failed?5to?5get?5DirectInput?5devic@ 00000001400af0c0     sfml-window-s:JoystickImpl.obj
 0002:0000b0f0       ??_C@_0DH@IHCDHEHL@Failed?5to?5set?5DirectInput?5devic@ 00000001400af0f0     sfml-window-s:JoystickImpl.obj
 0002:0000b128       __real@40490fdb            00000001400af128     sfml-window-s:JoystickImpl.obj
 0002:0000b12c       __real@43340000            00000001400af12c     sfml-window-s:JoystickImpl.obj
 0002:0000b130       __real@43480000            00000001400af130     sfml-window-s:JoystickImpl.obj
 0002:0000b134       __real@468ca000            00000001400af134     sfml-window-s:JoystickImpl.obj
 0002:0000b138       __real@46ffff00            00000001400af138     sfml-window-s:JoystickImpl.obj
 0002:0000b140       __xmm@00000000000000030000000000000000 00000001400af140     sfml-window-s:JoystickImpl.obj
 0002:0000b250       ??_C@_1CM@BFAMBNFD@?$AA?$CB?$AAx?$AA?9?$AAs?$AAy?$AAs?$AA?9?$AAd?$AAe?$AAf?$AAa?$AAu?$AAl?$AAt?$AA?9@ 00000001400af250     msvcprt:syserror_import_lib.obj
 0002:0000b280       __xmm@ffffffffffffffffffffffffffffffff 00000001400af280     msvcprt:vector_algorithms.obj
 0002:0000b298       ??_7type_info@@6B@         00000001400af298     MSVCRT:std_type_info_static.obj
 0002:0000b2a0       __dyn_tls_dtor_callback    00000001400af2a0     MSVCRT:tlsdtor.obj
 0002:0000b2a8       __dyn_tls_init_callback    00000001400af2a8     MSVCRT:tlsdyn.obj
 0002:0000b2b0       ??_C@_0P@GHFPNOJB@bad?5allocation@ 00000001400af2b0     MSVCRT:throw_bad_alloc.obj
 0002:0000b370       ??_C@_0BE@LLDKDDBI@FREETYPE_PROPERTIES@ 00000001400af370     freetype:ftinit.obj
 0002:0000b4d0       ??_C@_02PEOAMJM@?4_@       00000001400af4d0     freetype:ftbase.obj
 0002:0000b4d4       ??_C@_05FLPKNBDI@?1rsrc@   00000001400af4d4     freetype:ftbase.obj
 0002:0000b4e0       ??_C@_0BC@OBHLCHMP@?1?4?4namedfork?1rsrc@ 00000001400af4e0     freetype:ftbase.obj
 0002:0000b4f8       ??_C@_0O@FDMCFKOC@resource?4frk?1@ 00000001400af4f8     freetype:ftbase.obj
 0002:0000b508       ??_C@_0L@FGJFJHGF@?4resource?1@ 00000001400af508     freetype:ftbase.obj
 0002:0000b514       ??_C@_01FGNFDNOH@?$CF@     00000001400af514     freetype:ftbase.obj
 0002:0000b518       ??_C@_0O@KCDCBAF@?4AppleDouble?1@ 00000001400af518     freetype:ftbase.obj
 0002:0000b528       ??_C@_0M@NJKHAGNP@font?9format@ 00000001400af528     freetype:ftbase.obj
 0002:0000b534       ??_C@_06LFMFFOBP@ot?9svg@  00000001400af534     freetype:ftbase.obj
 0002:0000b53c       ??_C@_06JCBOBHIA@Type?51@  00000001400af53c     freetype:ftbase.obj
 0002:0000b544       ??_C@_05CNMLIGFM@t1cid@    00000001400af544     freetype:ftbase.obj
 0002:0000b54c       ??_C@_05MJDCDNNA@type1@    00000001400af54c     freetype:ftbase.obj
 0002:0000b554       ??_C@_03IINFADLN@cff@      00000001400af554     freetype:ftbase.obj
 0002:0000b558       ??_C@_08OKLLNAKL@truetype@ 00000001400af558     freetype:ftbase.obj
 0002:0000b568       ??_C@_07IAOBDJBM@kerning@  00000001400af568     freetype:ftbase.obj
 0002:0000b570       ??_C@_0L@POCJHJKN@glyph?9dict@ 00000001400af570     freetype:ftbase.obj
 0002:0000b580       ??_C@_0BF@GDPJODJF@postscript?9font?9name@ 00000001400af580     freetype:ftbase.obj
 0002:0000b598       ??_C@_0L@MBBJBANC@sfnt?9table@ 00000001400af598     freetype:ftbase.obj
 0002:0000b5a8       ??_C@_08OHCKCLF@tt?9cmaps@ 00000001400af5a8     freetype:ftbase.obj
 0002:0000b5b8       ??_C@_0L@CIHKIEFA@properties@ 00000001400af5b8     freetype:ftbase.obj
 0002:0000b5c4       ??_C@_06GNKBHGHD@type42@   00000001400af5c4     freetype:ftbase.obj
 0002:0000b5d0       ??_C@_0BA@DHLLBDBB@truetype?9engine@ 00000001400af5d0     freetype:ftbase.obj
 0002:0000b5e0       ??_C@_0BF@GIDENNON@darkening?9parameters@ 00000001400af5e0     freetype:ftbase.obj
 0002:0000b5f8       ??_C@_0P@DGAAAJJA@hinting?9engine@ 00000001400af5f8     freetype:ftbase.obj
 0002:0000b608       ??_C@_05NBLLDENH@adobe@    00000001400af608     freetype:ftbase.obj
 0002:0000b610       ??_C@_0BC@GFOLLGHN@no?9stem?9darkening@ 00000001400af610     freetype:ftbase.obj
 0002:0000b628       ??_C@_0M@LGDPDIPE@random?9seed@ 00000001400af628     freetype:ftbase.obj
 0002:0000b638       ft_bitmap_glyph_class      00000001400af638     freetype:ftglyph.obj
 0002:0000b670       ft_outline_glyph_class     00000001400af670     freetype:ftglyph.obj
 0002:0000b6a8       ft_svg_glyph_class         00000001400af6a8     freetype:ftglyph.obj
 0002:0000b6e0       __xmm@00010000000000000000000000010000 00000001400af6e0     freetype:ftglyph.obj
 0002:0000b720       af_blue_strings            00000001400af720     freetype:autofit.obj
 0002:0000ccc0       af_blue_stringsets         00000001400b0cc0     freetype:autofit.obj
 0002:0000d508       af_autofitter_interface    00000001400b1508     freetype:autofit.obj
 0002:0000d528       autofit_module_class       00000001400b1528     freetype:autofit.obj
 0002:0000d560       af_writing_system_classes  00000001400b1560     freetype:autofit.obj
 0002:0000d588       af_adlm_script_class       00000001400b1588     freetype:autofit.obj
 0002:0000d5b0       af_arab_script_class       00000001400b15b0     freetype:autofit.obj
 0002:0000d5d8       af_armn_script_class       00000001400b15d8     freetype:autofit.obj
 0002:0000d600       af_avst_script_class       00000001400b1600     freetype:autofit.obj
 0002:0000d628       af_bamu_script_class       00000001400b1628     freetype:autofit.obj
 0002:0000d650       af_beng_script_class       00000001400b1650     freetype:autofit.obj
 0002:0000d678       af_buhd_script_class       00000001400b1678     freetype:autofit.obj
 0002:0000d6a0       af_cakm_script_class       00000001400b16a0     freetype:autofit.obj
 0002:0000d6c8       af_cans_script_class       00000001400b16c8     freetype:autofit.obj
 0002:0000d6f0       af_cari_script_class       00000001400b16f0     freetype:autofit.obj
 0002:0000d718       af_cher_script_class       00000001400b1718     freetype:autofit.obj
 0002:0000d740       af_copt_script_class       00000001400b1740     freetype:autofit.obj
 0002:0000d768       af_cprt_script_class       00000001400b1768     freetype:autofit.obj
 0002:0000d790       af_cyrl_script_class       00000001400b1790     freetype:autofit.obj
 0002:0000d7b8       af_deva_script_class       00000001400b17b8     freetype:autofit.obj
 0002:0000d7e0       af_dsrt_script_class       00000001400b17e0     freetype:autofit.obj
 0002:0000d808       af_ethi_script_class       00000001400b1808     freetype:autofit.obj
 0002:0000d830       af_geor_script_class       00000001400b1830     freetype:autofit.obj
 0002:0000d858       af_geok_script_class       00000001400b1858     freetype:autofit.obj
 0002:0000d880       af_glag_script_class       00000001400b1880     freetype:autofit.obj
 0002:0000d8a8       af_goth_script_class       00000001400b18a8     freetype:autofit.obj
 0002:0000d8d0       af_grek_script_class       00000001400b18d0     freetype:autofit.obj
 0002:0000d8f8       af_gujr_script_class       00000001400b18f8     freetype:autofit.obj
 0002:0000d920       af_guru_script_class       00000001400b1920     freetype:autofit.obj
 0002:0000d948       af_hebr_script_class       00000001400b1948     freetype:autofit.obj
 0002:0000d970       af_kali_script_class       00000001400b1970     freetype:autofit.obj
 0002:0000d998       af_khmr_script_class       00000001400b1998     freetype:autofit.obj
 0002:0000d9c0       af_khms_script_class       00000001400b19c0     freetype:autofit.obj
 0002:0000d9e8       af_knda_script_class       00000001400b19e8     freetype:autofit.obj
 0002:0000da10       af_lao_script_class        00000001400b1a10     freetype:autofit.obj
 0002:0000da38       af_latn_script_class       00000001400b1a38     freetype:autofit.obj
 0002:0000da60       af_latb_script_class       00000001400b1a60     freetype:autofit.obj
 0002:0000da88       af_latp_script_class       00000001400b1a88     freetype:autofit.obj
 0002:0000dab0       af_lisu_script_class       00000001400b1ab0     freetype:autofit.obj
 0002:0000dad8       af_mlym_script_class       00000001400b1ad8     freetype:autofit.obj
 0002:0000db00       af_medf_script_class       00000001400b1b00     freetype:autofit.obj
 0002:0000db28       af_mong_script_class       00000001400b1b28     freetype:autofit.obj
 0002:0000db50       af_mymr_script_class       00000001400b1b50     freetype:autofit.obj
 0002:0000db78       af_nkoo_script_class       00000001400b1b78     freetype:autofit.obj
 0002:0000dba0       af_none_script_class       00000001400b1ba0     freetype:autofit.obj
 0002:0000dbc8       af_olck_script_class       00000001400b1bc8     freetype:autofit.obj
 0002:0000dbf0       af_orkh_script_class       00000001400b1bf0     freetype:autofit.obj
 0002:0000dc18       af_osge_script_class       00000001400b1c18     freetype:autofit.obj
 0002:0000dc40       af_osma_script_class       00000001400b1c40     freetype:autofit.obj
 0002:0000dc68       af_rohg_script_class       00000001400b1c68     freetype:autofit.obj
 0002:0000dc90       af_saur_script_class       00000001400b1c90     freetype:autofit.obj
 0002:0000dcb8       af_shaw_script_class       00000001400b1cb8     freetype:autofit.obj
 0002:0000dce0       af_sinh_script_class       00000001400b1ce0     freetype:autofit.obj
 0002:0000dd08       af_sund_script_class       00000001400b1d08     freetype:autofit.obj
 0002:0000dd30       af_taml_script_class       00000001400b1d30     freetype:autofit.obj
 0002:0000dd58       af_tavt_script_class       00000001400b1d58     freetype:autofit.obj
 0002:0000dd80       af_telu_script_class       00000001400b1d80     freetype:autofit.obj
 0002:0000dda8       af_tfng_script_class       00000001400b1da8     freetype:autofit.obj
 0002:0000ddd0       af_thai_script_class       00000001400b1dd0     freetype:autofit.obj
 0002:0000ddf8       af_vaii_script_class       00000001400b1df8     freetype:autofit.obj
 0002:0000de20       af_limb_script_class       00000001400b1e20     freetype:autofit.obj
 0002:0000de48       af_orya_script_class       00000001400b1e48     freetype:autofit.obj
 0002:0000de70       af_sylo_script_class       00000001400b1e70     freetype:autofit.obj
 0002:0000de98       af_tibt_script_class       00000001400b1e98     freetype:autofit.obj
 0002:0000dec0       af_hani_script_class       00000001400b1ec0     freetype:autofit.obj
 0002:0000dee8       af_none_uniranges          00000001400b1ee8     freetype:autofit.obj
 0002:0000def0       af_script_classes          00000001400b1ef0     freetype:autofit.obj
 0002:0000e0d8       af_adlm_dflt_style_class   00000001400b20d8     freetype:autofit.obj
 0002:0000e0f0       af_arab_dflt_style_class   00000001400b20f0     freetype:autofit.obj
 0002:0000e108       af_armn_dflt_style_class   00000001400b2108     freetype:autofit.obj
 0002:0000e120       af_avst_dflt_style_class   00000001400b2120     freetype:autofit.obj
 0002:0000e138       af_bamu_dflt_style_class   00000001400b2138     freetype:autofit.obj
 0002:0000e150       af_beng_dflt_style_class   00000001400b2150     freetype:autofit.obj
 0002:0000e168       af_buhd_dflt_style_class   00000001400b2168     freetype:autofit.obj
 0002:0000e180       af_cakm_dflt_style_class   00000001400b2180     freetype:autofit.obj
 0002:0000e198       af_cans_dflt_style_class   00000001400b2198     freetype:autofit.obj
 0002:0000e1b0       af_cari_dflt_style_class   00000001400b21b0     freetype:autofit.obj
 0002:0000e1c8       af_cher_dflt_style_class   00000001400b21c8     freetype:autofit.obj
 0002:0000e1e0       af_copt_dflt_style_class   00000001400b21e0     freetype:autofit.obj
 0002:0000e1f8       af_cprt_dflt_style_class   00000001400b21f8     freetype:autofit.obj
 0002:0000e210       af_cyrl_c2cp_style_class   00000001400b2210     freetype:autofit.obj
 0002:0000e228       af_cyrl_c2sc_style_class   00000001400b2228     freetype:autofit.obj
 0002:0000e240       af_cyrl_ordn_style_class   00000001400b2240     freetype:autofit.obj
 0002:0000e258       af_cyrl_pcap_style_class   00000001400b2258     freetype:autofit.obj
 0002:0000e270       af_cyrl_sinf_style_class   00000001400b2270     freetype:autofit.obj
 0002:0000e288       af_cyrl_smcp_style_class   00000001400b2288     freetype:autofit.obj
 0002:0000e2a0       af_cyrl_subs_style_class   00000001400b22a0     freetype:autofit.obj
 0002:0000e2b8       af_cyrl_sups_style_class   00000001400b22b8     freetype:autofit.obj
 0002:0000e2d0       af_cyrl_titl_style_class   00000001400b22d0     freetype:autofit.obj
 0002:0000e2e8       af_cyrl_dflt_style_class   00000001400b22e8     freetype:autofit.obj
 0002:0000e300       af_deva_dflt_style_class   00000001400b2300     freetype:autofit.obj
 0002:0000e318       af_dsrt_dflt_style_class   00000001400b2318     freetype:autofit.obj
 0002:0000e330       af_ethi_dflt_style_class   00000001400b2330     freetype:autofit.obj
 0002:0000e348       af_geor_dflt_style_class   00000001400b2348     freetype:autofit.obj
 0002:0000e360       af_geok_dflt_style_class   00000001400b2360     freetype:autofit.obj
 0002:0000e378       af_glag_dflt_style_class   00000001400b2378     freetype:autofit.obj
 0002:0000e390       af_goth_dflt_style_class   00000001400b2390     freetype:autofit.obj
 0002:0000e3a8       af_grek_c2cp_style_class   00000001400b23a8     freetype:autofit.obj
 0002:0000e3c0       af_grek_c2sc_style_class   00000001400b23c0     freetype:autofit.obj
 0002:0000e3d8       af_grek_ordn_style_class   00000001400b23d8     freetype:autofit.obj
 0002:0000e3f0       af_grek_pcap_style_class   00000001400b23f0     freetype:autofit.obj
 0002:0000e408       af_grek_sinf_style_class   00000001400b2408     freetype:autofit.obj
 0002:0000e420       af_grek_smcp_style_class   00000001400b2420     freetype:autofit.obj
 0002:0000e438       af_grek_subs_style_class   00000001400b2438     freetype:autofit.obj
 0002:0000e450       af_grek_sups_style_class   00000001400b2450     freetype:autofit.obj
 0002:0000e468       af_grek_titl_style_class   00000001400b2468     freetype:autofit.obj
 0002:0000e480       af_grek_dflt_style_class   00000001400b2480     freetype:autofit.obj
 0002:0000e498       af_gujr_dflt_style_class   00000001400b2498     freetype:autofit.obj
 0002:0000e4b0       af_guru_dflt_style_class   00000001400b24b0     freetype:autofit.obj
 0002:0000e4c8       af_hebr_dflt_style_class   00000001400b24c8     freetype:autofit.obj
 0002:0000e4e0       af_kali_dflt_style_class   00000001400b24e0     freetype:autofit.obj
 0002:0000e4f8       af_khmr_dflt_style_class   00000001400b24f8     freetype:autofit.obj
 0002:0000e510       af_khms_dflt_style_class   00000001400b2510     freetype:autofit.obj
 0002:0000e528       af_knda_dflt_style_class   00000001400b2528     freetype:autofit.obj
 0002:0000e540       af_lao_dflt_style_class    00000001400b2540     freetype:autofit.obj
 0002:0000e558       af_latn_c2cp_style_class   00000001400b2558     freetype:autofit.obj
 0002:0000e570       af_latn_c2sc_style_class   00000001400b2570     freetype:autofit.obj
 0002:0000e588       af_latn_ordn_style_class   00000001400b2588     freetype:autofit.obj
 0002:0000e5a0       af_latn_pcap_style_class   00000001400b25a0     freetype:autofit.obj
 0002:0000e5b8       af_latn_sinf_style_class   00000001400b25b8     freetype:autofit.obj
 0002:0000e5d0       af_latn_smcp_style_class   00000001400b25d0     freetype:autofit.obj
 0002:0000e5e8       af_latn_subs_style_class   00000001400b25e8     freetype:autofit.obj
 0002:0000e600       af_latn_sups_style_class   00000001400b2600     freetype:autofit.obj
 0002:0000e618       af_latn_titl_style_class   00000001400b2618     freetype:autofit.obj
 0002:0000e630       af_latn_dflt_style_class   00000001400b2630     freetype:autofit.obj
 0002:0000e648       af_latb_dflt_style_class   00000001400b2648     freetype:autofit.obj
 0002:0000e660       af_latp_dflt_style_class   00000001400b2660     freetype:autofit.obj
 0002:0000e678       af_lisu_dflt_style_class   00000001400b2678     freetype:autofit.obj
 0002:0000e690       af_mlym_dflt_style_class   00000001400b2690     freetype:autofit.obj
 0002:0000e6a8       af_medf_dflt_style_class   00000001400b26a8     freetype:autofit.obj
 0002:0000e6c0       af_mong_dflt_style_class   00000001400b26c0     freetype:autofit.obj
 0002:0000e6d8       af_mymr_dflt_style_class   00000001400b26d8     freetype:autofit.obj
 0002:0000e6f0       af_nkoo_dflt_style_class   00000001400b26f0     freetype:autofit.obj
 0002:0000e708       af_none_dflt_style_class   00000001400b2708     freetype:autofit.obj
 0002:0000e720       af_olck_dflt_style_class   00000001400b2720     freetype:autofit.obj
 0002:0000e738       af_orkh_dflt_style_class   00000001400b2738     freetype:autofit.obj
 0002:0000e750       af_osge_dflt_style_class   00000001400b2750     freetype:autofit.obj
 0002:0000e768       af_osma_dflt_style_class   00000001400b2768     freetype:autofit.obj
 0002:0000e780       af_rohg_dflt_style_class   00000001400b2780     freetype:autofit.obj
 0002:0000e798       af_saur_dflt_style_class   00000001400b2798     freetype:autofit.obj
 0002:0000e7b0       af_shaw_dflt_style_class   00000001400b27b0     freetype:autofit.obj
 0002:0000e7c8       af_sinh_dflt_style_class   00000001400b27c8     freetype:autofit.obj
 0002:0000e7e0       af_sund_dflt_style_class   00000001400b27e0     freetype:autofit.obj
 0002:0000e7f8       af_taml_dflt_style_class   00000001400b27f8     freetype:autofit.obj
 0002:0000e810       af_tavt_dflt_style_class   00000001400b2810     freetype:autofit.obj
 0002:0000e828       af_telu_dflt_style_class   00000001400b2828     freetype:autofit.obj
 0002:0000e840       af_tfng_dflt_style_class   00000001400b2840     freetype:autofit.obj
 0002:0000e858       af_thai_dflt_style_class   00000001400b2858     freetype:autofit.obj
 0002:0000e870       af_vaii_dflt_style_class   00000001400b2870     freetype:autofit.obj
 0002:0000e888       af_limb_dflt_style_class   00000001400b2888     freetype:autofit.obj
 0002:0000e8a0       af_orya_dflt_style_class   00000001400b28a0     freetype:autofit.obj
 0002:0000e8b8       af_sylo_dflt_style_class   00000001400b28b8     freetype:autofit.obj
 0002:0000e8d0       af_tibt_dflt_style_class   00000001400b28d0     freetype:autofit.obj
 0002:0000e8e8       af_hani_dflt_style_class   00000001400b28e8     freetype:autofit.obj
 0002:0000e900       af_style_classes           00000001400b2900     freetype:autofit.obj
 0002:0000ebc0       af_latin_writing_system_class 00000001400b2bc0     freetype:autofit.obj
 0002:0000ec00       af_cjk_writing_system_class 00000001400b2c00     freetype:autofit.obj
 0002:0000ec40       af_dummy_writing_system_class 00000001400b2c40     freetype:autofit.obj
 0002:0000ec80       af_adlm_uniranges          00000001400b2c80     freetype:autofit.obj
 0002:0000ec90       af_arab_uniranges          00000001400b2c90     freetype:autofit.obj
 0002:0000ecc8       af_armn_uniranges          00000001400b2cc8     freetype:autofit.obj
 0002:0000ece0       af_avst_uniranges          00000001400b2ce0     freetype:autofit.obj
 0002:0000ecf0       af_bamu_uniranges          00000001400b2cf0     freetype:autofit.obj
 0002:0000ed00       af_beng_uniranges          00000001400b2d00     freetype:autofit.obj
 0002:0000ed10       af_buhd_uniranges          00000001400b2d10     freetype:autofit.obj
 0002:0000ed20       af_cakm_uniranges          00000001400b2d20     freetype:autofit.obj
 0002:0000ed30       af_cans_uniranges          00000001400b2d30     freetype:autofit.obj
 0002:0000ed48       af_cari_uniranges          00000001400b2d48     freetype:autofit.obj
 0002:0000ed58       af_cher_uniranges          00000001400b2d58     freetype:autofit.obj
 0002:0000ed70       af_copt_uniranges          00000001400b2d70     freetype:autofit.obj
 0002:0000ed80       af_cprt_uniranges          00000001400b2d80     freetype:autofit.obj
 0002:0000ed90       af_cyrl_uniranges          00000001400b2d90     freetype:autofit.obj
 0002:0000edc0       af_deva_uniranges          00000001400b2dc0     freetype:autofit.obj
 0002:0000edf8       af_dsrt_uniranges          00000001400b2df8     freetype:autofit.obj
 0002:0000ee08       af_ethi_uniranges          00000001400b2e08     freetype:autofit.obj
 0002:0000ee30       af_geor_uniranges          00000001400b2e30     freetype:autofit.obj
 0002:0000ee48       af_geok_uniranges          00000001400b2e48     freetype:autofit.obj
 0002:0000ee60       af_glag_uniranges          00000001400b2e60     freetype:autofit.obj
 0002:0000ee78       af_goth_uniranges          00000001400b2e78     freetype:autofit.obj
 0002:0000ee88       af_grek_uniranges          00000001400b2e88     freetype:autofit.obj
 0002:0000eea0       af_gujr_uniranges          00000001400b2ea0     freetype:autofit.obj
 0002:0000eeb0       af_guru_uniranges          00000001400b2eb0     freetype:autofit.obj
 0002:0000eec0       af_hebr_uniranges          00000001400b2ec0     freetype:autofit.obj
 0002:0000eed8       af_kali_uniranges          00000001400b2ed8     freetype:autofit.obj
 0002:0000eee8       af_khmr_uniranges          00000001400b2ee8     freetype:autofit.obj
 0002:0000eef8       af_khms_uniranges          00000001400b2ef8     freetype:autofit.obj
 0002:0000ef08       af_knda_uniranges          00000001400b2f08     freetype:autofit.obj
 0002:0000ef18       af_lao_uniranges           00000001400b2f18     freetype:autofit.obj
 0002:0000ef28       af_cans_nonbase_uniranges  00000001400b2f28     freetype:autofit.obj
 0002:0000ef30       af_latn_uniranges          00000001400b2f30     freetype:autofit.obj
 0002:0000f038       af_latb_uniranges          00000001400b3038     freetype:autofit.obj
 0002:0000f058       af_cari_nonbase_uniranges  00000001400b3058     freetype:autofit.obj
 0002:0000f060       af_latp_uniranges          00000001400b3060     freetype:autofit.obj
 0002:0000f0d0       af_lisu_uniranges          00000001400b30d0     freetype:autofit.obj
 0002:0000f0e0       af_mlym_uniranges          00000001400b30e0     freetype:autofit.obj
 0002:0000f0f0       af_medf_uniranges          00000001400b30f0     freetype:autofit.obj
 0002:0000f100       af_mong_uniranges          00000001400b3100     freetype:autofit.obj
 0002:0000f118       af_mymr_uniranges          00000001400b3118     freetype:autofit.obj
 0002:0000f138       af_nkoo_uniranges          00000001400b3138     freetype:autofit.obj
 0002:0000f148       af_olck_uniranges          00000001400b3148     freetype:autofit.obj
 0002:0000f158       af_orkh_uniranges          00000001400b3158     freetype:autofit.obj
 0002:0000f168       af_osge_uniranges          00000001400b3168     freetype:autofit.obj
 0002:0000f178       af_osma_uniranges          00000001400b3178     freetype:autofit.obj
 0002:0000f188       af_rohg_uniranges          00000001400b3188     freetype:autofit.obj
 0002:0000f198       af_saur_uniranges          00000001400b3198     freetype:autofit.obj
 0002:0000f1a8       af_shaw_uniranges          00000001400b31a8     freetype:autofit.obj
 0002:0000f1b8       af_sinh_uniranges          00000001400b31b8     freetype:autofit.obj
 0002:0000f1c8       af_sund_uniranges          00000001400b31c8     freetype:autofit.obj
 0002:0000f1e0       af_taml_uniranges          00000001400b31e0     freetype:autofit.obj
 0002:0000f1f0       af_tavt_uniranges          00000001400b31f0     freetype:autofit.obj
 0002:0000f200       af_telu_uniranges          00000001400b3200     freetype:autofit.obj
 0002:0000f210       af_tfng_uniranges          00000001400b3210     freetype:autofit.obj
 0002:0000f220       af_thai_uniranges          00000001400b3220     freetype:autofit.obj
 0002:0000f230       af_vaii_uniranges          00000001400b3230     freetype:autofit.obj
 0002:0000f240       af_limb_uniranges          00000001400b3240     freetype:autofit.obj
 0002:0000f250       af_orya_uniranges          00000001400b3250     freetype:autofit.obj
 0002:0000f260       af_sylo_uniranges          00000001400b3260     freetype:autofit.obj
 0002:0000f270       af_tibt_uniranges          00000001400b3270     freetype:autofit.obj
 0002:0000f280       af_hani_uniranges          00000001400b3280     freetype:autofit.obj
 0002:0000f390       af_adlm_nonbase_uniranges  00000001400b3390     freetype:autofit.obj
 0002:0000f3a0       af_arab_nonbase_uniranges  00000001400b33a0     freetype:autofit.obj
 0002:0000f440       af_armn_nonbase_uniranges  00000001400b3440     freetype:autofit.obj
 0002:0000f450       af_avst_nonbase_uniranges  00000001400b3450     freetype:autofit.obj
 0002:0000f460       af_bamu_nonbase_uniranges  00000001400b3460     freetype:autofit.obj
 0002:0000f470       af_beng_nonbase_uniranges  00000001400b3470     freetype:autofit.obj
 0002:0000f4a8       af_buhd_nonbase_uniranges  00000001400b34a8     freetype:autofit.obj
 0002:0000f4b8       af_cakm_nonbase_uniranges  00000001400b34b8     freetype:autofit.obj
 0002:0000f4d8       af_cher_nonbase_uniranges  00000001400b34d8     freetype:autofit.obj
 0002:0000f4e0       af_copt_nonbase_uniranges  00000001400b34e0     freetype:autofit.obj
 0002:0000f4f0       af_cprt_nonbase_uniranges  00000001400b34f0     freetype:autofit.obj
 0002:0000f4f8       af_cyrl_nonbase_uniranges  00000001400b34f8     freetype:autofit.obj
 0002:0000f520       af_deva_nonbase_uniranges  00000001400b3520     freetype:autofit.obj
 0002:0000f568       af_dsrt_nonbase_uniranges  00000001400b3568     freetype:autofit.obj
 0002:0000f570       af_ethi_nonbase_uniranges  00000001400b3570     freetype:autofit.obj
 0002:0000f580       af_geor_nonbase_uniranges  00000001400b3580     freetype:autofit.obj
 0002:0000f588       af_geok_nonbase_uniranges  00000001400b3588     freetype:autofit.obj
 0002:0000f590       af_glag_nonbase_uniranges  00000001400b3590     freetype:autofit.obj
 0002:0000f5a0       af_goth_nonbase_uniranges  00000001400b35a0     freetype:autofit.obj
 0002:0000f5a8       af_khms_nonbase_uniranges  00000001400b35a8     freetype:autofit.obj
 0002:0000f5b0       af_grek_nonbase_uniranges  00000001400b35b0     freetype:autofit.obj
 0002:0000f5f0       af_gujr_nonbase_uniranges  00000001400b35f0     freetype:autofit.obj
 0002:0000f628       af_guru_nonbase_uniranges  00000001400b3628     freetype:autofit.obj
 0002:0000f658       af_hebr_nonbase_uniranges  00000001400b3658     freetype:autofit.obj
 0002:0000f688       af_kali_nonbase_uniranges  00000001400b3688     freetype:autofit.obj
 0002:0000f698       af_khmr_nonbase_uniranges  00000001400b3698     freetype:autofit.obj
 0002:0000f6c0       af_knda_nonbase_uniranges  00000001400b36c0     freetype:autofit.obj
 0002:0000f6f8       af_lao_nonbase_uniranges   00000001400b36f8     freetype:autofit.obj
 0002:0000f718       af_latb_nonbase_uniranges  00000001400b3718     freetype:autofit.obj
 0002:0000f720       af_latn_nonbase_uniranges  00000001400b3720     freetype:autofit.obj
 0002:0000f7a8       af_latp_nonbase_uniranges  00000001400b37a8     freetype:autofit.obj
 0002:0000f7b0       af_lisu_nonbase_uniranges  00000001400b37b0     freetype:autofit.obj
 0002:0000f7b8       af_mlym_nonbase_uniranges  00000001400b37b8     freetype:autofit.obj
 0002:0000f7e0       af_medf_nonbase_uniranges  00000001400b37e0     freetype:autofit.obj
 0002:0000f7e8       af_mong_nonbase_uniranges  00000001400b37e8     freetype:autofit.obj
 0002:0000f800       af_mymr_nonbase_uniranges  00000001400b3800     freetype:autofit.obj
 0002:0000f868       af_nkoo_nonbase_uniranges  00000001400b3868     freetype:autofit.obj
 0002:0000f880       af_none_nonbase_uniranges  00000001400b3880     freetype:autofit.obj
 0002:0000f888       af_olck_nonbase_uniranges  00000001400b3888     freetype:autofit.obj
 0002:0000f890       af_orkh_nonbase_uniranges  00000001400b3890     freetype:autofit.obj
 0002:0000f898       af_osge_nonbase_uniranges  00000001400b3898     freetype:autofit.obj
 0002:0000f8a0       af_osma_nonbase_uniranges  00000001400b38a0     freetype:autofit.obj
 0002:0000f8a8       af_rohg_nonbase_uniranges  00000001400b38a8     freetype:autofit.obj
 0002:0000f8b0       af_saur_nonbase_uniranges  00000001400b38b0     freetype:autofit.obj
 0002:0000f8c8       af_shaw_nonbase_uniranges  00000001400b38c8     freetype:autofit.obj
 0002:0000f8d0       af_sinh_nonbase_uniranges  00000001400b38d0     freetype:autofit.obj
 0002:0000f8e8       af_sund_nonbase_uniranges  00000001400b38e8     freetype:autofit.obj
 0002:0000f900       af_taml_nonbase_uniranges  00000001400b3900     freetype:autofit.obj
 0002:0000f920       af_tavt_nonbase_uniranges  00000001400b3920     freetype:autofit.obj
 0002:0000f950       af_telu_nonbase_uniranges  00000001400b3950     freetype:autofit.obj
 0002:0000f980       af_tfng_nonbase_uniranges  00000001400b3980     freetype:autofit.obj
 0002:0000f988       af_thai_nonbase_uniranges  00000001400b3988     freetype:autofit.obj
 0002:0000f9a8       af_vaii_nonbase_uniranges  00000001400b39a8     freetype:autofit.obj
 0002:0000f9b0       af_limb_nonbase_uniranges  00000001400b39b0     freetype:autofit.obj
 0002:0000f9d0       af_orya_nonbase_uniranges  00000001400b39d0     freetype:autofit.obj
 0002:0000fa08       af_sylo_nonbase_uniranges  00000001400b3a08     freetype:autofit.obj
 0002:0000fa30       af_tibt_nonbase_uniranges  00000001400b3a30     freetype:autofit.obj
 0002:0000fa80       af_hani_nonbase_uniranges  00000001400b3a80     freetype:autofit.obj
 0002:0000faa0       af_indic_writing_system_class 00000001400b3aa0     freetype:autofit.obj
 0002:0000fb10       ??_C@_0BE@MOFLNEOP@0?51?52?53?54?55?56?57?58?59@ 00000001400b3b10     freetype:autofit.obj
 0002:0000fb28       ??_C@_09JDCNEMGL@?p?$JO?$KE?$IM?5?p?$JO?$KE?$KO@ 00000001400b3b28     freetype:autofit.obj
 0002:0000fb38       ??_C@_08NGKNFCCA@?Y?$IE?5?X?$KN?5?Y?$IA@ 00000001400b3b38     freetype:autofit.obj
 0002:0000fb44       ??_C@_05EBMEKBIG@?U?$LN?5?U?$IN@ 00000001400b3b44     freetype:autofit.obj
 0002:0000fb4c       ??_C@_04JHGFHPIP@?p?$JA?$KM?$JK@ 00000001400b3b4c     freetype:autofit.obj
 0002:0000fb58       ??_C@_07BADEIFOL@?j?$JL?$IB?5?j?$JL?$KP@ 00000001400b3b58     freetype:autofit.obj
 0002:0000fb60       ??_C@_07MLCFGLFO@?$OA?$KH?$KG?5?$OA?$KH?$KK@ 00000001400b3b60     freetype:autofit.obj
 0002:0000fb68       ??_C@_07MJBNFAPA@?a?$JN?$IL?5?a?$JN?$IP@ 00000001400b3b68     freetype:autofit.obj
 0002:0000fb70       ??_C@_0P@LMDGGGAE@?p?$JB?$IE?$KE?5?p?$JB?$IE?$IJ?5?p?$JB?$IE?$JL@ 00000001400b3b70     freetype:autofit.obj
 0002:0000fb80       ??_C@_07COJDMBCC@?a?$JB?$IM?5?a?$JD?$JK@ 00000001400b3b80     freetype:autofit.obj
 0002:0000fb88       ??_C@_09LEACCEAE@?p?$JA?$IK?$KL?5?p?$JA?$IL?$IJ@ 00000001400b3b88     freetype:autofit.obj
 0002:0000fb98       ??_C@_0M@IIEFPKGE@?a?$IO?$KE?5?a?$IP?$IF?5?j?$KO?$JF@ 00000001400b3b98     freetype:autofit.obj
 0002:0000fba8       ??_C@_07EGBKDBCM@?b?$LC?$JO?5?b?$LC?$JP@ 00000001400b3ba8     freetype:autofit.obj
 0002:0000fbb0       ??_C@_09BIEFHNHC@?p?$JA?$KA?$IF?5?p?$JA?$KA?$KD@ 00000001400b3bb0     freetype:autofit.obj
 0002:0000fbbc       ??_C@_05DBINMJJM@?P?$LO?5?P?$JO@ 00000001400b3bbc     freetype:autofit.obj
 0002:0000fbc8       ??_C@_0M@ODJHCGEP@?$OA?$KE?$KA?5?$OA?$KE?$LF?5?$OA?$KE?$JP@ 00000001400b3bc8     freetype:autofit.obj
 0002:0000fbd8       ??_C@_09JIAMNMOE@?p?$JA?$JA?$IE?5?p?$JA?$JA?$KM@ 00000001400b3bd8     freetype:autofit.obj
 0002:0000fbe4       ??_C@_03CMFJHIMF@?a?$IL?$JA@ 00000001400b3be4     freetype:autofit.obj
 0002:0000fbe8       ??_C@_0BA@HEGJLNGN@?a?$ID?$JI?5?a?$ID?$JE?5?a?$ID?$JA?5?a?$LC?$LP@ 00000001400b3be8     freetype:autofit.obj
 0002:0000fbf8       ??_C@_0M@CHIIFMEI@?a?$IC?$LG?5?a?$IC?$LB?5?b?$LE?$JJ@ 00000001400b3bf8     freetype:autofit.obj
 0002:0000fc08       ??_C@_07JCJJEEE@?b?$LA?$JF?5?b?$LB?$IF@ 00000001400b3c08     freetype:autofit.obj
 0002:0000fc10       ??_C@_0P@OLAOOJHK@?p?$JA?$IM?$LE?5?p?$JA?$IM?$LO?5?p?$JA?$IN?$ID@ 00000001400b3c10     freetype:autofit.obj
 0002:0000fc20       ??_C@_05DKJCDMPM@?N?$LP?5?N?$JP@ 00000001400b3c20     freetype:autofit.obj
 0002:0000fc28       ??_C@_07CMCIOKJD@?$OA?$KK?$JP?5?$OA?$KL?$KG@ 00000001400b3c28     freetype:autofit.obj
 0002:0000fc30       ??_C@_0M@HILMFBKG@?$OA?$KI?$KA?5?$OA?$KI?$LA?5?$OA?$KJ?$KG@ 00000001400b3c30     freetype:autofit.obj
 0002:0000fc3c       ??_C@_02EMJHPBAP@?W?$JN@   00000001400b3c3c     freetype:autofit.obj
 0002:0000fc40       ??_C@_07EPGAKOL@?j?$KE?$IN?5?j?$KE?$IA@ 00000001400b3c40     freetype:autofit.obj
 0002:0000fc48       ??_C@_03OIDAEFJK@?a?$JP?$KA@ 00000001400b3c48     freetype:autofit.obj
 0002:0000fc50       ??_C@_07KCDGDMBN@?a?$KH?$KB?5?a?$KH?$KK@ 00000001400b3c50     freetype:autofit.obj
 0002:0000fc58       ??_C@_07BEADBFJO@?$OA?$LD?$KG?5?$OA?$LC?$KM@ 00000001400b3c58     freetype:autofit.obj
 0002:0000fc60       ??_C@_03LAIOPKDA@?$OA?$LL?$JA@ 00000001400b3c60     freetype:autofit.obj
 0002:0000fc64       ??_C@_05FCCCPEKP@o?5O?50@  00000001400b3c64     freetype:autofit.obj
 0002:0000fc70       ??_C@_07HAIKLPAL@?b?$IC?$JC?5?b?$IC?$IA@ 00000001400b3c70     freetype:autofit.obj
 0002:0000fc78       ??_C@_0M@HBKEJKFL@?a?$LF?$JC?5?a?$LE?$LM?5?b?$IB?$LA@ 00000001400b3c78     freetype:autofit.obj
 0002:0000fc84       ??_C@_03FHMEHKGN@?j?$JD?$LD@ 00000001400b3c84     freetype:autofit.obj
 0002:0000fc88       ??_C@_07PMBMNIKD@?$OA?$LE?$KA?5?$OA?$LE?$LB@ 00000001400b3c88     freetype:autofit.obj
 0002:0000fc90       ??_C@_0P@IBKLCNIK@?p?$JG?$LJ?$KB?5?p?$JG?$LJ?$JL?5?p?$JG?$LJ?$KP@ 00000001400b3c90     freetype:autofit.obj
 0002:0000fca0       ??_C@_07EFJBGIDK@?a?$KB?$IC?5?a?$KA?$KK@ 00000001400b3ca0     freetype:autofit.obj
 0002:0000fca8       ??_C@_0M@JDJALDKB@?a?$IA?$JN?5?a?$IA?$IE?5?a?$IA?$IC@ 00000001400b3ca8     freetype:autofit.obj
 0002:0000fcb4       ??_C@_05HGAHDEFN@?$NP?$IL?5?$NP?$IA@ 00000001400b3cb4     freetype:autofit.obj
 0002:0000fcbc       ??_C@_03OGFBMBEI@?a?$LB?$JL@ 00000001400b3cbc     freetype:autofit.obj
 0002:0000fcc0       ??_C@_04DHPHFLNG@?p?$JA?$LA?$JH@ 00000001400b3cc0     freetype:autofit.obj
 0002:0000fcc8       ??_C@_09CBEPPHOC@?p?$JA?$JD?$IC?5?p?$JA?$JD?$KK@ 00000001400b3cc8     freetype:autofit.obj
 0002:0000fcd8       ??_C@_09OCIHFBNC@?p?$JA?$JC?$IG?5?p?$JA?$JC?$KA@ 00000001400b3cd8     freetype:autofit.obj
 0002:0000fce4       ??_C@_04OKDLEBGP@?p?$JA?$LE?$LA@ 00000001400b3ce4     freetype:autofit.obj
 0002:0000fcf0       ??_C@_07CLHNDJJO@?j?$KC?$JN?5?j?$KD?$JA@ 00000001400b3cf0     freetype:autofit.obj
 0002:0000fcf8       ??_C@_04LANBAAGA@?p?$JA?$JB?$LE@ 00000001400b3cf8     freetype:autofit.obj
 0002:0000fd00       ??_C@_03CIFBMJFH@?$OA?$LG?$KH@ 00000001400b3d00     freetype:autofit.obj
 0002:0000fd04       ??_C@_03IHFLNIGM@?a?$KO?$LA@ 00000001400b3d04     freetype:autofit.obj
 0002:0000fd08       ??_C@_03CCLNGAOJ@?$OA?$KP?$KG@ 00000001400b3d08     freetype:autofit.obj
 0002:0000fd10       ??_C@_07NKKHBBJL@?j?$KK?$JC?5?j?$KK?$KL@ 00000001400b3d10     freetype:autofit.obj
 0002:0000fd18       ??_C@_07GCCOGDCF@?$OA?$LB?$KG?5?$OA?$LB?$KH@ 00000001400b3d18     freetype:autofit.obj
 0002:0000fd20       ??_C@_03HEHFNKLF@?b?$LF?$JE@ 00000001400b3d20     freetype:autofit.obj
 0002:0000fd28       ??_C@_0M@PFDFPHNJ@?$OA?$LI?$LC?5?$OA?$LJ?$IF?5?$OA?$LJ?$JA@ 00000001400b3d28     freetype:autofit.obj
 0002:0000fd38       ??_C@_0M@BIKJPOHA@?j?$JI?$JD?5?j?$JG?$JM?5?j?$JG?$LE@ 00000001400b3d38     freetype:autofit.obj
 0002:0000fd44       ??_C@_01FMEDJKGI@o@        00000001400b3d44     freetype:autofit.obj
 0002:0000fd48       ??_C@_07PNKDJIHG@?g?$JE?$LA?5?e?$JL?$JH@ 00000001400b3d48     freetype:autofit.obj
 0002:0000fd50       ??_C@_0BA@OKOILHEH@fallback?9script@ 00000001400b3d50     freetype:autofit.obj
 0002:0000fd60       ??_C@_0P@PHBNIPOP@default?9script@ 00000001400b3d60     freetype:autofit.obj
 0002:0000fd70       ??_C@_0BC@OOHNGIJD@increase?9x?9height@ 00000001400b3d70     freetype:autofit.obj
 0002:0000fd88       ??_C@_0BE@CELKBFDM@glyph?9to?9script?9map@ 00000001400b3d88     freetype:autofit.obj
 0002:0000fda0       ??_C@_0L@MNEBCNMP@autofitter@ 00000001400b3da0     freetype:autofit.obj
 0002:0000fdb0       __xmm@00000000000000000001000000010000 00000001400b3db0     freetype:autofit.obj
 0002:00010240       tt_driver_class            00000001400b4240     freetype:truetype.obj
 0002:000102f0       tt_default_graphics_state  00000001400b42f0     freetype:truetype.obj
 0002:00010720       ??_C@_07JBKHDJHE@?4notdef@ 00000001400b4720     freetype:truetype.obj
 0002:00010728       ??_C@_0BE@OJJAFABD@interpreter?9version@ 00000001400b4728     freetype:truetype.obj
 0002:00010740       ??_C@_08KJILHNAM@TrueType@ 00000001400b4740     freetype:truetype.obj
 0002:00010750       ??_C@_0O@DHADKGAK@multi?9masters@ 00000001400b4750     freetype:truetype.obj
 0002:00010760       ??_C@_0BD@EFEGEJAN@metrics?9variations@ 00000001400b4760     freetype:truetype.obj
 0002:00010778       ??_C@_07CDLHCBDE@tt?9glyf@ 00000001400b4778     freetype:truetype.obj
 0002:00010780       ??_C@_04JAPIGAPK@sfnt@     00000001400b4780     freetype:truetype.obj
 0002:00010788       ??_C@_06ODJMJFLN@Weight@   00000001400b4788     freetype:truetype.obj
 0002:00010790       ??_C@_05IBAMDCFI@Width@    00000001400b4790     freetype:truetype.obj
 0002:00010798       ??_C@_0M@EDHPABCB@OpticalSize@ 00000001400b4798     freetype:truetype.obj
 0002:000107a4       ??_C@_05BCGFHEPH@Slant@    00000001400b47a4     freetype:truetype.obj
 0002:000107ac       ??_C@_06PPMHIBHB@Italic@   00000001400b47ac     freetype:truetype.obj
 0002:000107c0       t1_driver_class            00000001400b47c0     freetype:type1.obj
 0002:000112b0       ??_C@_0BA@EAOIOGJA@postscript?9info@ 00000001400b52b0     freetype:type1.obj
 0002:000112c0       ??_C@_0BB@MLEHKAJM@StandardEncoding@ 00000001400b52c0     freetype:type1.obj
 0002:000112d8       ??_C@_0P@LHOFAKJ@ExpertEncoding@ 00000001400b52d8     freetype:type1.obj
 0002:000112e8       ??_C@_0BC@OHHLKLPP@ISOLatin1Encoding@ 00000001400b52e8     freetype:type1.obj
 0002:000112fc       ??_C@_03BHPKJDPK@dup@      00000001400b52fc     freetype:type1.obj
 0002:00011300       ??_C@_03KMONJGDG@put@      00000001400b5300     freetype:type1.obj
 0002:00011308       ??_C@_07CPCPJPKL@version@  00000001400b5308     freetype:type1.obj
 0002:00011310       ??_C@_06JHGCIHDH@Notice@   00000001400b5310     freetype:type1.obj
 0002:00011318       ??_C@_08FPDCFGEH@FullName@ 00000001400b5318     freetype:type1.obj
 0002:00011328       ??_C@_0L@KKMPOENF@FamilyName@ 00000001400b5328     freetype:type1.obj
 0002:00011338       ??_C@_0M@ILCDBHGP@ItalicAngle@ 00000001400b5338     freetype:type1.obj
 0002:00011348       ??_C@_0N@OPLNPOL@isFixedPitch@ 00000001400b5348     freetype:type1.obj
 0002:00011358       ??_C@_0BC@CCIMILPE@UnderlinePosition@ 00000001400b5358     freetype:type1.obj
 0002:00011370       ??_C@_0BD@KBICJDLM@UnderlineThickness@ 00000001400b5370     freetype:type1.obj
 0002:00011384       ??_C@_06FIINGLDE@FSType@   00000001400b5384     freetype:type1.obj
 0002:00011390       ??_C@_08OMJGNOHD@UniqueID@ 00000001400b5390     freetype:type1.obj
 0002:0001139c       ??_C@_05CIIKKFON@lenIV@    00000001400b539c     freetype:type1.obj
 0002:000113a8       ??_C@_0O@PJDGHDCK@LanguageGroup@ 00000001400b53a8     freetype:type1.obj
 0002:000113b8       ??_C@_08NLHBPEGP@password@ 00000001400b53b8     freetype:type1.obj
 0002:000113c8       ??_C@_09IPAGIEBG@BlueScale@ 00000001400b53c8     freetype:type1.obj
 0002:000113d8       ??_C@_09GDCMDLCO@BlueShift@ 00000001400b53d8     freetype:type1.obj
 0002:000113e8       ??_C@_08IPFLJFPM@BlueFuzz@ 00000001400b53e8     freetype:type1.obj
 0002:000113f8       ??_C@_0L@DKDIMLOI@BlueValues@ 00000001400b53f8     freetype:type1.obj
 0002:00011408       ??_C@_0L@CCJAIIMC@OtherBlues@ 00000001400b5408     freetype:type1.obj
 0002:00011418       ??_C@_0M@OIPOLIDA@FamilyBlues@ 00000001400b5418     freetype:type1.obj
 0002:00011428       ??_C@_0BB@FMLCJJDP@FamilyOtherBlues@ 00000001400b5428     freetype:type1.obj
 0002:0001143c       ??_C@_05PHECBFLF@StdHW@    00000001400b543c     freetype:type1.obj
 0002:00011444       ??_C@_05OBPKJLMP@StdVW@    00000001400b5444     freetype:type1.obj
 0002:00011450       ??_C@_0L@NKGPCONN@MinFeature@ 00000001400b5450     freetype:type1.obj
 0002:00011460       ??_C@_09NCKADFKP@StemSnapH@ 00000001400b5460     freetype:type1.obj
 0002:00011470       ??_C@_09GOBAKHA@StemSnapV@ 00000001400b5470     freetype:type1.obj
 0002:00011480       ??_C@_0BA@PKGIFANC@ExpansionFactor@ 00000001400b5480     freetype:type1.obj
 0002:00011490       ??_C@_09BDDIAPM@ForceBold@ 00000001400b5490     freetype:type1.obj
 0002:000114a0       ??_C@_08MKFDOKHL@FontName@ 00000001400b54a0     freetype:type1.obj
 0002:000114b0       ??_C@_09PNDIDGHG@PaintType@ 00000001400b54b0     freetype:type1.obj
 0002:000114c0       ??_C@_08GBFACKAL@FontType@ 00000001400b54c0     freetype:type1.obj
 0002:000114d0       ??_C@_0M@GLGMDIGG@StrokeWidth@ 00000001400b54d0     freetype:type1.obj
 0002:000114e0       ??_C@_08EBMMLPNI@FontBBox@ 00000001400b54e0     freetype:type1.obj
 0002:000114ec       ??_C@_03DOACNACD@NDV@      00000001400b54ec     freetype:type1.obj
 0002:000114f0       ??_C@_03MMGIAIPO@CDV@      00000001400b54f0     freetype:type1.obj
 0002:000114f8       ??_C@_0N@PGGOPDKP@DesignVector@ 00000001400b54f8     freetype:type1.obj
 0002:00011508       ??_C@_0L@LNCCOCBB@FontMatrix@ 00000001400b5508     freetype:type1.obj
 0002:00011518       ??_C@_08EJAHIGCJ@Encoding@ 00000001400b5518     freetype:type1.obj
 0002:00011524       ??_C@_05DHFNOCDJ@Subrs@    00000001400b5524     freetype:type1.obj
 0002:00011530       ??_C@_0M@EKIFGBLL@CharStrings@ 00000001400b5530     freetype:type1.obj
 0002:00011540       ??_C@_07CFINJGKH@Private@  00000001400b5540     freetype:type1.obj
 0002:00011548       ??_C@_0BF@BEKHBPMN@BlendDesignPositions@ 00000001400b5548     freetype:type1.obj
 0002:00011560       ??_C@_0P@FPDIEJKK@BlendDesignMap@ 00000001400b5560     freetype:type1.obj
 0002:00011570       ??_C@_0P@LEAACMFJ@BlendAxisTypes@ 00000001400b5570     freetype:type1.obj
 0002:00011580       ??_C@_0N@JPPBHHHF@WeightVector@ 00000001400b5580     freetype:type1.obj
 0002:00011590       ??_C@_0P@KEOGGALI@BuildCharArray@ 00000001400b5590     freetype:type1.obj
 0002:000115a0       ??_C@_05OJJBIBFE@eexec@    00000001400b55a0     freetype:type1.obj
 0002:000115a8       ??_C@_09BJJLCLMA@closefile@ 00000001400b55a8     freetype:type1.obj
 0002:000115b8       ??_C@_0O@CJLBGMNG@FontDirectory@ 00000001400b55b8     freetype:type1.obj
 0002:000115c8       ??_C@_08MNGCAOLP@pshinter@ 00000001400b55c8     freetype:type1.obj
 0002:000115d8       ??_C@_0BB@JIMLNENF@postscript?9cmaps@ 00000001400b55d8     freetype:type1.obj
 0002:000115ec       ??_C@_05MNCLAAKB@psaux@    00000001400b55ec     freetype:type1.obj
 0002:000115f8       ??_C@_07FFHPBFOK@Regular@  00000001400b55f8     freetype:type1.obj
 0002:00011600       ??_C@_04DIPHHIHJ@Bold@     00000001400b5600     freetype:type1.obj
 0002:00011608       ??_C@_05BPGNDIAE@Black@    00000001400b5608     freetype:type1.obj
 0002:00011610       ??_C@_0P@EMKCEFJO@?$CF?$CBPS?9AdobeFont@ 00000001400b5610     freetype:type1.obj
 0002:00011620       ??_C@_0L@LLIKMEDC@?$CF?$CBFontType@ 00000001400b5620     freetype:type1.obj
 0002:00011630       cff_cmap_encoding_class_rec 00000001400b5630     freetype:cff.obj
 0002:00011680       cff_cmap_unicode_class_rec 00000001400b5680     freetype:cff.obj
 0002:000116d0       cff_driver_class           00000001400b56d0     freetype:cff.obj
 0002:00012b88       ??_C@_07IAJFBLNJ@?1FSType@ 00000001400b6b88     freetype:cff.obj
 0002:00012b90       ??_C@_03BHEEIFFN@def@      00000001400b6b90     freetype:cff.obj
 0002:00012b94       ??_C@_03IFCOMOMB@CFF@      00000001400b6b94     freetype:cff.obj
 0002:00012b98       ??_C@_03LMEEOLHO@CID@      00000001400b6b98     freetype:cff.obj
 0002:00012ba0       ??_C@_08EOMLOCJG@cff?9load@ 00000001400b6ba0     freetype:cff.obj
 0002:000135a0       t1cid_driver_class         00000001400b75a0     freetype:type1cid.obj
 0002:00013700       ??_C@_0M@CKCGNNAK@CIDFontName@ 00000001400b7700     freetype:type1cid.obj
 0002:00013710       ??_C@_0P@FDOGBFAP@CIDFontVersion@ 00000001400b7710     freetype:type1cid.obj
 0002:00013720       ??_C@_0M@IBCFBNHK@CIDFontType@ 00000001400b7720     freetype:type1cid.obj
 0002:00013730       ??_C@_08EPBENDNC@Registry@ 00000001400b7730     freetype:type1cid.obj
 0002:00013740       ??_C@_08HMKBFHBJ@Ordering@ 00000001400b7740     freetype:type1cid.obj
 0002:00013750       ??_C@_0L@EJNILPMC@Supplement@ 00000001400b7750     freetype:type1cid.obj
 0002:00013760       ??_C@_07CNNFHHEA@UIDBase@  00000001400b7760     freetype:type1cid.obj
 0002:00013768       ??_C@_04CGDDEPDG@XUID@     00000001400b7768     freetype:type1cid.obj
 0002:00013770       ??_C@_0N@LBMCPKAC@CIDMapOffset@ 00000001400b7770     freetype:type1cid.obj
 0002:00013780       ??_C@_07NNGKIHHK@FDBytes@  00000001400b7780     freetype:type1cid.obj
 0002:00013788       ??_C@_07BBMAIHOE@GDBytes@  00000001400b7788     freetype:type1cid.obj
 0002:00013790       ??_C@_08LPCKMOBH@CIDCount@ 00000001400b7790     freetype:type1cid.obj
 0002:000137a0       ??_C@_0O@DKIHOHFK@SubrMapOffset@ 00000001400b77a0     freetype:type1cid.obj
 0002:000137b0       ??_C@_07OJDBLIDF@SDBytes@  00000001400b77b0     freetype:type1cid.obj
 0002:000137b8       ??_C@_09NKAONILE@SubrCount@ 00000001400b77b8     freetype:type1cid.obj
 0002:000137c8       ??_C@_0BC@HBJENNOG@lenBuildCharArray@ 00000001400b77c8     freetype:type1cid.obj
 0002:000137e0       ??_C@_0BD@BGHMBBEO@ForceBoldThreshold@ 00000001400b77e0     freetype:type1cid.obj
 0002:000137f8       ??_C@_07PEKDNLEP@FDArray@  00000001400b77f8     freetype:type1cid.obj
 0002:00013800       ??_C@_0BC@JBBEDJNJ@?$CFADOBeginFontDict@ 00000001400b7800     freetype:type1cid.obj
 0002:00013818       ??_C@_0CA@JGHPJJJF@?$CF?$CBPS?9Adobe?93?40?5Resource?9CIDFont@ 00000001400b7818     freetype:type1cid.obj
 0002:00013838       ??_C@_09BFOLOCGO@StartData@ 00000001400b7838     freetype:type1cid.obj
 0002:00013844       ??_C@_06EMLBPOPP@?1sfnts@  00000001400b7844     freetype:type1cid.obj
 0002:00013850       ??_C@_0L@DDPIBKML@CID?5Type?51@ 00000001400b7850     freetype:type1cid.obj
 0002:00013860       pfr_cmap_class_rec         00000001400b7860     freetype:pfr.obj
 0002:000138b0       pfr_driver_class           00000001400b78b0     freetype:pfr.obj
 0002:00013a70       ??_C@_0M@BAGPBJNL@pfr?9metrics@ 00000001400b7a70     freetype:pfr.obj
 0002:00013a7c       ??_C@_03OJCMOBOF@PFR@      00000001400b7a7c     freetype:pfr.obj
 0002:00013a80       ??_C@_03OENHCMJJ@pfr@      00000001400b7a80     freetype:pfr.obj
 0002:00013ee0       t42_driver_class           00000001400b7ee0     freetype:type42.obj
 0002:00013f88       ??_C@_07GJBALKN@Type?542@  00000001400b7f88     freetype:type42.obj
 0002:00013f90       ??_C@_05FJOKMJFH@sfnts@    00000001400b7f90     freetype:type42.obj
 0002:00013f98       ??_C@_05MDIJLHEA@known@    00000001400b7f98     freetype:type42.obj
 0002:00013fa0       winfnt_driver_class        00000001400b7fa0     freetype:winfnt.obj
 0002:00014240       ??_C@_0M@DFCIIFPB@Bold?5Italic@ 00000001400b8240     freetype:winfnt.obj
 0002:00014250       ??_C@_0M@FPCOPFGH@Windows?5FNT@ 00000001400b8250     freetype:winfnt.obj
 0002:00014260       ??_C@_08NAMFKPDH@winfonts@ 00000001400b8260     freetype:winfnt.obj
 0002:00014270       pcf_driver_class           00000001400b8270     freetype:pcf.obj
 0002:00014534       ??_C@_05FPAEEJJG@10646@    00000001400b8534     freetype:pcf.obj
 0002:0001453c       ??_C@_04LBDHIBCK@8859@     00000001400b853c     freetype:pcf.obj
 0002:00014548       ??_C@_08EPMKAEBA@646?41991@ 00000001400b8548     freetype:pcf.obj
 0002:00014554       ??_C@_03LLHODHFI@IRV@      00000001400b8554     freetype:pcf.obj
 0002:00014558       ??_C@_03DDONLALG@bdf@      00000001400b8558     freetype:pcf.obj
 0002:0001455c       ??_C@_03MBEJPEFL@PCF@      00000001400b855c     freetype:pcf.obj
 0002:00014560       ??_C@_03MMLCDJCH@pcf@      00000001400b8560     freetype:pcf.obj
 0002:00014564       ??_C@_05NOFPJGIP@SLANT@    00000001400b8564     freetype:pcf.obj
 0002:00014570       ??_C@_07EGOIFKG@Oblique@   00000001400b8570     freetype:pcf.obj
 0002:00014578       ??_C@_0M@FCJHKPGH@WEIGHT_NAME@ 00000001400b8578     freetype:pcf.obj
 0002:00014588       ??_C@_0O@DANCJNNA@SETWIDTH_NAME@ 00000001400b8588     freetype:pcf.obj
 0002:00014598       ??_C@_0P@BLEODLOA@ADD_STYLE_NAME@ 00000001400b8598     freetype:pcf.obj
 0002:000145a8       ??_C@_0M@FBEHGJKE@FAMILY_NAME@ 00000001400b85a8     freetype:pcf.obj
 0002:000145b8       ??_C@_0O@KPOPAFON@AVERAGE_WIDTH@ 00000001400b85b8     freetype:pcf.obj
 0002:000145c8       ??_C@_0L@JCJJGPJF@POINT_SIZE@ 00000001400b85c8     freetype:pcf.obj
 0002:000145d8       ??_C@_0L@CNGHIHBP@PIXEL_SIZE@ 00000001400b85d8     freetype:pcf.obj
 0002:000145e8       ??_C@_0N@NBDHNJFJ@RESOLUTION_X@ 00000001400b85e8     freetype:pcf.obj
 0002:000145f8       ??_C@_0N@MICMOIBI@RESOLUTION_Y@ 00000001400b85f8     freetype:pcf.obj
 0002:00014608       ??_C@_0BB@OHIDJKBJ@CHARSET_REGISTRY@ 00000001400b8608     freetype:pcf.obj
 0002:00014620       ??_C@_0BB@OBJAMPOC@CHARSET_ENCODING@ 00000001400b8620     freetype:pcf.obj
 0002:00014ef0       bdf_driver_class           00000001400b8ef0     freetype:bdf.obj
 0002:00015030       ??_C@_0BC@DEIBICAG@AVG_CAPITAL_WIDTH@ 00000001400b9030     freetype:bdf.obj
 0002:00015048       ??_C@_0BE@FDPIDJIH@AVG_LOWERCASE_WIDTH@ 00000001400b9048     freetype:bdf.obj
 0002:00015060       ??_C@_0L@IPPBEDCK@CAP_HEIGHT@ 00000001400b9060     freetype:bdf.obj
 0002:00015070       ??_C@_0BE@KNHMGHPI@CHARSET_COLLECTIONS@ 00000001400b9070     freetype:bdf.obj
 0002:00015088       ??_C@_07JEDAPFNH@COMMENT@  00000001400b9088     freetype:bdf.obj
 0002:00015090       ??_C@_09DJIAAPDG@COPYRIGHT@ 00000001400b9090     freetype:bdf.obj
 0002:000150a0       ??_C@_0N@LOGJBDOF@DEFAULT_CHAR@ 00000001400b90a0     freetype:bdf.obj
 0002:000150b0       ??_C@_0M@LFJMPFGC@DESTINATION@ 00000001400b90b0     freetype:bdf.obj
 0002:000150c0       ??_C@_0BB@PJMJCLEI@DEVICE_FONT_NAME@ 00000001400b90c0     freetype:bdf.obj
 0002:000150d8       ??_C@_09GEIPNEKC@END_SPACE@ 00000001400b90d8     freetype:bdf.obj
 0002:000150e8       ??_C@_09DLOGKOHL@FACE_NAME@ 00000001400b90e8     freetype:bdf.obj
 0002:000150f8       ??_C@_0N@LCIIJFB@FIGURE_WIDTH@ 00000001400b90f8     freetype:bdf.obj
 0002:00015108       ??_C@_04IJMKNFPK@FONT@     00000001400b9108     freetype:bdf.obj
 0002:00015110       ??_C@_0BC@LNICJLFI@FONTNAME_REGISTRY@ 00000001400b9110     freetype:bdf.obj
 0002:00015128       ??_C@_0M@ECCDLGDC@FONT_ASCENT@ 00000001400b9128     freetype:bdf.obj
 0002:00015138       ??_C@_0N@BAIKBLGK@FONT_DESCENT@ 00000001400b9138     freetype:bdf.obj
 0002:00015148       ??_C@_07GMNLECKJ@FOUNDRY@  00000001400b9148     freetype:bdf.obj
 0002:00015150       ??_C@_09IGHCOKHJ@FULL_NAME@ 00000001400b9150     freetype:bdf.obj
 0002:00015160       ??_C@_0N@LHJKBLMB@ITALIC_ANGLE@ 00000001400b9160     freetype:bdf.obj
 0002:00015170       ??_C@_09IDPFHPOD@MAX_SPACE@ 00000001400b9170     freetype:bdf.obj
 0002:00015180       ??_C@_09ICPJOFFH@MIN_SPACE@ 00000001400b9180     freetype:bdf.obj
 0002:00015190       ??_C@_0L@CKCFAFFG@NORM_SPACE@ 00000001400b9190     freetype:bdf.obj
 0002:0001519c       ??_C@_06FMPEGAHJ@NOTICE@   00000001400b919c     freetype:bdf.obj
 0002:000151a8       ??_C@_0L@MANNMNIK@QUAD_WIDTH@ 00000001400b91a8     freetype:bdf.obj
 0002:000151b8       ??_C@_0L@CAMLDNCF@RAW_ASCENT@ 00000001400b91b8     freetype:bdf.obj
 0002:000151c8       ??_C@_0BC@LNOEENJF@RAW_AVERAGE_WIDTH@ 00000001400b91c8     freetype:bdf.obj
 0002:000151e0       ??_C@_0BG@PEMOHOIO@RAW_AVG_CAPITAL_WIDTH@ 00000001400b91e0     freetype:bdf.obj
 0002:000151f8       ??_C@_0BI@BEKJFFLM@RAW_AVG_LOWERCASE_WIDTH@ 00000001400b91f8     freetype:bdf.obj
 0002:00015210       ??_C@_0P@PDBKEGFB@RAW_CAP_HEIGHT@ 00000001400b9210     freetype:bdf.obj
 0002:00015220       ??_C@_0M@JDDLHGCG@RAW_DESCENT@ 00000001400b9220     freetype:bdf.obj
 0002:00015230       ??_C@_0O@FDGFBIGM@RAW_END_SPACE@ 00000001400b9230     freetype:bdf.obj
 0002:00015240       ??_C@_0BB@LHIJKBAI@RAW_FIGURE_WIDTH@ 00000001400b9240     freetype:bdf.obj
 0002:00015258       ??_C@_0O@LEBPLDCN@RAW_MAX_SPACE@ 00000001400b9258     freetype:bdf.obj
 0002:00015268       ??_C@_0O@LFBDCJJJ@RAW_MIN_SPACE@ 00000001400b9268     freetype:bdf.obj
 0002:00015278       ??_C@_0P@FGMOAACN@RAW_NORM_SPACE@ 00000001400b9278     freetype:bdf.obj
 0002:00015288       ??_C@_0P@FBIMICGE@RAW_PIXEL_SIZE@ 00000001400b9288     freetype:bdf.obj
 0002:00015298       ??_C@_0P@OOHCGKOO@RAW_POINT_SIZE@ 00000001400b9298     freetype:bdf.obj
 0002:000152a8       ??_C@_0O@HNFKKCGD@RAW_PIXELSIZE@ 00000001400b92a8     freetype:bdf.obj
 0002:000152b8       ??_C@_0O@FDNDDOFA@RAW_POINTSIZE@ 00000001400b92b8     freetype:bdf.obj
 0002:000152c8       ??_C@_0P@LMDGMIPB@RAW_QUAD_WIDTH@ 00000001400b92c8     freetype:bdf.obj
 0002:000152d8       ??_C@_0BD@HHNHPPKD@RAW_SMALL_CAP_SIZE@ 00000001400b92d8     freetype:bdf.obj
 0002:000152f0       ??_C@_0BF@DLAIFMIE@RAW_STRIKEOUT_ASCENT@ 00000001400b92f0     freetype:bdf.obj
 0002:00015308       ??_C@_0BG@DCPBCGDJ@RAW_STRIKEOUT_DESCENT@ 00000001400b9308     freetype:bdf.obj
 0002:00015320       ??_C@_0BD@FGAMCDPE@RAW_SUBSCRIPT_SIZE@ 00000001400b9320     freetype:bdf.obj
 0002:00015338       ??_C@_0BA@ICOMKGEO@RAW_SUBSCRIPT_X@ 00000001400b9338     freetype:bdf.obj
 0002:00015348       ??_C@_0BA@JLPHJHAP@RAW_SUBSCRIPT_Y@ 00000001400b9348     freetype:bdf.obj
 0002:00015358       ??_C@_0BF@ILCJEECH@RAW_SUPERSCRIPT_SIZE@ 00000001400b9358     freetype:bdf.obj
 0002:00015370       ??_C@_0BC@EMCLOPNI@RAW_SUPERSCRIPT_X@ 00000001400b9370     freetype:bdf.obj
 0002:00015388       ??_C@_0BC@FFDANOJJ@RAW_SUPERSCRIPT_Y@ 00000001400b9388     freetype:bdf.obj
 0002:000153a0       ??_C@_0BH@LIHCGIBB@RAW_UNDERLINE_POSITION@ 00000001400b93a0     freetype:bdf.obj
 0002:000153b8       ??_C@_0BI@OEPMFPAK@RAW_UNDERLINE_THICKNESS@ 00000001400b93b8     freetype:bdf.obj
 0002:000153d0       ??_C@_0N@LFICGJOL@RAW_X_HEIGHT@ 00000001400b93d0     freetype:bdf.obj
 0002:000153e0       ??_C@_0BC@JMGAMBDF@RELATIVE_SETWIDTH@ 00000001400b93e0     freetype:bdf.obj
 0002:000153f8       ??_C@_0BA@NKHOPHOP@RELATIVE_WEIGHT@ 00000001400b93f8     freetype:bdf.obj
 0002:00015408       ??_C@_0L@JGAABLGD@RESOLUTION@ 00000001400b9408     freetype:bdf.obj
 0002:00015418       ??_C@_0P@CJBLANOF@SMALL_CAP_SIZE@ 00000001400b9418     freetype:bdf.obj
 0002:00015428       ??_C@_07JKNGKIOL@SPACING@  00000001400b9428     freetype:bdf.obj
 0002:00015430       ??_C@_0BB@MOJIHJPL@STRIKEOUT_ASCENT@ 00000001400b9430     freetype:bdf.obj
 0002:00015448       ??_C@_0BC@PCLONKLB@STRIKEOUT_DESCENT@ 00000001400b9448     freetype:bdf.obj
 0002:00015460       ??_C@_0P@IMANBLC@SUBSCRIPT_SIZE@ 00000001400b9460     freetype:bdf.obj
 0002:00015470       ??_C@_0M@EFEHOFPP@SUBSCRIPT_X@ 00000001400b9470     freetype:bdf.obj
 0002:00015480       ??_C@_0M@FMFMNELO@SUBSCRIPT_Y@ 00000001400b9480     freetype:bdf.obj
 0002:00015490       ??_C@_0BB@HOLJGBFI@SUPERSCRIPT_SIZE@ 00000001400b9490     freetype:bdf.obj
 0002:000154a8       ??_C@_0O@FOCAKHKA@SUPERSCRIPT_X@ 00000001400b94a8     freetype:bdf.obj
 0002:000154b8       ??_C@_0O@EHDLJGOB@SUPERSCRIPT_Y@ 00000001400b94b8     freetype:bdf.obj
 0002:000154c8       ??_C@_0BD@FLNBCMPP@UNDERLINE_POSITION@ 00000001400b94c8     freetype:bdf.obj
 0002:000154e0       ??_C@_0BE@KDKNDDDB@UNDERLINE_THICKNESS@ 00000001400b94e0     freetype:bdf.obj
 0002:000154f4       ??_C@_06CIAKHCPD@WEIGHT@   00000001400b94f4     freetype:bdf.obj
 0002:00015500       ??_C@_08IHHFFHAA@X_HEIGHT@ 00000001400b9500     freetype:bdf.obj
 0002:00015510       ??_C@_0BG@NJJHMBCE@_MULE_BASELINE_OFFSET@ 00000001400b9510     freetype:bdf.obj
 0002:00015528       ??_C@_0BH@EGBLCDE@_MULE_RELATIVE_COMPOSE@ 00000001400b9528     freetype:bdf.obj
 0002:00015540       ??_C@_01JOAMLHOP@?9@       00000001400b9540     freetype:bdf.obj
 0002:00015544       ??_C@_05HCHEPOAH@CHARS@    00000001400b9544     freetype:bdf.obj
 0002:0001554c       ??_C@_02EOIDJNGE@?5?$CL@   00000001400b954c     freetype:bdf.obj
 0002:00015550       ??_C@_07MLEKHHFJ@ENDFONT@  00000001400b9550     freetype:bdf.obj
 0002:00015558       ??_C@_07MDHLCACL@ENDCHAR@  00000001400b9558     freetype:bdf.obj
 0002:00015560       ??_C@_09BPKMEANO@STARTCHAR@ 00000001400b9560     freetype:bdf.obj
 0002:00015570       ??_C@_08LEFKDKKN@ENCODING@ 00000001400b9570     freetype:bdf.obj
 0002:0001557c       ??_C@_06HDKFFNNH@SWIDTH@   00000001400b957c     freetype:bdf.obj
 0002:00015584       ??_C@_06NBNMPPJH@DWIDTH@   00000001400b9584     freetype:bdf.obj
 0002:0001558c       ??_C@_03OONKDOKH@BBX@      00000001400b958c     freetype:bdf.obj
 0002:00015590       ??_C@_06PGFOEMDN@BITMAP@   00000001400b9590     freetype:bdf.obj
 0002:00015598       ??_C@_0O@JFDPHGFD@ENDPROPERTIES@ 00000001400b9598     freetype:bdf.obj
 0002:000155a8       ??_C@_03OACELNE@?$CFhd@    00000001400b95a8     freetype:bdf.obj
 0002:000155b0       ??_C@_0BG@NDMEGDOA@_XFREE86_GLYPH_RANGES@ 00000001400b95b0     freetype:bdf.obj
 0002:000155c8       ??_C@_09BHJNBHKM@STARTFONT@ 00000001400b95c8     freetype:bdf.obj
 0002:000155d8       ??_C@_0BA@HGECMEMA@STARTPROPERTIES@ 00000001400b95d8     freetype:bdf.obj
 0002:000155e8       ??_C@_0BA@PIDAKDPC@FONTBOUNDINGBOX@ 00000001400b95e8     freetype:bdf.obj
 0002:000155f8       ??_C@_04EMFHLKGI@SIZE@     00000001400b95f8     freetype:bdf.obj
 0002:00015600       ??_C@_03DOBGHNMK@BDF@      00000001400b9600     freetype:bdf.obj
 0002:00015610       __xmm@00000008000000000000000100000001 00000001400b9610     freetype:bdf.obj
 0002:00015870       cff_builder_funcs          00000001400b9870     freetype:psaux.obj
 0002:000158b0       ps_builder_funcs           00000001400b98b0     freetype:psaux.obj
 0002:000158c0       afm_parser_funcs           00000001400b98c0     freetype:psaux.obj
 0002:000158d8       t1_cmap_classes            00000001400b98d8     freetype:psaux.obj
 0002:000158f8       cff_decoder_funcs          00000001400b98f8     freetype:psaux.obj
 0002:00015910       psaux_module_class         00000001400b9910     freetype:psaux.obj
 0002:00015948       ps_table_funcs             00000001400b9948     freetype:psaux.obj
 0002:00015970       ps_parser_funcs            00000001400b9970     freetype:psaux.obj
 0002:000159e0       t1_builder_funcs           00000001400b99e0     freetype:psaux.obj
 0002:00015a20       t1_decoder_funcs           00000001400b9a20     freetype:psaux.obj
 0002:00015a40       t1_cmap_standard_class_rec 00000001400b9a40     freetype:psaux.obj
 0002:00015a90       t1_cmap_expert_class_rec   00000001400b9a90     freetype:psaux.obj
 0002:00015ae0       t1_cmap_custom_class_rec   00000001400b9ae0     freetype:psaux.obj
 0002:00015b30       t1_cmap_unicode_class_rec  00000001400b9b30     freetype:psaux.obj
 0002:00015d10       ??_C@_08NBPEBJDA@Ascender@ 00000001400b9d10     freetype:psaux.obj
 0002:00015d20       ??_C@_09POOBGNPO@AxisLabel@ 00000001400b9d20     freetype:psaux.obj
 0002:00015d30       ??_C@_08KLONHBMG@AxisType@ 00000001400b9d30     freetype:psaux.obj
 0002:00015d3c       ??_C@_01HMGJMAIH@B@        00000001400b9d3c     freetype:psaux.obj
 0002:00015d40       ??_C@_01GFHCPBMG@C@        00000001400b9d40     freetype:psaux.obj
 0002:00015d44       ??_C@_02KJDGAJLC@CC@       00000001400b9d44     freetype:psaux.obj
 0002:00015d48       ??_C@_02EKMCNAHJ@CH@       00000001400b9d48     freetype:psaux.obj
 0002:00015d50       ??_C@_09JOCJHGEG@CapHeight@ 00000001400b9d50     freetype:psaux.obj
 0002:00015d60       ??_C@_09CGMEAFLF@CharWidth@ 00000001400b9d60     freetype:psaux.obj
 0002:00015d70       ??_C@_0N@LHPDLMAH@CharacterSet@ 00000001400b9d70     freetype:psaux.obj
 0002:00015d80       ??_C@_0L@EMODJLOD@Characters@ 00000001400b9d80     freetype:psaux.obj
 0002:00015d90       ??_C@_09JMDLBBJN@Descender@ 00000001400b9d90     freetype:psaux.obj
 0002:00015da0       ??_C@_0P@JNPLONMI@EncodingScheme@ 00000001400b9da0     freetype:psaux.obj
 0002:00015db0       ??_C@_07DLEALFPL@EndAxis@  00000001400b9db0     freetype:psaux.obj
 0002:00015db8       ??_C@_0P@GFNMGKCM@EndCharMetrics@ 00000001400b9db8     freetype:psaux.obj
 0002:00015dc8       ??_C@_0O@JABMALCH@EndComposites@ 00000001400b9dc8     freetype:psaux.obj
 0002:00015dd8       ??_C@_0N@FNMEONKF@EndDirection@ 00000001400b9dd8     freetype:psaux.obj
 0002:00015de8       ??_C@_0P@FGFFCKLI@EndFontMetrics@ 00000001400b9de8     freetype:psaux.obj
 0002:00015df8       ??_C@_0M@HKHGIIOM@EndKernData@ 00000001400b9df8     freetype:psaux.obj
 0002:00015e08       ??_C@_0N@IJIACAAI@EndKernPairs@ 00000001400b9e08     freetype:psaux.obj
 0002:00015e18       ??_C@_0N@FEBBJBLC@EndTrackKern@ 00000001400b9e18     freetype:psaux.obj
 0002:00015e28       ??_C@_07BNJNBMEL@EscChar@  00000001400b9e28     freetype:psaux.obj
 0002:00015e30       ??_C@_0L@PAHDJIHN@IsBaseFont@ 00000001400b9e30     freetype:psaux.obj
 0002:00015e40       ??_C@_09OIFAOJEJ@IsCIDFont@ 00000001400b9e40     freetype:psaux.obj
 0002:00015e50       ??_C@_0N@LNIFJEBO@IsFixedPitch@ 00000001400b9e50     freetype:psaux.obj
 0002:00015e60       ??_C@_08CHFNODLO@IsFixedV@ 00000001400b9e60     freetype:psaux.obj
 0002:00015e6c       ??_C@_02MGMKBJJI@KP@       00000001400b9e6c     freetype:psaux.obj
 0002:00015e70       ??_C@_03MGLCBEGC@KPH@      00000001400b9e70     freetype:psaux.obj
 0002:00015e74       ??_C@_03IMHAAGDD@KPX@      00000001400b9e74     freetype:psaux.obj
 0002:00015e78       ??_C@_03JFGLDHHC@KPY@      00000001400b9e78     freetype:psaux.obj
 0002:00015e7c       ??_C@_01OCOKONAJ@L@        00000001400b9e7c     freetype:psaux.obj
 0002:00015e80       ??_C@_0O@NDBFHPJC@MappingScheme@ 00000001400b9e80     freetype:psaux.obj
 0002:00015e90       ??_C@_0M@PGHPLBFB@MetricsSets@ 00000001400b9e90     freetype:psaux.obj
 0002:00015e9c       ??_C@_01NANMIPIL@N@        00000001400b9e9c     freetype:psaux.obj
 0002:00015ea0       ??_C@_03LMDOAABO@PCC@      00000001400b9ea0     freetype:psaux.obj
 0002:00015ea8       ??_C@_09JMBADFPL@StartAxis@ 00000001400b9ea8     freetype:psaux.obj
 0002:00015eb8       ??_C@_0BB@JDMDJAID@StartCharMetrics@ 00000001400b9eb8     freetype:psaux.obj
 0002:00015ed0       ??_C@_0BA@DGMAPPPC@StartComposites@ 00000001400b9ed0     freetype:psaux.obj
 0002:00015ee0       ??_C@_0P@DNGHFPAA@StartDirection@ 00000001400b9ee0     freetype:psaux.obj
 0002:00015ef0       ??_C@_0BB@KAEKNABH@StartFontMetrics@ 00000001400b9ef0     freetype:psaux.obj
 0002:00015f08       ??_C@_0O@GJEKPIHD@StartKernData@ 00000001400b9f08     freetype:psaux.obj
 0002:00015f18       ??_C@_0P@OJCDJCKN@StartKernPairs@ 00000001400b9f18     freetype:psaux.obj
 0002:00015f28       ??_C@_0BA@HHMIMKDE@StartKernPairs0@ 00000001400b9f28     freetype:psaux.obj
 0002:00015f38       ??_C@_0BA@GONDPLHF@StartKernPairs1@ 00000001400b9f38     freetype:psaux.obj
 0002:00015f48       ??_C@_0P@DELCCDBH@StartTrackKern@ 00000001400b9f48     freetype:psaux.obj
 0002:00015f58       ??_C@_09DJCDMHFC@TrackKern@ 00000001400b9f58     freetype:psaux.obj
 0002:00015f64       ??_C@_02IEGOIODN@VV@       00000001400b9f64     freetype:psaux.obj
 0002:00015f68       ??_C@_07HFOFDFIM@VVector@  00000001400b9f68     freetype:psaux.obj
 0002:00015f70       ??_C@_07NGFJPNPN@Version@  00000001400b9f70     freetype:psaux.obj
 0002:00015f78       ??_C@_01ELNMCGJD@W@        00000001400b9f78     freetype:psaux.obj
 0002:00015f7c       ??_C@_02LGALCICL@W0@       00000001400b9f7c     freetype:psaux.obj
 0002:00015f80       ??_C@_03NOGICFDE@W0X@      00000001400b9f80     freetype:psaux.obj
 0002:00015f84       ??_C@_03MHHDBEHF@W0Y@      00000001400b9f84     freetype:psaux.obj
 0002:00015f88       ??_C@_02KPBABJGK@W1@       00000001400b9f88     freetype:psaux.obj
 0002:00015f8c       ??_C@_03NPKKEPAD@W1X@      00000001400b9f8c     freetype:psaux.obj
 0002:00015f90       ??_C@_03MGLBHOEC@W1Y@      00000001400b9f90     freetype:psaux.obj
 0002:00015f94       ??_C@_02BLCPMJIE@WX@       00000001400b9f94     freetype:psaux.obj
 0002:00015f98       ??_C@_02CDEPIMF@WY@        00000001400b9f98     freetype:psaux.obj
 0002:00015fa0       ??_C@_07MIHJBPO@XHeight@   00000001400b9fa0     freetype:psaux.obj
 0002:00015fa8       ??_C@_04LOAJBDKD@true@     00000001400b9fa8     freetype:psaux.obj
 0002:00015fb0       psnames_module_class       00000001400b9fb0     freetype:psnames.obj
 0002:00015ff0       ft_standard_glyph_names    00000001400b9ff0     freetype:psnames.obj
 0002:00016e60       ft_mac_names               00000001400bae60     freetype:psnames.obj
 0002:00017070       ft_sid_names               00000001400bb070     freetype:psnames.obj
 0002:00017380       t1_standard_encoding       00000001400bb380     freetype:psnames.obj
 0002:00017580       t1_expert_encoding         00000001400bb580     freetype:psnames.obj
 0002:00017780       ft_adobe_glyph_list        00000001400bb780     freetype:psnames.obj
 0002:00025350       ??_C@_07POODEHEH@psnames@  00000001400c9350     freetype:psnames.obj
 0002:00025358       pshinter_module_class      00000001400c9358     freetype:pshinter.obj
 0002:00025488       sfnt_module_class          00000001400c9488     freetype:sfnt.obj
 0002:000255c0       tt_cmap0_class_rec         00000001400c95c0     freetype:sfnt.obj
 0002:00025630       tt_cmap2_class_rec         00000001400c9630     freetype:sfnt.obj
 0002:000256a0       tt_cmap4_class_rec         00000001400c96a0     freetype:sfnt.obj
 0002:00025710       tt_cmap6_class_rec         00000001400c9710     freetype:sfnt.obj
 0002:00025780       tt_cmap8_class_rec         00000001400c9780     freetype:sfnt.obj
 0002:000257f0       tt_cmap10_class_rec        00000001400c97f0     freetype:sfnt.obj
 0002:00025860       tt_cmap12_class_rec        00000001400c9860     freetype:sfnt.obj
 0002:000258d0       tt_cmap13_class_rec        00000001400c98d0     freetype:sfnt.obj
 0002:00025940       tt_cmap14_class_rec        00000001400c9940     freetype:sfnt.obj
 0002:000259b0       tt_cmap_unicode_class_rec  00000001400c99b0     freetype:sfnt.obj
 0002:00025ec0       ft_smooth_renderer_class   00000001400c9ec0     freetype:smooth.obj
 0002:00025f28       ft_grays_raster            00000001400c9f28     freetype:smooth.obj
 0002:00025f58       ??_C@_06INICNAFJ@smooth@   00000001400c9f58     freetype:smooth.obj
 0002:00025f60       ft_raster1_renderer_class  00000001400c9f60     freetype:raster.obj
 0002:00025fc8       ft_standard_raster         00000001400c9fc8     freetype:raster.obj
 0002:00025ff8       ??_C@_07EFFNHEPH@raster1@  00000001400c9ff8     freetype:raster.obj
 0002:00026000       ft_sdf_renderer_class      00000001400ca000     freetype:sdf.obj
 0002:00026070       ft_bitmap_sdf_renderer_class 00000001400ca070     freetype:sdf.obj
 0002:000260d8       ft_sdf_raster              00000001400ca0d8     freetype:sdf.obj
 0002:00026108       ft_bitmap_sdf_raster       00000001400ca108     freetype:sdf.obj
 0002:00026208       ??_C@_06HDFPFMNM@spread@   00000001400ca208     freetype:sdf.obj
 0002:00026210       ??_C@_09OKHFPJIN@flip_sign@ 00000001400ca210     freetype:sdf.obj
 0002:0002621c       ??_C@_06JDMDIION@flip_y@   00000001400ca21c     freetype:sdf.obj
 0002:00026228       ??_C@_08OAMMLKPE@overlaps@ 00000001400ca228     freetype:sdf.obj
 0002:00026234       ??_C@_03NLEIIAEM@sdf@      00000001400ca234     freetype:sdf.obj
 0002:00026238       ??_C@_04NPNMIMGA@bsdf@     00000001400ca238     freetype:sdf.obj
 0002:00026240       ft_svg_renderer_class      00000001400ca240     freetype:svg.obj
 0002:000262e0       ??_C@_09CKOGGGLJ@svg?9hooks@ 00000001400ca2e0     freetype:svg.obj
 0002:000270a0       ??_C@_0BO@ECPMAOGG@invalid?5distance?5too?5far?5back@ 00000001400cb0a0     freetype:ftgzip.obj
 0002:000270c0       ??_C@_0BG@LBKINIKP@invalid?5distance?5code@ 00000001400cb0c0     freetype:ftgzip.obj
 0002:000270d8       ??_C@_0BM@FFFLPBBC@invalid?5literal?1length?5code@ 00000001400cb0d8     freetype:ftgzip.obj
 0002:000270f8       ??_C@_0BH@LIBMMIGA@incorrect?5header?5check@ 00000001400cb0f8     freetype:ftgzip.obj
 0002:00027110       ??_C@_0BL@IHKGDAEE@unknown?5compression?5method@ 00000001400cb110     freetype:ftgzip.obj
 0002:00027130       ??_C@_0BE@EMOGCLGO@invalid?5window?5size@ 00000001400cb130     freetype:ftgzip.obj
 0002:00027148       ??_C@_0BJ@BLBBCOMO@unknown?5header?5flags?5set@ 00000001400cb148     freetype:ftgzip.obj
 0002:00027168       ??_C@_0BE@GONKLEPM@header?5crc?5mismatch@ 00000001400cb168     freetype:ftgzip.obj
 0002:00027180       ??_C@_0BD@PJCBIDD@invalid?5block?5type@ 00000001400cb180     freetype:ftgzip.obj
 0002:00027198       ??_C@_0BN@LGAADGOK@invalid?5stored?5block?5lengths@ 00000001400cb198     freetype:ftgzip.obj
 0002:000271b8       ??_C@_0CE@GMIGFPBB@too?5many?5length?5or?5distance?5sym@ 00000001400cb1b8     freetype:ftgzip.obj
 0002:000271e0       ??_C@_0BJ@HDEPPGOH@invalid?5code?5lengths?5set@ 00000001400cb1e0     freetype:ftgzip.obj
 0002:00027200       ??_C@_0BK@BMMPFBBH@invalid?5bit?5length?5repeat@ 00000001400cb200     freetype:ftgzip.obj
 0002:00027220       ??_C@_0CF@DGDMADCD@invalid?5code?5?9?9?5missing?5end?9of?9@ 00000001400cb220     freetype:ftgzip.obj
 0002:00027248       ??_C@_0BM@IIMGAINC@invalid?5literal?1lengths?5set@ 00000001400cb248     freetype:ftgzip.obj
 0002:00027268       ??_C@_0BG@GMDFCBGP@invalid?5distances?5set@ 00000001400cb268     freetype:ftgzip.obj
 0002:00027280       ??_C@_0BF@MEIGEHBE@incorrect?5data?5check@ 00000001400cb280     freetype:ftgzip.obj
 0002:00027298       ??_C@_0BH@FGKKJGOC@incorrect?5length?5check@ 00000001400cb298     freetype:ftgzip.obj
 0002:000272b0       _load_config_used          00000001400cb2b0     MSVCRT:loadcfg.obj
 0002:00027480       _tls_used                  00000001400cb480     MSVCRT:tlssup.obj
 0002:000274a8       ??_R3Drawable@sf@@8        00000001400cb4a8     sfml-graphics-s:CircleShape.obj
 0002:000274c0       ??_R2Drawable@sf@@8        00000001400cb4c0     sfml-graphics-s:CircleShape.obj
 0002:000274d0       ??_R1A@?0A@EA@Drawable@sf@@8 00000001400cb4d0     sfml-graphics-s:CircleShape.obj
 0002:000274f8       ??_R3Transformable@sf@@8   00000001400cb4f8     sfml-graphics-s:CircleShape.obj
 0002:00027510       ??_R2Transformable@sf@@8   00000001400cb510     sfml-graphics-s:CircleShape.obj
 0002:00027520       ??_R1A@?0A@EA@Transformable@sf@@8 00000001400cb520     sfml-graphics-s:CircleShape.obj
 0002:00027548       ??_R4Shape@sf@@6BDrawable@1@@ 00000001400cb548     sfml-graphics-s:CircleShape.obj
 0002:00027570       ??_R3Shape@sf@@8           00000001400cb570     sfml-graphics-s:CircleShape.obj
 0002:00027588       ??_R2Shape@sf@@8           00000001400cb588     sfml-graphics-s:CircleShape.obj
 0002:000275a8       ??_R1A@?0A@EA@Shape@sf@@8  00000001400cb5a8     sfml-graphics-s:CircleShape.obj
 0002:000275d0       ??_R17?0A@EA@Transformable@sf@@8 00000001400cb5d0     sfml-graphics-s:CircleShape.obj
 0002:000275f8       ??_R4Shape@sf@@6BTransformable@1@@ 00000001400cb5f8     sfml-graphics-s:CircleShape.obj
 0002:00027620       ??_R4CircleShape@sf@@6BDrawable@1@@ 00000001400cb620     sfml-graphics-s:CircleShape.obj
 0002:00027648       ??_R3CircleShape@sf@@8     00000001400cb648     sfml-graphics-s:CircleShape.obj
 0002:00027660       ??_R2CircleShape@sf@@8     00000001400cb660     sfml-graphics-s:CircleShape.obj
 0002:00027688       ??_R1A@?0A@EA@CircleShape@sf@@8 00000001400cb688     sfml-graphics-s:CircleShape.obj
 0002:000276b0       ??_R4CircleShape@sf@@6BTransformable@1@@ 00000001400cb6b0     sfml-graphics-s:CircleShape.obj
 0002:000276d8       ??_R4exception@std@@6B@    00000001400cb6d8     sfml-graphics-s:Texture.obj
 0002:00027700       ??_R3exception@std@@8      00000001400cb700     sfml-graphics-s:Texture.obj
 0002:00027718       ??_R2exception@std@@8      00000001400cb718     sfml-graphics-s:Texture.obj
 0002:00027728       ??_R1A@?0A@EA@exception@std@@8 00000001400cb728     sfml-graphics-s:Texture.obj
 0002:00027750       ??_R4bad_array_new_length@std@@6B@ 00000001400cb750     sfml-graphics-s:Texture.obj
 0002:00027778       ??_R3bad_array_new_length@std@@8 00000001400cb778     sfml-graphics-s:Texture.obj
 0002:00027790       ??_R2bad_array_new_length@std@@8 00000001400cb790     sfml-graphics-s:Texture.obj
 0002:000277b0       ??_R1A@?0A@EA@bad_array_new_length@std@@8 00000001400cb7b0     sfml-graphics-s:Texture.obj
 0002:000277d8       ??_R1A@?0A@EA@bad_alloc@std@@8 00000001400cb7d8     sfml-graphics-s:Texture.obj
 0002:00027800       ??_R3bad_alloc@std@@8      00000001400cb800     sfml-graphics-s:Texture.obj
 0002:00027818       ??_R2bad_alloc@std@@8      00000001400cb818     sfml-graphics-s:Texture.obj
 0002:00027830       ??_R4bad_alloc@std@@6B@    00000001400cb830     sfml-graphics-s:Texture.obj
 0002:00027858       ??_R4runtime_error@std@@6B@ 00000001400cb858     sfml-graphics-s:Texture.obj
 0002:00027880       ??_R3runtime_error@std@@8  00000001400cb880     sfml-graphics-s:Texture.obj
 0002:00027898       ??_R2runtime_error@std@@8  00000001400cb898     sfml-graphics-s:Texture.obj
 0002:000278b0       ??_R1A@?0A@EA@runtime_error@std@@8 00000001400cb8b0     sfml-graphics-s:Texture.obj
 0002:000278d8       ??_R4Exception@sf@@6B@     00000001400cb8d8     sfml-graphics-s:Texture.obj
 0002:00027900       ??_R3Exception@sf@@8       00000001400cb900     sfml-graphics-s:Texture.obj
 0002:00027918       ??_R2Exception@sf@@8       00000001400cb918     sfml-graphics-s:Texture.obj
 0002:00027938       ??_R1A@?0A@EA@Exception@sf@@8 00000001400cb938     sfml-graphics-s:Texture.obj
 0002:00027960       ??_R4bad_optional_access@std@@6B@ 00000001400cb960     sfml-graphics-s:Font.obj
 0002:00027988       ??_R3bad_optional_access@std@@8 00000001400cb988     sfml-graphics-s:Font.obj
 0002:000279a0       ??_R2bad_optional_access@std@@8 00000001400cb9a0     sfml-graphics-s:Font.obj
 0002:000279b8       ??_R1A@?0A@EA@bad_optional_access@std@@8 00000001400cb9b8     sfml-graphics-s:Font.obj
 0002:000279e0       ??_R3_Ref_count_base@std@@8 00000001400cb9e0     sfml-graphics-s:Font.obj
 0002:000279f8       ??_R2_Ref_count_base@std@@8 00000001400cb9f8     sfml-graphics-s:Font.obj
 0002:00027a08       ??_R1A@?0A@EA@_Ref_count_base@std@@8 00000001400cba08     sfml-graphics-s:Font.obj
 0002:00027a30       ??_R3error_category@std@@8 00000001400cba30     sfml-graphics-s:Font.obj
 0002:00027a48       ??_R2error_category@std@@8 00000001400cba48     sfml-graphics-s:Font.obj
 0002:00027a58       ??_R1A@?0A@EA@error_category@std@@8 00000001400cba58     sfml-graphics-s:Font.obj
 0002:00027a80       ??_R4_System_error@std@@6B@ 00000001400cba80     sfml-graphics-s:Font.obj
 0002:00027aa8       ??_R3_System_error@std@@8  00000001400cbaa8     sfml-graphics-s:Font.obj
 0002:00027ac0       ??_R2_System_error@std@@8  00000001400cbac0     sfml-graphics-s:Font.obj
 0002:00027ae0       ??_R1A@?0A@EA@_System_error@std@@8 00000001400cbae0     sfml-graphics-s:Font.obj
 0002:00027b08       ??_R4system_error@std@@6B@ 00000001400cbb08     sfml-graphics-s:Font.obj
 0002:00027b30       ??_R3system_error@std@@8   00000001400cbb30     sfml-graphics-s:Font.obj
 0002:00027b48       ??_R2system_error@std@@8   00000001400cbb48     sfml-graphics-s:Font.obj
 0002:00027b70       ??_R1A@?0A@EA@system_error@std@@8 00000001400cbb70     sfml-graphics-s:Font.obj
 0002:00027b98       ??_R4_Generic_error_category@std@@6B@ 00000001400cbb98     sfml-graphics-s:Font.obj
 0002:00027bc0       ??_R3_Generic_error_category@std@@8 00000001400cbbc0     sfml-graphics-s:Font.obj
 0002:00027bd8       ??_R2_Generic_error_category@std@@8 00000001400cbbd8     sfml-graphics-s:Font.obj
 0002:00027bf0       ??_R1A@?0A@EA@_Generic_error_category@std@@8 00000001400cbbf0     sfml-graphics-s:Font.obj
 0002:00027c18       ??_R4_System_error_category@std@@6B@ 00000001400cbc18     sfml-graphics-s:Font.obj
 0002:00027c40       ??_R3_System_error_category@std@@8 00000001400cbc40     sfml-graphics-s:Font.obj
 0002:00027c58       ??_R2_System_error_category@std@@8 00000001400cbc58     sfml-graphics-s:Font.obj
 0002:00027c70       ??_R1A@?0A@EA@_System_error_category@std@@8 00000001400cbc70     sfml-graphics-s:Font.obj
 0002:00027c98       ??_R4?$_Ref_count_obj2@UFontHandles@Font@sf@@@std@@6B@ 00000001400cbc98     sfml-graphics-s:Font.obj
 0002:00027cc0       ??_R3?$_Ref_count_obj2@UFontHandles@Font@sf@@@std@@8 00000001400cbcc0     sfml-graphics-s:Font.obj
 0002:00027cd8       ??_R2?$_Ref_count_obj2@UFontHandles@Font@sf@@@std@@8 00000001400cbcd8     sfml-graphics-s:Font.obj
 0002:00027cf0       ??_R1A@?0A@EA@?$_Ref_count_obj2@UFontHandles@Font@sf@@@std@@8 00000001400cbcf0     sfml-graphics-s:Font.obj
 0002:00027d18       ??_R4RenderTarget@sf@@6B@  00000001400cbd18     sfml-graphics-s:RenderWindow.obj
 0002:00027d40       ??_R3RenderTarget@sf@@8    00000001400cbd40     sfml-graphics-s:RenderWindow.obj
 0002:00027d58       ??_R2RenderTarget@sf@@8    00000001400cbd58     sfml-graphics-s:RenderWindow.obj
 0002:00027d68       ??_R1A@?0A@EA@RenderTarget@sf@@8 00000001400cbd68     sfml-graphics-s:RenderWindow.obj
 0002:00027d90       ??_R4RenderWindow@sf@@6BWindow@1@@ 00000001400cbd90     sfml-graphics-s:RenderWindow.obj
 0002:00027db8       ??_R3RenderWindow@sf@@8    00000001400cbdb8     sfml-graphics-s:RenderWindow.obj
 0002:00027dd0       ??_R2RenderWindow@sf@@8    00000001400cbdd0     sfml-graphics-s:RenderWindow.obj
 0002:00027e00       ??_R1A@?0A@EA@RenderWindow@sf@@8 00000001400cbe00     sfml-graphics-s:RenderWindow.obj
 0002:00027e28       ??_R1A@?0A@EA@Window@sf@@8 00000001400cbe28     sfml-graphics-s:RenderWindow.obj
 0002:00027e50       ??_R3Window@sf@@8          00000001400cbe50     sfml-graphics-s:RenderWindow.obj
 0002:00027e68       ??_R2Window@sf@@8          00000001400cbe68     sfml-graphics-s:RenderWindow.obj
 0002:00027e88       ??_R1A@?0A@EA@WindowBase@sf@@8 00000001400cbe88     sfml-graphics-s:RenderWindow.obj
 0002:00027eb0       ??_R3WindowBase@sf@@8      00000001400cbeb0     sfml-graphics-s:RenderWindow.obj
 0002:00027ec8       ??_R2WindowBase@sf@@8      00000001400cbec8     sfml-graphics-s:RenderWindow.obj
 0002:00027ed8       ??_R1BI@?0A@EN@GlResource@sf@@8 00000001400cbed8     sfml-graphics-s:RenderWindow.obj
 0002:00027f00       ??_R3GlResource@sf@@8      00000001400cbf00     sfml-graphics-s:RenderWindow.obj
 0002:00027f18       ??_R2GlResource@sf@@8      00000001400cbf18     sfml-graphics-s:RenderWindow.obj
 0002:00027f28       ??_R1A@?0A@EA@GlResource@sf@@8 00000001400cbf28     sfml-graphics-s:RenderWindow.obj
 0002:00027f50       ??_R1EI@?0A@EA@RenderTarget@sf@@8 00000001400cbf50     sfml-graphics-s:RenderWindow.obj
 0002:00027f78       ??_R4RenderWindow@sf@@6BRenderTarget@1@@ 00000001400cbf78     sfml-graphics-s:RenderWindow.obj
 0002:00027fa0       ??_R4Text@sf@@6BDrawable@1@@ 00000001400cbfa0     sfml-graphics-s:Text.obj
 0002:00027fc8       ??_R3Text@sf@@8            00000001400cbfc8     sfml-graphics-s:Text.obj
 0002:00027fe0       ??_R2Text@sf@@8            00000001400cbfe0     sfml-graphics-s:Text.obj
 0002:00028000       ??_R1A@?0A@EA@Text@sf@@8   00000001400cc000     sfml-graphics-s:Text.obj
 0002:00028028       ??_R4Text@sf@@6BTransformable@1@@ 00000001400cc028     sfml-graphics-s:Text.obj
 0002:00028050       ??_R4VertexArray@sf@@6B@   00000001400cc050     sfml-graphics-s:VertexArray.obj
 0002:00028078       ??_R3VertexArray@sf@@8     00000001400cc078     sfml-graphics-s:VertexArray.obj
 0002:00028090       ??_R2VertexArray@sf@@8     00000001400cc090     sfml-graphics-s:VertexArray.obj
 0002:000280a8       ??_R1A@?0A@EA@VertexArray@sf@@8 00000001400cc0a8     sfml-graphics-s:VertexArray.obj
 0002:000280d0       ??_R1A@?0A@EA@?$basic_streambuf@DU?$char_traits@D@std@@@std@@8 00000001400cc0d0     sfml-graphics-s:Shader.obj
 0002:000280f8       ??_R3?$basic_streambuf@DU?$char_traits@D@std@@@std@@8 00000001400cc0f8     sfml-graphics-s:Shader.obj
 0002:00028110       ??_R2?$basic_streambuf@DU?$char_traits@D@std@@@std@@8 00000001400cc110     sfml-graphics-s:Shader.obj
 0002:00028120       ??_R1A@A@3FA@?$basic_ios@DU?$char_traits@D@std@@@std@@8 00000001400cc120     sfml-graphics-s:Shader.obj
 0002:00028148       ??_R3?$basic_ios@DU?$char_traits@D@std@@@std@@8 00000001400cc148     sfml-graphics-s:Shader.obj
 0002:00028160       ??_R2?$basic_ios@DU?$char_traits@D@std@@@std@@8 00000001400cc160     sfml-graphics-s:Shader.obj
 0002:00028180       ??_R1A@?0A@EA@?$basic_ios@DU?$char_traits@D@std@@@std@@8 00000001400cc180     sfml-graphics-s:Shader.obj
 0002:000281a8       ??_R1A@?0A@EA@ios_base@std@@8 00000001400cc1a8     sfml-graphics-s:Shader.obj
 0002:000281d0       ??_R3ios_base@std@@8       00000001400cc1d0     sfml-graphics-s:Shader.obj
 0002:000281e8       ??_R2ios_base@std@@8       00000001400cc1e8     sfml-graphics-s:Shader.obj
 0002:00028200       ??_R17?0A@EA@?$_Iosb@H@std@@8 00000001400cc200     sfml-graphics-s:Shader.obj
 0002:00028228       ??_R3?$_Iosb@H@std@@8      00000001400cc228     sfml-graphics-s:Shader.obj
 0002:00028240       ??_R2?$_Iosb@H@std@@8      00000001400cc240     sfml-graphics-s:Shader.obj
 0002:00028250       ??_R1A@?0A@EA@?$_Iosb@H@std@@8 00000001400cc250     sfml-graphics-s:Shader.obj
 0002:00028278       ??_R1A@A@3EA@ios_base@std@@8 00000001400cc278     sfml-graphics-s:Shader.obj
 0002:000282a0       ??_R17A@3EA@?$_Iosb@H@std@@8 00000001400cc2a0     sfml-graphics-s:Shader.obj
 0002:000282c8       ??_R4bad_cast@std@@6B@     00000001400cc2c8     sfml-graphics-s:Shader.obj
 0002:000282f0       ??_R3bad_cast@std@@8       00000001400cc2f0     sfml-graphics-s:Shader.obj
 0002:00028308       ??_R2bad_cast@std@@8       00000001400cc308     sfml-graphics-s:Shader.obj
 0002:00028320       ??_R1A@?0A@EA@bad_cast@std@@8 00000001400cc320     sfml-graphics-s:Shader.obj
 0002:000283c8       ??_R4?$basic_stringbuf@DU?$char_traits@D@std@@V?$allocator@D@2@@std@@6B@ 00000001400cc3c8     sfml-system-s:Utils.obj
 0002:000283f0       ??_R3?$basic_stringbuf@DU?$char_traits@D@std@@V?$allocator@D@2@@std@@8 00000001400cc3f0     sfml-system-s:Utils.obj
 0002:00028408       ??_R2?$basic_stringbuf@DU?$char_traits@D@std@@V?$allocator@D@2@@std@@8 00000001400cc408     sfml-system-s:Utils.obj
 0002:00028420       ??_R1A@?0A@EA@?$basic_stringbuf@DU?$char_traits@D@std@@V?$allocator@D@2@@std@@8 00000001400cc420     sfml-system-s:Utils.obj
 0002:00028448       ??_R4?$basic_ostringstream@DU?$char_traits@D@std@@V?$allocator@D@2@@std@@6B@ 00000001400cc448     sfml-system-s:Utils.obj
 0002:00028470       ??_R3?$basic_ostringstream@DU?$char_traits@D@std@@V?$allocator@D@2@@std@@8 00000001400cc470     sfml-system-s:Utils.obj
 0002:00028488       ??_R2?$basic_ostringstream@DU?$char_traits@D@std@@V?$allocator@D@2@@std@@8 00000001400cc488     sfml-system-s:Utils.obj
 0002:000284b8       ??_R1A@?0A@EA@?$basic_ostringstream@DU?$char_traits@D@std@@V?$allocator@D@2@@std@@8 00000001400cc4b8     sfml-system-s:Utils.obj
 0002:000284e0       ??_R1A@?0A@EA@?$basic_ostream@DU?$char_traits@D@std@@@std@@8 00000001400cc4e0     sfml-system-s:Utils.obj
 0002:00028508       ??_R3?$basic_ostream@DU?$char_traits@D@std@@@std@@8 00000001400cc508     sfml-system-s:Utils.obj
 0002:00028520       ??_R2?$basic_ostream@DU?$char_traits@D@std@@@std@@8 00000001400cc520     sfml-system-s:Utils.obj
 0002:00028548       ??_R4filesystem_error@filesystem@std@@6B@ 00000001400cc548     sfml-system-s:Utils.obj
 0002:00028570       ??_R3filesystem_error@filesystem@std@@8 00000001400cc570     sfml-system-s:Utils.obj
 0002:00028588       ??_R2filesystem_error@filesystem@std@@8 00000001400cc588     sfml-system-s:Utils.obj
 0002:000285b8       ??_R1A@?0A@EA@filesystem_error@filesystem@std@@8 00000001400cc5b8     sfml-system-s:Utils.obj
 0002:000285e0       ??_R4WindowBase@sf@@6B@    00000001400cc5e0     sfml-window-s:WindowBase.obj
 0002:00028608       ??_R4Window@sf@@6B@        00000001400cc608     sfml-window-s:Window.obj
 0002:00028630       ??_R4WindowImpl@priv@sf@@6B@ 00000001400cc630     sfml-window-s:WindowImpl.obj
 0002:00028658       ??_R3WindowImpl@priv@sf@@8 00000001400cc658     sfml-window-s:WindowImpl.obj
 0002:00028670       ??_R2WindowImpl@priv@sf@@8 00000001400cc670     sfml-window-s:WindowImpl.obj
 0002:00028680       ??_R1A@?0A@EA@WindowImpl@priv@sf@@8 00000001400cc680     sfml-window-s:WindowImpl.obj
 0002:000286a8       ??_R4GlContext@priv@sf@@6B@ 00000001400cc6a8     sfml-window-s:GlContext.obj
 0002:000286d0       ??_R3GlContext@priv@sf@@8  00000001400cc6d0     sfml-window-s:GlContext.obj
 0002:000286e8       ??_R2GlContext@priv@sf@@8  00000001400cc6e8     sfml-window-s:GlContext.obj
 0002:000286f8       ??_R1A@?0A@EA@GlContext@priv@sf@@8 00000001400cc6f8     sfml-window-s:GlContext.obj
 0002:00028720       ??_R4?$_Ref_count_obj2@USharedContext@GlContext@priv@sf@@@std@@6B@ 00000001400cc720     sfml-window-s:GlContext.obj
 0002:00028748       ??_R3?$_Ref_count_obj2@USharedContext@GlContext@priv@sf@@@std@@8 00000001400cc748     sfml-window-s:GlContext.obj
 0002:00028760       ??_R2?$_Ref_count_obj2@USharedContext@GlContext@priv@sf@@@std@@8 00000001400cc760     sfml-window-s:GlContext.obj
 0002:00028778       ??_R1A@?0A@EA@?$_Ref_count_obj2@USharedContext@GlContext@priv@sf@@@std@@8 00000001400cc778     sfml-window-s:GlContext.obj
 0002:000287a0       ??_R4?$_Ref_count_obj2@V?$vector@UUnsharedGlObject@Impl@GlContext@priv@sf@@V?$allocator@UUnsharedGlObject@Impl@GlContext@priv@sf@@@std@@@std@@@std@@6B@ 00000001400cc7a0     sfml-window-s:GlContext.obj
 0002:000287c8       ??_R3?$_Ref_count_obj2@V?$vector@UUnsharedGlObject@Impl@GlContext@priv@sf@@V?$allocator@UUnsharedGlObject@Impl@GlContext@priv@sf@@@std@@@std@@@std@@8 00000001400cc7c8     sfml-window-s:GlContext.obj
 0002:000287e0       ??_R2?$_Ref_count_obj2@V?$vector@UUnsharedGlObject@Impl@GlContext@priv@sf@@V?$allocator@UUnsharedGlObject@Impl@GlContext@priv@sf@@@std@@@std@@@std@@8 00000001400cc7e0     sfml-window-s:GlContext.obj
 0002:000287f8       ??_R1A@?0A@EA@?$_Ref_count_obj2@V?$vector@UUnsharedGlObject@Impl@GlContext@priv@sf@@V?$allocator@UUnsharedGlObject@Impl@GlContext@priv@sf@@@std@@@std@@@std@@8 00000001400cc7f8     sfml-window-s:GlContext.obj
 0002:00028820       ??_R4WindowImplWin32@priv@sf@@6B@ 00000001400cc820     sfml-window-s:WindowImplWin32.obj
 0002:00028848       ??_R3WindowImplWin32@priv@sf@@8 00000001400cc848     sfml-window-s:WindowImplWin32.obj
 0002:00028860       ??_R2WindowImplWin32@priv@sf@@8 00000001400cc860     sfml-window-s:WindowImplWin32.obj
 0002:00028878       ??_R1A@?0A@EA@WindowImplWin32@priv@sf@@8 00000001400cc878     sfml-window-s:WindowImplWin32.obj
 0002:000288a0       ??_R4WglContext@priv@sf@@6B@ 00000001400cc8a0     sfml-window-s:WglContext.obj
 0002:000288c8       ??_R3WglContext@priv@sf@@8 00000001400cc8c8     sfml-window-s:WglContext.obj
 0002:000288e0       ??_R2WglContext@priv@sf@@8 00000001400cc8e0     sfml-window-s:WglContext.obj
 0002:000288f8       ??_R1A@?0A@EA@WglContext@priv@sf@@8 00000001400cc8f8     sfml-window-s:WglContext.obj
 0002:00028920       ??_R4?$basic_stringbuf@_WU?$char_traits@_W@std@@V?$allocator@_W@2@@std@@6B@ 00000001400cc920     sfml-window-s:JoystickImpl.obj
 0002:00028948       ??_R3?$basic_stringbuf@_WU?$char_traits@_W@std@@V?$allocator@_W@2@@std@@8 00000001400cc948     sfml-window-s:JoystickImpl.obj
 0002:00028960       ??_R2?$basic_stringbuf@_WU?$char_traits@_W@std@@V?$allocator@_W@2@@std@@8 00000001400cc960     sfml-window-s:JoystickImpl.obj
 0002:00028978       ??_R1A@?0A@EA@?$basic_stringbuf@_WU?$char_traits@_W@std@@V?$allocator@_W@2@@std@@8 00000001400cc978     sfml-window-s:JoystickImpl.obj
 0002:000289a0       ??_R1A@?0A@EA@?$basic_streambuf@_WU?$char_traits@_W@std@@@std@@8 00000001400cc9a0     sfml-window-s:JoystickImpl.obj
 0002:000289c8       ??_R3?$basic_streambuf@_WU?$char_traits@_W@std@@@std@@8 00000001400cc9c8     sfml-window-s:JoystickImpl.obj
 0002:000289e0       ??_R2?$basic_streambuf@_WU?$char_traits@_W@std@@@std@@8 00000001400cc9e0     sfml-window-s:JoystickImpl.obj
 0002:000289f0       ??_R4?$basic_ostringstream@_WU?$char_traits@_W@std@@V?$allocator@_W@2@@std@@6B@ 00000001400cc9f0     sfml-window-s:JoystickImpl.obj
 0002:00028a18       ??_R3?$basic_ostringstream@_WU?$char_traits@_W@std@@V?$allocator@_W@2@@std@@8 00000001400cca18     sfml-window-s:JoystickImpl.obj
 0002:00028a30       ??_R2?$basic_ostringstream@_WU?$char_traits@_W@std@@V?$allocator@_W@2@@std@@8 00000001400cca30     sfml-window-s:JoystickImpl.obj
 0002:00028a60       ??_R1A@?0A@EA@?$basic_ostringstream@_WU?$char_traits@_W@std@@V?$allocator@_W@2@@std@@8 00000001400cca60     sfml-window-s:JoystickImpl.obj
 0002:00028a88       ??_R1A@?0A@EA@?$basic_ostream@_WU?$char_traits@_W@std@@@std@@8 00000001400cca88     sfml-window-s:JoystickImpl.obj
 0002:00028ab0       ??_R3?$basic_ostream@_WU?$char_traits@_W@std@@@std@@8 00000001400ccab0     sfml-window-s:JoystickImpl.obj
 0002:00028ac8       ??_R2?$basic_ostream@_WU?$char_traits@_W@std@@@std@@8 00000001400ccac8     sfml-window-s:JoystickImpl.obj
 0002:00028af0       ??_R1A@A@3FA@?$basic_ios@_WU?$char_traits@_W@std@@@std@@8 00000001400ccaf0     sfml-window-s:JoystickImpl.obj
 0002:00028b18       ??_R3?$basic_ios@_WU?$char_traits@_W@std@@@std@@8 00000001400ccb18     sfml-window-s:JoystickImpl.obj
 0002:00028b30       ??_R2?$basic_ios@_WU?$char_traits@_W@std@@@std@@8 00000001400ccb30     sfml-window-s:JoystickImpl.obj
 0002:00028b50       ??_R1A@?0A@EA@?$basic_ios@_WU?$char_traits@_W@std@@@std@@8 00000001400ccb50     sfml-window-s:JoystickImpl.obj
 0002:00028b78       ??_R4type_info@@6B@        00000001400ccb78     MSVCRT:std_type_info_static.obj
 0002:00028ba0       ??_R3type_info@@8          00000001400ccba0     MSVCRT:std_type_info_static.obj
 0002:00028bb8       ??_R2type_info@@8          00000001400ccbb8     MSVCRT:std_type_info_static.obj
 0002:00028bc8       ??_R1A@?0A@EA@type_info@@8 00000001400ccbc8     MSVCRT:std_type_info_static.obj
 0002:00028bec       __volatile_metadata        00000001400ccbec     <linker-defined>
 0002:00029410       __rtc_iaa                  00000001400cd410     MSVCRT:initsect.obj
 0002:00029418       __rtc_izz                  00000001400cd418     MSVCRT:initsect.obj
 0002:00029420       __rtc_taa                  00000001400cd420     MSVCRT:initsect.obj
 0002:00029428       __rtc_tzz                  00000001400cd428     MSVCRT:initsect.obj
 0002:00029430       _tls_start                 00000001400cd430     MSVCRT:tlssup.obj
 0002:00029490       ?transientContext@?1??get@TransientContext@GlContext@priv@sf@@SAAEAV?$optional@UTransientContext@GlContext@priv@sf@@@std@@XZ@4V67@A 00000001400cd490     sfml-window-s:GlContext.obj
 0002:000294d8       ??__J?1??get@TransientContext@GlContext@priv@sf@@SAAEAV?$optional@UTransientContext@GlContext@priv@sf@@@std@@XZ@51 00000001400cd4d8     sfml-window-s:GlContext.obj
 0002:000294e8       _Init_thread_epoch         00000001400cd4e8     MSVCRT:thread_safe_statics.obj
 0002:00029600       __tls_guard                00000001400cd600     MSVCRT:tlsdyn.obj
 0002:00029601       _tls_end                   00000001400cd601     MSVCRT:tlssup.obj
 0002:00034cf0       _CT??_R0?AVexception@std@@@8??0exception@std@@QEAA@AEBV01@@Z24 00000001400d8cf0     main.obj
 0002:00034d18       _TI3?AVbad_array_new_length@std@@ 00000001400d8d18     main.obj
 0002:00034d38       _CTA3?AVbad_array_new_length@std@@ 00000001400d8d38     main.obj
 0002:00034d58       _CT??_R0?AVbad_array_new_length@std@@@8??0bad_array_new_length@std@@QEAA@AEBV01@@Z24 00000001400d8d58     main.obj
 0002:00034d80       _CT??_R0?AVbad_alloc@std@@@8??0bad_alloc@std@@QEAA@AEBV01@@Z24 00000001400d8d80     main.obj
 0002:00034da8       _CT??_R0?AVruntime_error@std@@@8??0runtime_error@std@@QEAA@AEBV01@@Z24 00000001400d8da8     main.obj
 0002:00034dd0       _TI4?AVsystem_error@std@@  00000001400d8dd0     main.obj
 0002:00034df0       _CTA4?AVsystem_error@std@@ 00000001400d8df0     main.obj
 0002:00034e18       _CT??_R0?AVsystem_error@std@@@8??0system_error@std@@QEAA@AEBV01@@Z40 00000001400d8e18     main.obj
 0002:00034e40       _CT??_R0?AV_System_error@std@@@8??0_System_error@std@@QEAA@AEBV01@@Z40 00000001400d8e40     main.obj
 0002:00034e68       _TI3?AVException@sf@@      00000001400d8e68     sfml-graphics-s:Texture.obj
 0002:00034e88       _CTA3?AVException@sf@@     00000001400d8e88     sfml-graphics-s:Texture.obj
 0002:00034ea8       _CT??_R0?AVException@sf@@@8??0Exception@sf@@QEAA@AEBV01@@Z24 00000001400d8ea8     sfml-graphics-s:Texture.obj
 0002:00034ed0       _TI2?AVbad_optional_access@std@@ 00000001400d8ed0     sfml-graphics-s:Font.obj
 0002:00034ef0       _CTA2?AVbad_optional_access@std@@ 00000001400d8ef0     sfml-graphics-s:Font.obj
 0002:00034f08       _CT??_R0?AVbad_optional_access@std@@@8??0bad_optional_access@std@@QEAA@AEBV01@@Z24 00000001400d8f08     sfml-graphics-s:Font.obj
 0002:00034f30       _TI2?AVbad_cast@std@@      00000001400d8f30     sfml-graphics-s:Shader.obj
 0002:00034f50       _CTA2?AVbad_cast@std@@     00000001400d8f50     sfml-graphics-s:Shader.obj
 0002:00034f68       _CT??_R0?AVbad_cast@std@@@8??0bad_cast@std@@QEAA@AEBV01@@Z24 00000001400d8f68     sfml-graphics-s:Shader.obj
 0002:00034f90       _TI5?AVfilesystem_error@filesystem@std@@ 00000001400d8f90     sfml-system-s:Utils.obj
 0002:00034fb0       _CTA5?AVfilesystem_error@filesystem@std@@ 00000001400d8fb0     sfml-system-s:Utils.obj
 0002:00034fe0       _CT??_R0?AVfilesystem_error@filesystem@std@@@8??0filesystem_error@filesystem@std@@QEAA@AEBV012@@Z136 00000001400d8fe0     sfml-system-s:Utils.obj
 0002:00035008       _TI2?AVbad_alloc@std@@     00000001400d9008     MSVCRT:throw_bad_alloc.obj
 0002:00035028       _CTA2?AVbad_alloc@std@@    00000001400d9028     MSVCRT:throw_bad_alloc.obj
 0002:0003503c       __IMPORT_DESCRIPTOR_WINMM  00000001400d903c     winmm:WINMM.dll
 0002:00035050       __IMPORT_DESCRIPTOR_KERNEL32 00000001400d9050     kernel32:KERNEL32.dll
 0002:00035064       __IMPORT_DESCRIPTOR_USER32 00000001400d9064     user32:USER32.dll
 0002:00035078       __IMPORT_DESCRIPTOR_ADVAPI32 00000001400d9078     advapi32:ADVAPI32.dll
 0002:0003508c       __IMPORT_DESCRIPTOR_MSVCP140 00000001400d908c     msvcprt:MSVCP140.dll
 0002:000350a0       __IMPORT_DESCRIPTOR_VCRUNTIME140 00000001400d90a0     vcruntime:VCRUNTIME140.dll
 0002:000350b4       __IMPORT_DESCRIPTOR_VCRUNTIME140_1 00000001400d90b4     vcruntime:VCRUNTIME140_1.dll
 0002:000350c8       __IMPORT_DESCRIPTOR_api-ms-win-crt-runtime-l1-1-0 00000001400d90c8     ucrt:api-ms-win-crt-runtime-l1-1-0.dll
 0002:000350dc       __IMPORT_DESCRIPTOR_api-ms-win-crt-heap-l1-1-0 00000001400d90dc     ucrt:api-ms-win-crt-heap-l1-1-0.dll
 0002:000350f0       __IMPORT_DESCRIPTOR_api-ms-win-crt-math-l1-1-0 00000001400d90f0     ucrt:api-ms-win-crt-math-l1-1-0.dll
 0002:00035104       __IMPORT_DESCRIPTOR_api-ms-win-crt-stdio-l1-1-0 00000001400d9104     ucrt:api-ms-win-crt-stdio-l1-1-0.dll
 0002:00035118       __IMPORT_DESCRIPTOR_api-ms-win-crt-string-l1-1-0 00000001400d9118     ucrt:api-ms-win-crt-string-l1-1-0.dll
 0002:0003512c       __IMPORT_DESCRIPTOR_api-ms-win-crt-convert-l1-1-0 00000001400d912c     ucrt:api-ms-win-crt-convert-l1-1-0.dll
 0002:00035140       __IMPORT_DESCRIPTOR_api-ms-win-crt-locale-l1-1-0 00000001400d9140     ucrt:api-ms-win-crt-locale-l1-1-0.dll
 0002:00035154       __IMPORT_DESCRIPTOR_GDI32  00000001400d9154     gdi32:GDI32.dll
 0002:00035168       __IMPORT_DESCRIPTOR_OPENGL32 00000001400d9168     opengl32:OPENGL32.dll
 0002:0003517c       __IMPORT_DESCRIPTOR_api-ms-win-crt-environment-l1-1-0 00000001400d917c     ucrt:api-ms-win-crt-environment-l1-1-0.dll
 0002:00035190       __IMPORT_DESCRIPTOR_api-ms-win-crt-utility-l1-1-0 00000001400d9190     ucrt:api-ms-win-crt-utility-l1-1-0.dll
 0002:000351a4       __NULL_IMPORT_DESCRIPTOR   00000001400d91a4     winmm:WINMM.dll
 0003:00000000       ?_Static@?1???$_Immortalize_memcpy_image@V_Generic_error_category@std@@@std@@YAAEBV_Generic_error_category@1@XZ@4U?$_Constexpr_immortalize_impl@V_Generic_error_category@std@@@1@A 00000001400dd000     main.obj
 0003:00000010       ?_Static@?1???$_Immortalize_memcpy_image@V_System_error_category@std@@@std@@YAAEBV_System_error_category@1@XZ@4U?$_Constexpr_immortalize_impl@V_System_error_category@std@@@1@A 00000001400dd010     main.obj
 0003:00000088       stbi_write_tga_with_rle    00000001400dd088     sfml-graphics-s:Image.obj
 0003:0000008c       stbi_write_png_compression_level 00000001400dd08c     sfml-graphics-s:Image.obj
 0003:00000090       stbi_write_force_png_filter 00000001400dd090     sfml-graphics-s:Image.obj
 0003:000000c8       ?BlendAlpha@sf@@3UBlendMode@1@B 00000001400dd0c8     sfml-graphics-s:BlendMode.obj
 0003:000000e0       ?BlendAdd@sf@@3UBlendMode@1@B 00000001400dd0e0     sfml-graphics-s:BlendMode.obj
 0003:000000f8       ?BlendMultiply@sf@@3UBlendMode@1@B 00000001400dd0f8     sfml-graphics-s:BlendMode.obj
 0003:00000110       ?BlendMin@sf@@3UBlendMode@1@B 00000001400dd110     sfml-graphics-s:BlendMode.obj
 0003:00000128       ?BlendMax@sf@@3UBlendMode@1@B 00000001400dd128     sfml-graphics-s:BlendMode.obj
 0003:00000140       ?BlendNone@sf@@3UBlendMode@1@B 00000001400dd140     sfml-graphics-s:BlendMode.obj
 0003:00000158       ?atomicId@?1???R<lambda_1_>@Impl@GlContext@priv@sf@@QEBA@XZ@4U?$atomic@_K@std@@A 00000001400dd158     sfml-window-s:GlContext.obj
 0003:00000160       ?mutex@?1??getUnsharedGlObjectsMutex@Impl@GlContext@priv@sf@@SAAEAV0std@@XZ@4V06@A 00000001400dd160     sfml-window-s:GlContext.obj
 0003:000002b0       _fltused                   00000001400dd2b0     MSVCRT:fltused.obj
 0003:000002c0       __security_cookie          00000001400dd2c0     MSVCRT:gs_cookie.obj
 0003:00000300       __security_cookie_complement 00000001400dd300     MSVCRT:gs_cookie.obj
 0003:00000308       _Init_global_epoch         00000001400dd308     MSVCRT:thread_safe_statics.obj
 0003:0000030c       __scrt_native_dllmain_reason 00000001400dd30c     MSVCRT:utility.obj
 0003:00000310       __isa_inverted             00000001400dd310     MSVCRT:cpu_disp.obj
 0003:00000318       __isa_available            00000001400dd318     MSVCRT:cpu_disp.obj
 0003:0000031c       __isa_enabled              00000001400dd31c     MSVCRT:cpu_disp.obj
 0003:00000320       __memset_fast_string_threshold 00000001400dd320     MSVCRT:cpu_disp.obj
 0003:00000328       __memset_nt_threshold      00000001400dd328     MSVCRT:cpu_disp.obj
 0003:00000330       __scrt_default_matherr     00000001400dd330     MSVCRT:matherr.obj
 0003:00000340       __scrt_ucrt_dll_is_in_use  00000001400dd340     MSVCRT:ucrt_stubs.obj
 0003:00000348       ??_R0?AVexception@std@@@8  00000001400dd348     main.obj
 0003:00000370       ??_R0?AVbad_array_new_length@std@@@8 00000001400dd370     main.obj
 0003:000003a0       ??_R0?AVbad_alloc@std@@@8  00000001400dd3a0     main.obj
 0003:000003c8       ??_R0?AVruntime_error@std@@@8 00000001400dd3c8     main.obj
 0003:000003f0       ??_R0?AVsystem_error@std@@@8 00000001400dd3f0     main.obj
 0003:00000418       ??_R0?AV_System_error@std@@@8 00000001400dd418     main.obj
 0003:00000440       ??_R0?AVException@sf@@@8   00000001400dd440     sfml-graphics-s:Texture.obj
 0003:00000468       ??_R0?AVbad_optional_access@std@@@8 00000001400dd468     sfml-graphics-s:Font.obj
 0003:00000498       ??_R0?AVbad_cast@std@@@8   00000001400dd498     sfml-graphics-s:Shader.obj
 0003:000004c0       ??_R0?AVfilesystem_error@filesystem@std@@@8 00000001400dd4c0     sfml-system-s:Utils.obj
 0003:00000500       ??_R0?AVDrawable@sf@@@8    00000001400dd500     sfml-graphics-s:CircleShape.obj
 0003:00000528       ??_R0?AVTransformable@sf@@@8 00000001400dd528     sfml-graphics-s:CircleShape.obj
 0003:00000550       ??_R0?AVShape@sf@@@8       00000001400dd550     sfml-graphics-s:CircleShape.obj
 0003:00000570       ??_R0?AVCircleShape@sf@@@8 00000001400dd570     sfml-graphics-s:CircleShape.obj
 0003:00000598       ??_R0?AV_Ref_count_base@std@@@8 00000001400dd598     sfml-graphics-s:Font.obj
 0003:000005c8       ??_R0?AVerror_category@std@@@8 00000001400dd5c8     sfml-graphics-s:Font.obj
 0003:000005f8       ??_R0?AV_Generic_error_category@std@@@8 00000001400dd5f8     sfml-graphics-s:Font.obj
 0003:00000630       ??_R0?AV_System_error_category@std@@@8 00000001400dd630     sfml-graphics-s:Font.obj
 0003:00000670       ??_R0?AV?$_Ref_count_obj2@UFontHandles@Font@sf@@@std@@@8 00000001400dd670     sfml-graphics-s:Font.obj
 0003:000006b8       ??_R0?AVRenderTarget@sf@@@8 00000001400dd6b8     sfml-graphics-s:RenderWindow.obj
 0003:000006e0       ??_R0?AVRenderWindow@sf@@@8 00000001400dd6e0     sfml-graphics-s:RenderWindow.obj
 0003:00000708       ??_R0?AVWindow@sf@@@8      00000001400dd708     sfml-graphics-s:RenderWindow.obj
 0003:00000728       ??_R0?AVWindowBase@sf@@@8  00000001400dd728     sfml-graphics-s:RenderWindow.obj
 0003:00000750       ??_R0?AVGlResource@sf@@@8  00000001400dd750     sfml-graphics-s:RenderWindow.obj
 0003:00000778       ??_R0?AVText@sf@@@8        00000001400dd778     sfml-graphics-s:Text.obj
 0003:00000798       ??_R0?AVVertexArray@sf@@@8 00000001400dd798     sfml-graphics-s:VertexArray.obj
 0003:000007c0       ??_R0?AV?$basic_streambuf@DU?$char_traits@D@std@@@std@@@8 00000001400dd7c0     sfml-graphics-s:Shader.obj
 0003:00000808       ??_R0?AV?$basic_ios@DU?$char_traits@D@std@@@std@@@8 00000001400dd808     sfml-graphics-s:Shader.obj
 0003:00000848       ??_R0?AVios_base@std@@@8   00000001400dd848     sfml-graphics-s:Shader.obj
 0003:00000870       ??_R0?AV?$_Iosb@H@std@@@8  00000001400dd870     sfml-graphics-s:Shader.obj
 0003:000008d0       ??_R0?AV?$basic_stringbuf@DU?$char_traits@D@std@@V?$allocator@D@2@@std@@@8 00000001400dd8d0     sfml-system-s:Utils.obj
 0003:00000930       ??_R0?AV?$basic_ostringstream@DU?$char_traits@D@std@@V?$allocator@D@2@@std@@@8 00000001400dd930     sfml-system-s:Utils.obj
 0003:00000990       ??_R0?AV?$basic_ostream@DU?$char_traits@D@std@@@std@@@8 00000001400dd990     sfml-system-s:Utils.obj
 0003:000009d8       ??_R0?AVWindowImpl@priv@sf@@@8 00000001400dd9d8     sfml-window-s:WindowImpl.obj
 0003:00000a08       ??_R0?AVGlContext@priv@sf@@@8 00000001400dda08     sfml-window-s:GlContext.obj
 0003:00000a30       ??_R0?AV?$_Ref_count_obj2@USharedContext@GlContext@priv@sf@@@std@@@8 00000001400dda30     sfml-window-s:GlContext.obj
 0003:00000a80       ??_R0?AV?$_Ref_count_obj2@V?$vector@UUnsharedGlObject@Impl@GlContext@priv@sf@@V?$allocator@UUnsharedGlObject@Impl@GlContext@priv@sf@@@std@@@std@@@std@@@8 00000001400dda80     sfml-window-s:GlContext.obj
 0003:00000b28       ??_R0?AVWindowImplWin32@priv@sf@@@8 00000001400ddb28     sfml-window-s:WindowImplWin32.obj
 0003:00000b58       ??_R0?AVWglContext@priv@sf@@@8 00000001400ddb58     sfml-window-s:WglContext.obj
 0003:00000b90       ??_R0?AV?$basic_stringbuf@_WU?$char_traits@_W@std@@V?$allocator@_W@2@@std@@@8 00000001400ddb90     sfml-window-s:JoystickImpl.obj
 0003:00000bf0       ??_R0?AV?$basic_streambuf@_WU?$char_traits@_W@std@@@std@@@8 00000001400ddbf0     sfml-window-s:JoystickImpl.obj
 0003:00000c40       ??_R0?AV?$basic_ostringstream@_WU?$char_traits@_W@std@@V?$allocator@_W@2@@std@@@8 00000001400ddc40     sfml-window-s:JoystickImpl.obj
 0003:00000ca0       ??_R0?AV?$basic_ostream@_WU?$char_traits@_W@std@@@std@@@8 00000001400ddca0     sfml-window-s:JoystickImpl.obj
 0003:00000cf0       ??_R0?AV?$basic_ios@_WU?$char_traits@_W@std@@@std@@@8 00000001400ddcf0     sfml-window-s:JoystickImpl.obj
 0003:00000d30       ??_R0?AVtype_info@@@8      00000001400ddd30     MSVCRT:std_type_info_static.obj
 0003:00000d58       ?GRAPHIC_SETTINGS@@3VGraphicSettings@@A 00000001400ddd58     main.obj
 0003:00000dd0       ?Default@RenderStates@sf@@2U12@B 00000001400dddd0     sfml-graphics-s:RenderStates.obj
 0003:00000e50       SF_GLAD_GL_VERSION_1_0     00000001400dde50     sfml-graphics-s:GLExtensions.obj
 0003:00000e54       SF_GLAD_GL_VERSION_1_1     00000001400dde54     sfml-graphics-s:GLExtensions.obj
 0003:00000e58       SF_GLAD_GL_VERSION_1_2     00000001400dde58     sfml-graphics-s:GLExtensions.obj
 0003:00000e5c       SF_GLAD_GL_VERSION_1_3     00000001400dde5c     sfml-graphics-s:GLExtensions.obj
 0003:00000e60       SF_GLAD_GL_VERSION_1_4     00000001400dde60     sfml-graphics-s:GLExtensions.obj
 0003:00000e64       SF_GLAD_GL_VERSION_1_5     00000001400dde64     sfml-graphics-s:GLExtensions.obj
 0003:00000e68       SF_GLAD_GL_VERSION_2_0     00000001400dde68     sfml-graphics-s:GLExtensions.obj
 0003:00000e6c       SF_GLAD_GL_VERSION_2_1     00000001400dde6c     sfml-graphics-s:GLExtensions.obj
 0003:00000e70       SF_GLAD_GL_VERSION_3_0     00000001400dde70     sfml-graphics-s:GLExtensions.obj
 0003:00000e74       SF_GLAD_GL_VERSION_3_1     00000001400dde74     sfml-graphics-s:GLExtensions.obj
 0003:00000e78       SF_GLAD_GL_VERSION_3_2     00000001400dde78     sfml-graphics-s:GLExtensions.obj
 0003:00000e7c       SF_GLAD_GL_VERSION_3_3     00000001400dde7c     sfml-graphics-s:GLExtensions.obj
 0003:00000e80       SF_GLAD_GL_VERSION_4_0     00000001400dde80     sfml-graphics-s:GLExtensions.obj
 0003:00000e84       SF_GLAD_GL_VERSION_4_1     00000001400dde84     sfml-graphics-s:GLExtensions.obj
 0003:00000e88       SF_GLAD_GL_VERSION_4_2     00000001400dde88     sfml-graphics-s:GLExtensions.obj
 0003:00000e8c       SF_GLAD_GL_VERSION_4_3     00000001400dde8c     sfml-graphics-s:GLExtensions.obj
 0003:00000e90       SF_GLAD_GL_VERSION_4_4     00000001400dde90     sfml-graphics-s:GLExtensions.obj
 0003:00000e94       SF_GLAD_GL_VERSION_4_5     00000001400dde94     sfml-graphics-s:GLExtensions.obj
 0003:00000e98       SF_GLAD_GL_VERSION_4_6     00000001400dde98     sfml-graphics-s:GLExtensions.obj
 0003:00000e9c       SF_GLAD_GL_VERSION_ES_CM_1_0 00000001400dde9c     sfml-graphics-s:GLExtensions.obj
 0003:00000ea0       SF_GLAD_GL_ARB_ES2_compatibility 00000001400ddea0     sfml-graphics-s:GLExtensions.obj
 0003:00000ea4       SF_GLAD_GL_ARB_ES3_1_compatibility 00000001400ddea4     sfml-graphics-s:GLExtensions.obj
 0003:00000ea8       SF_GLAD_GL_ARB_base_instance 00000001400ddea8     sfml-graphics-s:GLExtensions.obj
 0003:00000eac       SF_GLAD_GL_ARB_blend_func_extended 00000001400ddeac     sfml-graphics-s:GLExtensions.obj
 0003:00000eb0       SF_GLAD_GL_ARB_buffer_storage 00000001400ddeb0     sfml-graphics-s:GLExtensions.obj
 0003:00000eb4       SF_GLAD_GL_ARB_clear_buffer_object 00000001400ddeb4     sfml-graphics-s:GLExtensions.obj
 0003:00000eb8       SF_GLAD_GL_ARB_clear_texture 00000001400ddeb8     sfml-graphics-s:GLExtensions.obj
 0003:00000ebc       SF_GLAD_GL_ARB_clip_control 00000001400ddebc     sfml-graphics-s:GLExtensions.obj
 0003:00000ec0       SF_GLAD_GL_ARB_compute_shader 00000001400ddec0     sfml-graphics-s:GLExtensions.obj
 0003:00000ec4       SF_GLAD_GL_ARB_copy_buffer 00000001400ddec4     sfml-graphics-s:GLExtensions.obj
 0003:00000ec8       SF_GLAD_GL_ARB_copy_image  00000001400ddec8     sfml-graphics-s:GLExtensions.obj
 0003:00000ecc       SF_GLAD_GL_ARB_direct_state_access 00000001400ddecc     sfml-graphics-s:GLExtensions.obj
 0003:00000ed0       SF_GLAD_GL_ARB_draw_elements_base_vertex 00000001400dded0     sfml-graphics-s:GLExtensions.obj
 0003:00000ed4       SF_GLAD_GL_ARB_draw_indirect 00000001400dded4     sfml-graphics-s:GLExtensions.obj
 0003:00000ed8       SF_GLAD_GL_ARB_fragment_program 00000001400dded8     sfml-graphics-s:GLExtensions.obj
 0003:00000edc       SF_GLAD_GL_ARB_fragment_shader 00000001400ddedc     sfml-graphics-s:GLExtensions.obj
 0003:00000ee0       SF_GLAD_GL_ARB_framebuffer_no_attachments 00000001400ddee0     sfml-graphics-s:GLExtensions.obj
 0003:00000ee4       SF_GLAD_GL_ARB_framebuffer_object 00000001400ddee4     sfml-graphics-s:GLExtensions.obj
 0003:00000ee8       SF_GLAD_GL_ARB_geometry_shader4 00000001400ddee8     sfml-graphics-s:GLExtensions.obj
 0003:00000eec       SF_GLAD_GL_ARB_get_program_binary 00000001400ddeec     sfml-graphics-s:GLExtensions.obj
 0003:00000ef0       SF_GLAD_GL_ARB_get_texture_sub_image 00000001400ddef0     sfml-graphics-s:GLExtensions.obj
 0003:00000ef4       SF_GLAD_GL_ARB_gpu_shader_fp64 00000001400ddef4     sfml-graphics-s:GLExtensions.obj
 0003:00000ef8       SF_GLAD_GL_ARB_imaging     00000001400ddef8     sfml-graphics-s:GLExtensions.obj
 0003:00000efc       SF_GLAD_GL_ARB_internalformat_query 00000001400ddefc     sfml-graphics-s:GLExtensions.obj
 0003:00000f00       SF_GLAD_GL_ARB_internalformat_query2 00000001400ddf00     sfml-graphics-s:GLExtensions.obj
 0003:00000f04       SF_GLAD_GL_ARB_invalidate_subdata 00000001400ddf04     sfml-graphics-s:GLExtensions.obj
 0003:00000f08       SF_GLAD_GL_ARB_map_buffer_range 00000001400ddf08     sfml-graphics-s:GLExtensions.obj
 0003:00000f0c       SF_GLAD_GL_ARB_multi_bind  00000001400ddf0c     sfml-graphics-s:GLExtensions.obj
 0003:00000f10       SF_GLAD_GL_ARB_multi_draw_indirect 00000001400ddf10     sfml-graphics-s:GLExtensions.obj
 0003:00000f14       SF_GLAD_GL_ARB_multitexture 00000001400ddf14     sfml-graphics-s:GLExtensions.obj
 0003:00000f18       SF_GLAD_GL_ARB_polygon_offset_clamp 00000001400ddf18     sfml-graphics-s:GLExtensions.obj
 0003:00000f1c       SF_GLAD_GL_ARB_program_interface_query 00000001400ddf1c     sfml-graphics-s:GLExtensions.obj
 0003:00000f20       SF_GLAD_GL_ARB_provoking_vertex 00000001400ddf20     sfml-graphics-s:GLExtensions.obj
 0003:00000f24       SF_GLAD_GL_ARB_sampler_objects 00000001400ddf24     sfml-graphics-s:GLExtensions.obj
 0003:00000f28       SF_GLAD_GL_ARB_separate_shader_objects 00000001400ddf28     sfml-graphics-s:GLExtensions.obj
 0003:00000f2c       SF_GLAD_GL_ARB_shader_atomic_counters 00000001400ddf2c     sfml-graphics-s:GLExtensions.obj
 0003:00000f30       SF_GLAD_GL_ARB_shader_image_load_store 00000001400ddf30     sfml-graphics-s:GLExtensions.obj
 0003:00000f34       SF_GLAD_GL_ARB_shader_objects 00000001400ddf34     sfml-graphics-s:GLExtensions.obj
 0003:00000f38       SF_GLAD_GL_ARB_shader_storage_buffer_object 00000001400ddf38     sfml-graphics-s:GLExtensions.obj
 0003:00000f3c       SF_GLAD_GL_ARB_shader_subroutine 00000001400ddf3c     sfml-graphics-s:GLExtensions.obj
 0003:00000f40       SF_GLAD_GL_ARB_shading_language_100 00000001400ddf40     sfml-graphics-s:GLExtensions.obj
 0003:00000f44       SF_GLAD_GL_ARB_sync        00000001400ddf44     sfml-graphics-s:GLExtensions.obj
 0003:00000f48       SF_GLAD_GL_ARB_tessellation_shader 00000001400ddf48     sfml-graphics-s:GLExtensions.obj
 0003:00000f4c       SF_GLAD_GL_ARB_texture_barrier 00000001400ddf4c     sfml-graphics-s:GLExtensions.obj
 0003:00000f50       SF_GLAD_GL_ARB_texture_buffer_range 00000001400ddf50     sfml-graphics-s:GLExtensions.obj
 0003:00000f54       SF_GLAD_GL_ARB_texture_multisample 00000001400ddf54     sfml-graphics-s:GLExtensions.obj
 0003:00000f58       SF_GLAD_GL_ARB_texture_non_power_of_two 00000001400ddf58     sfml-graphics-s:GLExtensions.obj
 0003:00000f5c       SF_GLAD_GL_ARB_texture_storage 00000001400ddf5c     sfml-graphics-s:GLExtensions.obj
 0003:00000f60       SF_GLAD_GL_ARB_texture_storage_multisample 00000001400ddf60     sfml-graphics-s:GLExtensions.obj
 0003:00000f64       SF_GLAD_GL_ARB_texture_view 00000001400ddf64     sfml-graphics-s:GLExtensions.obj
 0003:00000f68       SF_GLAD_GL_ARB_timer_query 00000001400ddf68     sfml-graphics-s:GLExtensions.obj
 0003:00000f6c       SF_GLAD_GL_ARB_transform_feedback2 00000001400ddf6c     sfml-graphics-s:GLExtensions.obj
 0003:00000f70       SF_GLAD_GL_ARB_transform_feedback3 00000001400ddf70     sfml-graphics-s:GLExtensions.obj
 0003:00000f74       SF_GLAD_GL_ARB_transform_feedback_instanced 00000001400ddf74     sfml-graphics-s:GLExtensions.obj
 0003:00000f78       SF_GLAD_GL_ARB_uniform_buffer_object 00000001400ddf78     sfml-graphics-s:GLExtensions.obj
 0003:00000f7c       SF_GLAD_GL_ARB_vertex_array_object 00000001400ddf7c     sfml-graphics-s:GLExtensions.obj
 0003:00000f80       SF_GLAD_GL_ARB_vertex_attrib_64bit 00000001400ddf80     sfml-graphics-s:GLExtensions.obj
 0003:00000f84       SF_GLAD_GL_ARB_vertex_attrib_binding 00000001400ddf84     sfml-graphics-s:GLExtensions.obj
 0003:00000f88       SF_GLAD_GL_ARB_vertex_buffer_object 00000001400ddf88     sfml-graphics-s:GLExtensions.obj
 0003:00000f8c       SF_GLAD_GL_ARB_vertex_program 00000001400ddf8c     sfml-graphics-s:GLExtensions.obj
 0003:00000f90       SF_GLAD_GL_ARB_vertex_shader 00000001400ddf90     sfml-graphics-s:GLExtensions.obj
 0003:00000f94       SF_GLAD_GL_ARB_vertex_type_2_10_10_10_rev 00000001400ddf94     sfml-graphics-s:GLExtensions.obj
 0003:00000f98       SF_GLAD_GL_ARB_viewport_array 00000001400ddf98     sfml-graphics-s:GLExtensions.obj
 0003:00000f9c       SF_GLAD_GL_EXT_blend_equation_separate 00000001400ddf9c     sfml-graphics-s:GLExtensions.obj
 0003:00000fa0       SF_GLAD_GL_EXT_blend_func_separate 00000001400ddfa0     sfml-graphics-s:GLExtensions.obj
 0003:00000fa4       SF_GLAD_GL_EXT_blend_minmax 00000001400ddfa4     sfml-graphics-s:GLExtensions.obj
 0003:00000fa8       SF_GLAD_GL_EXT_blend_subtract 00000001400ddfa8     sfml-graphics-s:GLExtensions.obj
 0003:00000fac       SF_GLAD_GL_EXT_copy_texture 00000001400ddfac     sfml-graphics-s:GLExtensions.obj
 0003:00000fb0       SF_GLAD_GL_EXT_framebuffer_blit 00000001400ddfb0     sfml-graphics-s:GLExtensions.obj
 0003:00000fb4       SF_GLAD_GL_EXT_framebuffer_multisample 00000001400ddfb4     sfml-graphics-s:GLExtensions.obj
 0003:00000fb8       SF_GLAD_GL_EXT_framebuffer_object 00000001400ddfb8     sfml-graphics-s:GLExtensions.obj
 0003:00000fbc       SF_GLAD_GL_EXT_geometry_shader4 00000001400ddfbc     sfml-graphics-s:GLExtensions.obj
 0003:00000fc0       SF_GLAD_GL_EXT_packed_depth_stencil 00000001400ddfc0     sfml-graphics-s:GLExtensions.obj
 0003:00000fc4       SF_GLAD_GL_EXT_subtexture  00000001400ddfc4     sfml-graphics-s:GLExtensions.obj
 0003:00000fc8       SF_GLAD_GL_EXT_texture_array 00000001400ddfc8     sfml-graphics-s:GLExtensions.obj
 0003:00000fcc       SF_GLAD_GL_EXT_texture_object 00000001400ddfcc     sfml-graphics-s:GLExtensions.obj
 0003:00000fd0       SF_GLAD_GL_EXT_texture_sRGB 00000001400ddfd0     sfml-graphics-s:GLExtensions.obj
 0003:00000fd4       SF_GLAD_GL_EXT_vertex_array 00000001400ddfd4     sfml-graphics-s:GLExtensions.obj
 0003:00000fd8       SF_GLAD_GL_INGR_blend_func_separate 00000001400ddfd8     sfml-graphics-s:GLExtensions.obj
 0003:00000fdc       SF_GLAD_GL_KHR_debug       00000001400ddfdc     sfml-graphics-s:GLExtensions.obj
 0003:00000fe0       SF_GLAD_GL_KHR_robustness  00000001400ddfe0     sfml-graphics-s:GLExtensions.obj
 0003:00000fe4       SF_GLAD_GL_NV_geometry_program4 00000001400ddfe4     sfml-graphics-s:GLExtensions.obj
 0003:00000fe8       SF_GLAD_GL_NV_vertex_program 00000001400ddfe8     sfml-graphics-s:GLExtensions.obj
 0003:00000fec       SF_GLAD_GL_OES_single_precision 00000001400ddfec     sfml-graphics-s:GLExtensions.obj
 0003:00000ff0       SF_GLAD_GL_SGIS_texture_edge_clamp 00000001400ddff0     sfml-graphics-s:GLExtensions.obj
 0003:00000ff4       SF_GLAD_GL_EXT_sRGB        00000001400ddff4     sfml-graphics-s:GLExtensions.obj
 0003:00000ff8       SF_GLAD_GL_OES_blend_equation_separate 00000001400ddff8     sfml-graphics-s:GLExtensions.obj
 0003:00000ffc       SF_GLAD_GL_OES_blend_func_separate 00000001400ddffc     sfml-graphics-s:GLExtensions.obj
 0003:00001000       SF_GLAD_GL_OES_blend_subtract 00000001400de000     sfml-graphics-s:GLExtensions.obj
 0003:00001004       SF_GLAD_GL_OES_depth24     00000001400de004     sfml-graphics-s:GLExtensions.obj
 0003:00001008       SF_GLAD_GL_OES_depth32     00000001400de008     sfml-graphics-s:GLExtensions.obj
 0003:0000100c       SF_GLAD_GL_OES_framebuffer_object 00000001400de00c     sfml-graphics-s:GLExtensions.obj
 0003:00001010       SF_GLAD_GL_OES_packed_depth_stencil 00000001400de010     sfml-graphics-s:GLExtensions.obj
 0003:00001014       SF_GLAD_GL_OES_texture_npot 00000001400de014     sfml-graphics-s:GLExtensions.obj
 0003:00001018       sf_glad_glAccum            00000001400de018     sfml-graphics-s:GLExtensions.obj
 0003:00001020       sf_glad_glActiveShaderProgram 00000001400de020     sfml-graphics-s:GLExtensions.obj
 0003:00001028       sf_glad_glActiveTexture    00000001400de028     sfml-graphics-s:GLExtensions.obj
 0003:00001030       sf_glad_glActiveTextureARB 00000001400de030     sfml-graphics-s:GLExtensions.obj
 0003:00001038       sf_glad_glAlphaFunc        00000001400de038     sfml-graphics-s:GLExtensions.obj
 0003:00001040       sf_glad_glAreProgramsResidentNV 00000001400de040     sfml-graphics-s:GLExtensions.obj
 0003:00001048       sf_glad_glAreTexturesResident 00000001400de048     sfml-graphics-s:GLExtensions.obj
 0003:00001050       sf_glad_glAreTexturesResidentEXT 00000001400de050     sfml-graphics-s:GLExtensions.obj
 0003:00001058       sf_glad_glArrayElement     00000001400de058     sfml-graphics-s:GLExtensions.obj
 0003:00001060       sf_glad_glArrayElementEXT  00000001400de060     sfml-graphics-s:GLExtensions.obj
 0003:00001068       sf_glad_glAttachObjectARB  00000001400de068     sfml-graphics-s:GLExtensions.obj
 0003:00001070       sf_glad_glAttachShader     00000001400de070     sfml-graphics-s:GLExtensions.obj
 0003:00001078       sf_glad_glBegin            00000001400de078     sfml-graphics-s:GLExtensions.obj
 0003:00001080       sf_glad_glBeginConditionalRender 00000001400de080     sfml-graphics-s:GLExtensions.obj
 0003:00001088       sf_glad_glBeginQuery       00000001400de088     sfml-graphics-s:GLExtensions.obj
 0003:00001090       sf_glad_glBeginQueryIndexed 00000001400de090     sfml-graphics-s:GLExtensions.obj
 0003:00001098       sf_glad_glBeginTransformFeedback 00000001400de098     sfml-graphics-s:GLExtensions.obj
 0003:000010a0       sf_glad_glBindAttribLocation 00000001400de0a0     sfml-graphics-s:GLExtensions.obj
 0003:000010a8       sf_glad_glBindAttribLocationARB 00000001400de0a8     sfml-graphics-s:GLExtensions.obj
 0003:000010b0       sf_glad_glBindBuffer       00000001400de0b0     sfml-graphics-s:GLExtensions.obj
 0003:000010b8       sf_glad_glBindBufferARB    00000001400de0b8     sfml-graphics-s:GLExtensions.obj
 0003:000010c0       sf_glad_glBindBufferBase   00000001400de0c0     sfml-graphics-s:GLExtensions.obj
 0003:000010c8       sf_glad_glBindBufferRange  00000001400de0c8     sfml-graphics-s:GLExtensions.obj
 0003:000010d0       sf_glad_glBindBuffersBase  00000001400de0d0     sfml-graphics-s:GLExtensions.obj
 0003:000010d8       sf_glad_glBindBuffersRange 00000001400de0d8     sfml-graphics-s:GLExtensions.obj
 0003:000010e0       sf_glad_glBindFragDataLocation 00000001400de0e0     sfml-graphics-s:GLExtensions.obj
 0003:000010e8       sf_glad_glBindFragDataLocationIndexed 00000001400de0e8     sfml-graphics-s:GLExtensions.obj
 0003:000010f0       sf_glad_glBindFramebuffer  00000001400de0f0     sfml-graphics-s:GLExtensions.obj
 0003:000010f8       sf_glad_glBindFramebufferEXT 00000001400de0f8     sfml-graphics-s:GLExtensions.obj
 0003:00001100       sf_glad_glBindImageTexture 00000001400de100     sfml-graphics-s:GLExtensions.obj
 0003:00001108       sf_glad_glBindImageTextures 00000001400de108     sfml-graphics-s:GLExtensions.obj
 0003:00001110       sf_glad_glBindProgramARB   00000001400de110     sfml-graphics-s:GLExtensions.obj
 0003:00001118       sf_glad_glBindProgramNV    00000001400de118     sfml-graphics-s:GLExtensions.obj
 0003:00001120       sf_glad_glBindProgramPipeline 00000001400de120     sfml-graphics-s:GLExtensions.obj
 0003:00001128       sf_glad_glBindRenderbuffer 00000001400de128     sfml-graphics-s:GLExtensions.obj
 0003:00001130       sf_glad_glBindRenderbufferEXT 00000001400de130     sfml-graphics-s:GLExtensions.obj
 0003:00001138       sf_glad_glBindSampler      00000001400de138     sfml-graphics-s:GLExtensions.obj
 0003:00001140       sf_glad_glBindSamplers     00000001400de140     sfml-graphics-s:GLExtensions.obj
 0003:00001148       sf_glad_glBindTexture      00000001400de148     sfml-graphics-s:GLExtensions.obj
 0003:00001150       sf_glad_glBindTextureEXT   00000001400de150     sfml-graphics-s:GLExtensions.obj
 0003:00001158       sf_glad_glBindTextureUnit  00000001400de158     sfml-graphics-s:GLExtensions.obj
 0003:00001160       sf_glad_glBindTextures     00000001400de160     sfml-graphics-s:GLExtensions.obj
 0003:00001168       sf_glad_glBindTransformFeedback 00000001400de168     sfml-graphics-s:GLExtensions.obj
 0003:00001170       sf_glad_glBindVertexArray  00000001400de170     sfml-graphics-s:GLExtensions.obj
 0003:00001178       sf_glad_glBindVertexBuffer 00000001400de178     sfml-graphics-s:GLExtensions.obj
 0003:00001180       sf_glad_glBindVertexBuffers 00000001400de180     sfml-graphics-s:GLExtensions.obj
 0003:00001188       sf_glad_glBitmap           00000001400de188     sfml-graphics-s:GLExtensions.obj
 0003:00001190       sf_glad_glBlendColor       00000001400de190     sfml-graphics-s:GLExtensions.obj
 0003:00001198       sf_glad_glBlendEquation    00000001400de198     sfml-graphics-s:GLExtensions.obj
 0003:000011a0       sf_glad_glBlendEquationEXT 00000001400de1a0     sfml-graphics-s:GLExtensions.obj
 0003:000011a8       sf_glad_glBlendEquationSeparate 00000001400de1a8     sfml-graphics-s:GLExtensions.obj
 0003:000011b0       sf_glad_glBlendEquationSeparateEXT 00000001400de1b0     sfml-graphics-s:GLExtensions.obj
 0003:000011b8       sf_glad_glBlendEquationSeparatei 00000001400de1b8     sfml-graphics-s:GLExtensions.obj
 0003:000011c0       sf_glad_glBlendEquationi   00000001400de1c0     sfml-graphics-s:GLExtensions.obj
 0003:000011c8       sf_glad_glBlendFunc        00000001400de1c8     sfml-graphics-s:GLExtensions.obj
 0003:000011d0       sf_glad_glBlendFuncSeparate 00000001400de1d0     sfml-graphics-s:GLExtensions.obj
 0003:000011d8       sf_glad_glBlendFuncSeparateEXT 00000001400de1d8     sfml-graphics-s:GLExtensions.obj
 0003:000011e0       sf_glad_glBlendFuncSeparateINGR 00000001400de1e0     sfml-graphics-s:GLExtensions.obj
 0003:000011e8       sf_glad_glBlendFuncSeparatei 00000001400de1e8     sfml-graphics-s:GLExtensions.obj
 0003:000011f0       sf_glad_glBlendFunci       00000001400de1f0     sfml-graphics-s:GLExtensions.obj
 0003:000011f8       sf_glad_glBlitFramebuffer  00000001400de1f8     sfml-graphics-s:GLExtensions.obj
 0003:00001200       sf_glad_glBlitFramebufferEXT 00000001400de200     sfml-graphics-s:GLExtensions.obj
 0003:00001208       sf_glad_glBlitNamedFramebuffer 00000001400de208     sfml-graphics-s:GLExtensions.obj
 0003:00001210       sf_glad_glBufferData       00000001400de210     sfml-graphics-s:GLExtensions.obj
 0003:00001218       sf_glad_glBufferDataARB    00000001400de218     sfml-graphics-s:GLExtensions.obj
 0003:00001220       sf_glad_glBufferStorage    00000001400de220     sfml-graphics-s:GLExtensions.obj
 0003:00001228       sf_glad_glBufferSubData    00000001400de228     sfml-graphics-s:GLExtensions.obj
 0003:00001230       sf_glad_glBufferSubDataARB 00000001400de230     sfml-graphics-s:GLExtensions.obj
 0003:00001238       sf_glad_glCallList         00000001400de238     sfml-graphics-s:GLExtensions.obj
 0003:00001240       sf_glad_glCallLists        00000001400de240     sfml-graphics-s:GLExtensions.obj
 0003:00001248       sf_glad_glCheckFramebufferStatus 00000001400de248     sfml-graphics-s:GLExtensions.obj
 0003:00001250       sf_glad_glCheckFramebufferStatusEXT 00000001400de250     sfml-graphics-s:GLExtensions.obj
 0003:00001258       sf_glad_glCheckNamedFramebufferStatus 00000001400de258     sfml-graphics-s:GLExtensions.obj
 0003:00001260       sf_glad_glClampColor       00000001400de260     sfml-graphics-s:GLExtensions.obj
 0003:00001268       sf_glad_glClear            00000001400de268     sfml-graphics-s:GLExtensions.obj
 0003:00001270       sf_glad_glClearAccum       00000001400de270     sfml-graphics-s:GLExtensions.obj
 0003:00001278       sf_glad_glClearBufferData  00000001400de278     sfml-graphics-s:GLExtensions.obj
 0003:00001280       sf_glad_glClearBufferSubData 00000001400de280     sfml-graphics-s:GLExtensions.obj
 0003:00001288       sf_glad_glClearBufferfi    00000001400de288     sfml-graphics-s:GLExtensions.obj
 0003:00001290       sf_glad_glClearBufferfv    00000001400de290     sfml-graphics-s:GLExtensions.obj
 0003:00001298       sf_glad_glClearBufferiv    00000001400de298     sfml-graphics-s:GLExtensions.obj
 0003:000012a0       sf_glad_glClearBufferuiv   00000001400de2a0     sfml-graphics-s:GLExtensions.obj
 0003:000012a8       sf_glad_glClearColor       00000001400de2a8     sfml-graphics-s:GLExtensions.obj
 0003:000012b0       sf_glad_glClearDepth       00000001400de2b0     sfml-graphics-s:GLExtensions.obj
 0003:000012b8       sf_glad_glClearDepthf      00000001400de2b8     sfml-graphics-s:GLExtensions.obj
 0003:000012c0       sf_glad_glClearDepthfOES   00000001400de2c0     sfml-graphics-s:GLExtensions.obj
 0003:000012c8       sf_glad_glClearIndex       00000001400de2c8     sfml-graphics-s:GLExtensions.obj
 0003:000012d0       sf_glad_glClearNamedBufferData 00000001400de2d0     sfml-graphics-s:GLExtensions.obj
 0003:000012d8       sf_glad_glClearNamedBufferSubData 00000001400de2d8     sfml-graphics-s:GLExtensions.obj
 0003:000012e0       sf_glad_glClearNamedFramebufferfi 00000001400de2e0     sfml-graphics-s:GLExtensions.obj
 0003:000012e8       sf_glad_glClearNamedFramebufferfv 00000001400de2e8     sfml-graphics-s:GLExtensions.obj
 0003:000012f0       sf_glad_glClearNamedFramebufferiv 00000001400de2f0     sfml-graphics-s:GLExtensions.obj
 0003:000012f8       sf_glad_glClearNamedFramebufferuiv 00000001400de2f8     sfml-graphics-s:GLExtensions.obj
 0003:00001300       sf_glad_glClearStencil     00000001400de300     sfml-graphics-s:GLExtensions.obj
 0003:00001308       sf_glad_glClearTexImage    00000001400de308     sfml-graphics-s:GLExtensions.obj
 0003:00001310       sf_glad_glClearTexSubImage 00000001400de310     sfml-graphics-s:GLExtensions.obj
 0003:00001318       sf_glad_glClientActiveTexture 00000001400de318     sfml-graphics-s:GLExtensions.obj
 0003:00001320       sf_glad_glClientActiveTextureARB 00000001400de320     sfml-graphics-s:GLExtensions.obj
 0003:00001328       sf_glad_glClientWaitSync   00000001400de328     sfml-graphics-s:GLExtensions.obj
 0003:00001330       sf_glad_glClipControl      00000001400de330     sfml-graphics-s:GLExtensions.obj
 0003:00001338       sf_glad_glClipPlane        00000001400de338     sfml-graphics-s:GLExtensions.obj
 0003:00001340       sf_glad_glClipPlanefOES    00000001400de340     sfml-graphics-s:GLExtensions.obj
 0003:00001348       sf_glad_glColor3b          00000001400de348     sfml-graphics-s:GLExtensions.obj
 0003:00001350       sf_glad_glColor3bv         00000001400de350     sfml-graphics-s:GLExtensions.obj
 0003:00001358       sf_glad_glColor3d          00000001400de358     sfml-graphics-s:GLExtensions.obj
 0003:00001360       sf_glad_glColor3dv         00000001400de360     sfml-graphics-s:GLExtensions.obj
 0003:00001368       sf_glad_glColor3f          00000001400de368     sfml-graphics-s:GLExtensions.obj
 0003:00001370       sf_glad_glColor3fv         00000001400de370     sfml-graphics-s:GLExtensions.obj
 0003:00001378       sf_glad_glColor3i          00000001400de378     sfml-graphics-s:GLExtensions.obj
 0003:00001380       sf_glad_glColor3iv         00000001400de380     sfml-graphics-s:GLExtensions.obj
 0003:00001388       sf_glad_glColor3s          00000001400de388     sfml-graphics-s:GLExtensions.obj
 0003:00001390       sf_glad_glColor3sv         00000001400de390     sfml-graphics-s:GLExtensions.obj
 0003:00001398       sf_glad_glColor3ub         00000001400de398     sfml-graphics-s:GLExtensions.obj
 0003:000013a0       sf_glad_glColor3ubv        00000001400de3a0     sfml-graphics-s:GLExtensions.obj
 0003:000013a8       sf_glad_glColor3ui         00000001400de3a8     sfml-graphics-s:GLExtensions.obj
 0003:000013b0       sf_glad_glColor3uiv        00000001400de3b0     sfml-graphics-s:GLExtensions.obj
 0003:000013b8       sf_glad_glColor3us         00000001400de3b8     sfml-graphics-s:GLExtensions.obj
 0003:000013c0       sf_glad_glColor3usv        00000001400de3c0     sfml-graphics-s:GLExtensions.obj
 0003:000013c8       sf_glad_glColor4b          00000001400de3c8     sfml-graphics-s:GLExtensions.obj
 0003:000013d0       sf_glad_glColor4bv         00000001400de3d0     sfml-graphics-s:GLExtensions.obj
 0003:000013d8       sf_glad_glColor4d          00000001400de3d8     sfml-graphics-s:GLExtensions.obj
 0003:000013e0       sf_glad_glColor4dv         00000001400de3e0     sfml-graphics-s:GLExtensions.obj
 0003:000013e8       sf_glad_glColor4f          00000001400de3e8     sfml-graphics-s:GLExtensions.obj
 0003:000013f0       sf_glad_glColor4fv         00000001400de3f0     sfml-graphics-s:GLExtensions.obj
 0003:000013f8       sf_glad_glColor4i          00000001400de3f8     sfml-graphics-s:GLExtensions.obj
 0003:00001400       sf_glad_glColor4iv         00000001400de400     sfml-graphics-s:GLExtensions.obj
 0003:00001408       sf_glad_glColor4s          00000001400de408     sfml-graphics-s:GLExtensions.obj
 0003:00001410       sf_glad_glColor4sv         00000001400de410     sfml-graphics-s:GLExtensions.obj
 0003:00001418       sf_glad_glColor4ub         00000001400de418     sfml-graphics-s:GLExtensions.obj
 0003:00001420       sf_glad_glColor4ubv        00000001400de420     sfml-graphics-s:GLExtensions.obj
 0003:00001428       sf_glad_glColor4ui         00000001400de428     sfml-graphics-s:GLExtensions.obj
 0003:00001430       sf_glad_glColor4uiv        00000001400de430     sfml-graphics-s:GLExtensions.obj
 0003:00001438       sf_glad_glColor4us         00000001400de438     sfml-graphics-s:GLExtensions.obj
 0003:00001440       sf_glad_glColor4usv        00000001400de440     sfml-graphics-s:GLExtensions.obj
 0003:00001448       sf_glad_glColorMask        00000001400de448     sfml-graphics-s:GLExtensions.obj
 0003:00001450       sf_glad_glColorMaski       00000001400de450     sfml-graphics-s:GLExtensions.obj
 0003:00001458       sf_glad_glColorMaterial    00000001400de458     sfml-graphics-s:GLExtensions.obj
 0003:00001460       sf_glad_glColorP3ui        00000001400de460     sfml-graphics-s:GLExtensions.obj
 0003:00001468       sf_glad_glColorP3uiv       00000001400de468     sfml-graphics-s:GLExtensions.obj
 0003:00001470       sf_glad_glColorP4ui        00000001400de470     sfml-graphics-s:GLExtensions.obj
 0003:00001478       sf_glad_glColorP4uiv       00000001400de478     sfml-graphics-s:GLExtensions.obj
 0003:00001480       sf_glad_glColorPointer     00000001400de480     sfml-graphics-s:GLExtensions.obj
 0003:00001488       sf_glad_glColorPointerEXT  00000001400de488     sfml-graphics-s:GLExtensions.obj
 0003:00001490       sf_glad_glColorSubTable    00000001400de490     sfml-graphics-s:GLExtensions.obj
 0003:00001498       sf_glad_glColorTable       00000001400de498     sfml-graphics-s:GLExtensions.obj
 0003:000014a0       sf_glad_glColorTableParameterfv 00000001400de4a0     sfml-graphics-s:GLExtensions.obj
 0003:000014a8       sf_glad_glColorTableParameteriv 00000001400de4a8     sfml-graphics-s:GLExtensions.obj
 0003:000014b0       sf_glad_glCompileShader    00000001400de4b0     sfml-graphics-s:GLExtensions.obj
 0003:000014b8       sf_glad_glCompileShaderARB 00000001400de4b8     sfml-graphics-s:GLExtensions.obj
 0003:000014c0       sf_glad_glCompressedTexImage1D 00000001400de4c0     sfml-graphics-s:GLExtensions.obj
 0003:000014c8       sf_glad_glCompressedTexImage2D 00000001400de4c8     sfml-graphics-s:GLExtensions.obj
 0003:000014d0       sf_glad_glCompressedTexImage3D 00000001400de4d0     sfml-graphics-s:GLExtensions.obj
 0003:000014d8       sf_glad_glCompressedTexSubImage1D 00000001400de4d8     sfml-graphics-s:GLExtensions.obj
 0003:000014e0       sf_glad_glCompressedTexSubImage2D 00000001400de4e0     sfml-graphics-s:GLExtensions.obj
 0003:000014e8       sf_glad_glCompressedTexSubImage3D 00000001400de4e8     sfml-graphics-s:GLExtensions.obj
 0003:000014f0       sf_glad_glCompressedTextureSubImage1D 00000001400de4f0     sfml-graphics-s:GLExtensions.obj
 0003:000014f8       sf_glad_glCompressedTextureSubImage2D 00000001400de4f8     sfml-graphics-s:GLExtensions.obj
 0003:00001500       sf_glad_glCompressedTextureSubImage3D 00000001400de500     sfml-graphics-s:GLExtensions.obj
 0003:00001508       sf_glad_glConvolutionFilter1D 00000001400de508     sfml-graphics-s:GLExtensions.obj
 0003:00001510       sf_glad_glConvolutionFilter2D 00000001400de510     sfml-graphics-s:GLExtensions.obj
 0003:00001518       sf_glad_glConvolutionParameterf 00000001400de518     sfml-graphics-s:GLExtensions.obj
 0003:00001520       sf_glad_glConvolutionParameterfv 00000001400de520     sfml-graphics-s:GLExtensions.obj
 0003:00001528       sf_glad_glConvolutionParameteri 00000001400de528     sfml-graphics-s:GLExtensions.obj
 0003:00001530       sf_glad_glConvolutionParameteriv 00000001400de530     sfml-graphics-s:GLExtensions.obj
 0003:00001538       sf_glad_glCopyBufferSubData 00000001400de538     sfml-graphics-s:GLExtensions.obj
 0003:00001540       sf_glad_glCopyColorSubTable 00000001400de540     sfml-graphics-s:GLExtensions.obj
 0003:00001548       sf_glad_glCopyColorTable   00000001400de548     sfml-graphics-s:GLExtensions.obj
 0003:00001550       sf_glad_glCopyConvolutionFilter1D 00000001400de550     sfml-graphics-s:GLExtensions.obj
 0003:00001558       sf_glad_glCopyConvolutionFilter2D 00000001400de558     sfml-graphics-s:GLExtensions.obj
 0003:00001560       sf_glad_glCopyImageSubData 00000001400de560     sfml-graphics-s:GLExtensions.obj
 0003:00001568       sf_glad_glCopyNamedBufferSubData 00000001400de568     sfml-graphics-s:GLExtensions.obj
 0003:00001570       sf_glad_glCopyPixels       00000001400de570     sfml-graphics-s:GLExtensions.obj
 0003:00001578       sf_glad_glCopyTexImage1D   00000001400de578     sfml-graphics-s:GLExtensions.obj
 0003:00001580       sf_glad_glCopyTexImage1DEXT 00000001400de580     sfml-graphics-s:GLExtensions.obj
 0003:00001588       sf_glad_glCopyTexImage2D   00000001400de588     sfml-graphics-s:GLExtensions.obj
 0003:00001590       sf_glad_glCopyTexImage2DEXT 00000001400de590     sfml-graphics-s:GLExtensions.obj
 0003:00001598       sf_glad_glCopyTexSubImage1D 00000001400de598     sfml-graphics-s:GLExtensions.obj
 0003:000015a0       sf_glad_glCopyTexSubImage1DEXT 00000001400de5a0     sfml-graphics-s:GLExtensions.obj
 0003:000015a8       sf_glad_glCopyTexSubImage2D 00000001400de5a8     sfml-graphics-s:GLExtensions.obj
 0003:000015b0       sf_glad_glCopyTexSubImage2DEXT 00000001400de5b0     sfml-graphics-s:GLExtensions.obj
 0003:000015b8       sf_glad_glCopyTexSubImage3D 00000001400de5b8     sfml-graphics-s:GLExtensions.obj
 0003:000015c0       sf_glad_glCopyTexSubImage3DEXT 00000001400de5c0     sfml-graphics-s:GLExtensions.obj
 0003:000015c8       sf_glad_glCopyTextureSubImage1D 00000001400de5c8     sfml-graphics-s:GLExtensions.obj
 0003:000015d0       sf_glad_glCopyTextureSubImage2D 00000001400de5d0     sfml-graphics-s:GLExtensions.obj
 0003:000015d8       sf_glad_glCopyTextureSubImage3D 00000001400de5d8     sfml-graphics-s:GLExtensions.obj
 0003:000015e0       sf_glad_glCreateBuffers    00000001400de5e0     sfml-graphics-s:GLExtensions.obj
 0003:000015e8       sf_glad_glCreateFramebuffers 00000001400de5e8     sfml-graphics-s:GLExtensions.obj
 0003:000015f0       sf_glad_glCreateProgram    00000001400de5f0     sfml-graphics-s:GLExtensions.obj
 0003:000015f8       sf_glad_glCreateProgramObjectARB 00000001400de5f8     sfml-graphics-s:GLExtensions.obj
 0003:00001600       sf_glad_glCreateProgramPipelines 00000001400de600     sfml-graphics-s:GLExtensions.obj
 0003:00001608       sf_glad_glCreateQueries    00000001400de608     sfml-graphics-s:GLExtensions.obj
 0003:00001610       sf_glad_glCreateRenderbuffers 00000001400de610     sfml-graphics-s:GLExtensions.obj
 0003:00001618       sf_glad_glCreateSamplers   00000001400de618     sfml-graphics-s:GLExtensions.obj
 0003:00001620       sf_glad_glCreateShader     00000001400de620     sfml-graphics-s:GLExtensions.obj
 0003:00001628       sf_glad_glCreateShaderObjectARB 00000001400de628     sfml-graphics-s:GLExtensions.obj
 0003:00001630       sf_glad_glCreateShaderProgramv 00000001400de630     sfml-graphics-s:GLExtensions.obj
 0003:00001638       sf_glad_glCreateTextures   00000001400de638     sfml-graphics-s:GLExtensions.obj
 0003:00001640       sf_glad_glCreateTransformFeedbacks 00000001400de640     sfml-graphics-s:GLExtensions.obj
 0003:00001648       sf_glad_glCreateVertexArrays 00000001400de648     sfml-graphics-s:GLExtensions.obj
 0003:00001650       sf_glad_glCullFace         00000001400de650     sfml-graphics-s:GLExtensions.obj
 0003:00001658       sf_glad_glDebugMessageCallback 00000001400de658     sfml-graphics-s:GLExtensions.obj
 0003:00001660       sf_glad_glDebugMessageControl 00000001400de660     sfml-graphics-s:GLExtensions.obj
 0003:00001668       sf_glad_glDebugMessageInsert 00000001400de668     sfml-graphics-s:GLExtensions.obj
 0003:00001670       sf_glad_glDeleteBuffers    00000001400de670     sfml-graphics-s:GLExtensions.obj
 0003:00001678       sf_glad_glDeleteBuffersARB 00000001400de678     sfml-graphics-s:GLExtensions.obj
 0003:00001680       sf_glad_glDeleteFramebuffers 00000001400de680     sfml-graphics-s:GLExtensions.obj
 0003:00001688       sf_glad_glDeleteFramebuffersEXT 00000001400de688     sfml-graphics-s:GLExtensions.obj
 0003:00001690       sf_glad_glDeleteLists      00000001400de690     sfml-graphics-s:GLExtensions.obj
 0003:00001698       sf_glad_glDeleteObjectARB  00000001400de698     sfml-graphics-s:GLExtensions.obj
 0003:000016a0       sf_glad_glDeleteProgram    00000001400de6a0     sfml-graphics-s:GLExtensions.obj
 0003:000016a8       sf_glad_glDeleteProgramPipelines 00000001400de6a8     sfml-graphics-s:GLExtensions.obj
 0003:000016b0       sf_glad_glDeleteProgramsARB 00000001400de6b0     sfml-graphics-s:GLExtensions.obj
 0003:000016b8       sf_glad_glDeleteProgramsNV 00000001400de6b8     sfml-graphics-s:GLExtensions.obj
 0003:000016c0       sf_glad_glDeleteQueries    00000001400de6c0     sfml-graphics-s:GLExtensions.obj
 0003:000016c8       sf_glad_glDeleteRenderbuffers 00000001400de6c8     sfml-graphics-s:GLExtensions.obj
 0003:000016d0       sf_glad_glDeleteRenderbuffersEXT 00000001400de6d0     sfml-graphics-s:GLExtensions.obj
 0003:000016d8       sf_glad_glDeleteSamplers   00000001400de6d8     sfml-graphics-s:GLExtensions.obj
 0003:000016e0       sf_glad_glDeleteShader     00000001400de6e0     sfml-graphics-s:GLExtensions.obj
 0003:000016e8       sf_glad_glDeleteSync       00000001400de6e8     sfml-graphics-s:GLExtensions.obj
 0003:000016f0       sf_glad_glDeleteTextures   00000001400de6f0     sfml-graphics-s:GLExtensions.obj
 0003:000016f8       sf_glad_glDeleteTexturesEXT 00000001400de6f8     sfml-graphics-s:GLExtensions.obj
 0003:00001700       sf_glad_glDeleteTransformFeedbacks 00000001400de700     sfml-graphics-s:GLExtensions.obj
 0003:00001708       sf_glad_glDeleteVertexArrays 00000001400de708     sfml-graphics-s:GLExtensions.obj
 0003:00001710       sf_glad_glDepthFunc        00000001400de710     sfml-graphics-s:GLExtensions.obj
 0003:00001718       sf_glad_glDepthMask        00000001400de718     sfml-graphics-s:GLExtensions.obj
 0003:00001720       sf_glad_glDepthRange       00000001400de720     sfml-graphics-s:GLExtensions.obj
 0003:00001728       sf_glad_glDepthRangeArraydvNV 00000001400de728     sfml-graphics-s:GLExtensions.obj
 0003:00001730       sf_glad_glDepthRangeArrayv 00000001400de730     sfml-graphics-s:GLExtensions.obj
 0003:00001738       sf_glad_glDepthRangeIndexed 00000001400de738     sfml-graphics-s:GLExtensions.obj
 0003:00001740       sf_glad_glDepthRangeIndexeddNV 00000001400de740     sfml-graphics-s:GLExtensions.obj
 0003:00001748       sf_glad_glDepthRangef      00000001400de748     sfml-graphics-s:GLExtensions.obj
 0003:00001750       sf_glad_glDepthRangefOES   00000001400de750     sfml-graphics-s:GLExtensions.obj
 0003:00001758       sf_glad_glDetachObjectARB  00000001400de758     sfml-graphics-s:GLExtensions.obj
 0003:00001760       sf_glad_glDetachShader     00000001400de760     sfml-graphics-s:GLExtensions.obj
 0003:00001768       sf_glad_glDisable          00000001400de768     sfml-graphics-s:GLExtensions.obj
 0003:00001770       sf_glad_glDisableClientState 00000001400de770     sfml-graphics-s:GLExtensions.obj
 0003:00001778       sf_glad_glDisableVertexArrayAttrib 00000001400de778     sfml-graphics-s:GLExtensions.obj
 0003:00001780       sf_glad_glDisableVertexAttribArray 00000001400de780     sfml-graphics-s:GLExtensions.obj
 0003:00001788       sf_glad_glDisableVertexAttribArrayARB 00000001400de788     sfml-graphics-s:GLExtensions.obj
 0003:00001790       sf_glad_glDisablei         00000001400de790     sfml-graphics-s:GLExtensions.obj
 0003:00001798       sf_glad_glDispatchCompute  00000001400de798     sfml-graphics-s:GLExtensions.obj
 0003:000017a0       sf_glad_glDispatchComputeIndirect 00000001400de7a0     sfml-graphics-s:GLExtensions.obj
 0003:000017a8       sf_glad_glDrawArrays       00000001400de7a8     sfml-graphics-s:GLExtensions.obj
 0003:000017b0       sf_glad_glDrawArraysEXT    00000001400de7b0     sfml-graphics-s:GLExtensions.obj
 0003:000017b8       sf_glad_glDrawArraysIndirect 00000001400de7b8     sfml-graphics-s:GLExtensions.obj
 0003:000017c0       sf_glad_glDrawArraysInstanced 00000001400de7c0     sfml-graphics-s:GLExtensions.obj
 0003:000017c8       sf_glad_glDrawArraysInstancedBaseInstance 00000001400de7c8     sfml-graphics-s:GLExtensions.obj
 0003:000017d0       sf_glad_glDrawBuffer       00000001400de7d0     sfml-graphics-s:GLExtensions.obj
 0003:000017d8       sf_glad_glDrawBuffers      00000001400de7d8     sfml-graphics-s:GLExtensions.obj
 0003:000017e0       sf_glad_glDrawElements     00000001400de7e0     sfml-graphics-s:GLExtensions.obj
 0003:000017e8       sf_glad_glDrawElementsBaseVertex 00000001400de7e8     sfml-graphics-s:GLExtensions.obj
 0003:000017f0       sf_glad_glDrawElementsIndirect 00000001400de7f0     sfml-graphics-s:GLExtensions.obj
 0003:000017f8       sf_glad_glDrawElementsInstanced 00000001400de7f8     sfml-graphics-s:GLExtensions.obj
 0003:00001800       sf_glad_glDrawElementsInstancedBaseInstance 00000001400de800     sfml-graphics-s:GLExtensions.obj
 0003:00001808       sf_glad_glDrawElementsInstancedBaseVertex 00000001400de808     sfml-graphics-s:GLExtensions.obj
 0003:00001810       sf_glad_glDrawElementsInstancedBaseVertexBaseInstance 00000001400de810     sfml-graphics-s:GLExtensions.obj
 0003:00001818       sf_glad_glDrawPixels       00000001400de818     sfml-graphics-s:GLExtensions.obj
 0003:00001820       sf_glad_glDrawRangeElements 00000001400de820     sfml-graphics-s:GLExtensions.obj
 0003:00001828       sf_glad_glDrawRangeElementsBaseVertex 00000001400de828     sfml-graphics-s:GLExtensions.obj
 0003:00001830       sf_glad_glDrawTransformFeedback 00000001400de830     sfml-graphics-s:GLExtensions.obj
 0003:00001838       sf_glad_glDrawTransformFeedbackInstanced 00000001400de838     sfml-graphics-s:GLExtensions.obj
 0003:00001840       sf_glad_glDrawTransformFeedbackStream 00000001400de840     sfml-graphics-s:GLExtensions.obj
 0003:00001848       sf_glad_glDrawTransformFeedbackStreamInstanced 00000001400de848     sfml-graphics-s:GLExtensions.obj
 0003:00001850       sf_glad_glEdgeFlag         00000001400de850     sfml-graphics-s:GLExtensions.obj
 0003:00001858       sf_glad_glEdgeFlagPointer  00000001400de858     sfml-graphics-s:GLExtensions.obj
 0003:00001860       sf_glad_glEdgeFlagPointerEXT 00000001400de860     sfml-graphics-s:GLExtensions.obj
 0003:00001868       sf_glad_glEdgeFlagv        00000001400de868     sfml-graphics-s:GLExtensions.obj
 0003:00001870       sf_glad_glEnable           00000001400de870     sfml-graphics-s:GLExtensions.obj
 0003:00001878       sf_glad_glEnableClientState 00000001400de878     sfml-graphics-s:GLExtensions.obj
 0003:00001880       sf_glad_glEnableVertexArrayAttrib 00000001400de880     sfml-graphics-s:GLExtensions.obj
 0003:00001888       sf_glad_glEnableVertexAttribArray 00000001400de888     sfml-graphics-s:GLExtensions.obj
 0003:00001890       sf_glad_glEnableVertexAttribArrayARB 00000001400de890     sfml-graphics-s:GLExtensions.obj
 0003:00001898       sf_glad_glEnablei          00000001400de898     sfml-graphics-s:GLExtensions.obj
 0003:000018a0       sf_glad_glEnd              00000001400de8a0     sfml-graphics-s:GLExtensions.obj
 0003:000018a8       sf_glad_glEndConditionalRender 00000001400de8a8     sfml-graphics-s:GLExtensions.obj
 0003:000018b0       sf_glad_glEndList          00000001400de8b0     sfml-graphics-s:GLExtensions.obj
 0003:000018b8       sf_glad_glEndQuery         00000001400de8b8     sfml-graphics-s:GLExtensions.obj
 0003:000018c0       sf_glad_glEndQueryIndexed  00000001400de8c0     sfml-graphics-s:GLExtensions.obj
 0003:000018c8       sf_glad_glEndTransformFeedback 00000001400de8c8     sfml-graphics-s:GLExtensions.obj
 0003:000018d0       sf_glad_glEvalCoord1d      00000001400de8d0     sfml-graphics-s:GLExtensions.obj
 0003:000018d8       sf_glad_glEvalCoord1dv     00000001400de8d8     sfml-graphics-s:GLExtensions.obj
 0003:000018e0       sf_glad_glEvalCoord1f      00000001400de8e0     sfml-graphics-s:GLExtensions.obj
 0003:000018e8       sf_glad_glEvalCoord1fv     00000001400de8e8     sfml-graphics-s:GLExtensions.obj
 0003:000018f0       sf_glad_glEvalCoord2d      00000001400de8f0     sfml-graphics-s:GLExtensions.obj
 0003:000018f8       sf_glad_glEvalCoord2dv     00000001400de8f8     sfml-graphics-s:GLExtensions.obj
 0003:00001900       sf_glad_glEvalCoord2f      00000001400de900     sfml-graphics-s:GLExtensions.obj
 0003:00001908       sf_glad_glEvalCoord2fv     00000001400de908     sfml-graphics-s:GLExtensions.obj
 0003:00001910       sf_glad_glEvalMesh1        00000001400de910     sfml-graphics-s:GLExtensions.obj
 0003:00001918       sf_glad_glEvalMesh2        00000001400de918     sfml-graphics-s:GLExtensions.obj
 0003:00001920       sf_glad_glEvalPoint1       00000001400de920     sfml-graphics-s:GLExtensions.obj
 0003:00001928       sf_glad_glEvalPoint2       00000001400de928     sfml-graphics-s:GLExtensions.obj
 0003:00001930       sf_glad_glExecuteProgramNV 00000001400de930     sfml-graphics-s:GLExtensions.obj
 0003:00001938       sf_glad_glFeedbackBuffer   00000001400de938     sfml-graphics-s:GLExtensions.obj
 0003:00001940       sf_glad_glFenceSync        00000001400de940     sfml-graphics-s:GLExtensions.obj
 0003:00001948       sf_glad_glFinish           00000001400de948     sfml-graphics-s:GLExtensions.obj
 0003:00001950       sf_glad_glFlush            00000001400de950     sfml-graphics-s:GLExtensions.obj
 0003:00001958       sf_glad_glFlushMappedBufferRange 00000001400de958     sfml-graphics-s:GLExtensions.obj
 0003:00001960       sf_glad_glFlushMappedNamedBufferRange 00000001400de960     sfml-graphics-s:GLExtensions.obj
 0003:00001968       sf_glad_glFogCoordPointer  00000001400de968     sfml-graphics-s:GLExtensions.obj
 0003:00001970       sf_glad_glFogCoordd        00000001400de970     sfml-graphics-s:GLExtensions.obj
 0003:00001978       sf_glad_glFogCoorddv       00000001400de978     sfml-graphics-s:GLExtensions.obj
 0003:00001980       sf_glad_glFogCoordf        00000001400de980     sfml-graphics-s:GLExtensions.obj
 0003:00001988       sf_glad_glFogCoordfv       00000001400de988     sfml-graphics-s:GLExtensions.obj
 0003:00001990       sf_glad_glFogf             00000001400de990     sfml-graphics-s:GLExtensions.obj
 0003:00001998       sf_glad_glFogfv            00000001400de998     sfml-graphics-s:GLExtensions.obj
 0003:000019a0       sf_glad_glFogi             00000001400de9a0     sfml-graphics-s:GLExtensions.obj
 0003:000019a8       sf_glad_glFogiv            00000001400de9a8     sfml-graphics-s:GLExtensions.obj
 0003:000019b0       sf_glad_glFramebufferParameteri 00000001400de9b0     sfml-graphics-s:GLExtensions.obj
 0003:000019b8       sf_glad_glFramebufferRenderbuffer 00000001400de9b8     sfml-graphics-s:GLExtensions.obj
 0003:000019c0       sf_glad_glFramebufferRenderbufferEXT 00000001400de9c0     sfml-graphics-s:GLExtensions.obj
 0003:000019c8       sf_glad_glFramebufferTexture 00000001400de9c8     sfml-graphics-s:GLExtensions.obj
 0003:000019d0       sf_glad_glFramebufferTexture1D 00000001400de9d0     sfml-graphics-s:GLExtensions.obj
 0003:000019d8       sf_glad_glFramebufferTexture1DEXT 00000001400de9d8     sfml-graphics-s:GLExtensions.obj
 0003:000019e0       sf_glad_glFramebufferTexture2D 00000001400de9e0     sfml-graphics-s:GLExtensions.obj
 0003:000019e8       sf_glad_glFramebufferTexture2DEXT 00000001400de9e8     sfml-graphics-s:GLExtensions.obj
 0003:000019f0       sf_glad_glFramebufferTexture3D 00000001400de9f0     sfml-graphics-s:GLExtensions.obj
 0003:000019f8       sf_glad_glFramebufferTexture3DEXT 00000001400de9f8     sfml-graphics-s:GLExtensions.obj
 0003:00001a00       sf_glad_glFramebufferTextureARB 00000001400dea00     sfml-graphics-s:GLExtensions.obj
 0003:00001a08       sf_glad_glFramebufferTextureEXT 00000001400dea08     sfml-graphics-s:GLExtensions.obj
 0003:00001a10       sf_glad_glFramebufferTextureFaceARB 00000001400dea10     sfml-graphics-s:GLExtensions.obj
 0003:00001a18       sf_glad_glFramebufferTextureFaceEXT 00000001400dea18     sfml-graphics-s:GLExtensions.obj
 0003:00001a20       sf_glad_glFramebufferTextureLayer 00000001400dea20     sfml-graphics-s:GLExtensions.obj
 0003:00001a28       sf_glad_glFramebufferTextureLayerARB 00000001400dea28     sfml-graphics-s:GLExtensions.obj
 0003:00001a30       sf_glad_glFramebufferTextureLayerEXT 00000001400dea30     sfml-graphics-s:GLExtensions.obj
 0003:00001a38       sf_glad_glFrontFace        00000001400dea38     sfml-graphics-s:GLExtensions.obj
 0003:00001a40       sf_glad_glFrustum          00000001400dea40     sfml-graphics-s:GLExtensions.obj
 0003:00001a48       sf_glad_glFrustumfOES      00000001400dea48     sfml-graphics-s:GLExtensions.obj
 0003:00001a50       sf_glad_glGenBuffers       00000001400dea50     sfml-graphics-s:GLExtensions.obj
 0003:00001a58       sf_glad_glGenBuffersARB    00000001400dea58     sfml-graphics-s:GLExtensions.obj
 0003:00001a60       sf_glad_glGenFramebuffers  00000001400dea60     sfml-graphics-s:GLExtensions.obj
 0003:00001a68       sf_glad_glGenFramebuffersEXT 00000001400dea68     sfml-graphics-s:GLExtensions.obj
 0003:00001a70       sf_glad_glGenLists         00000001400dea70     sfml-graphics-s:GLExtensions.obj
 0003:00001a78       sf_glad_glGenProgramPipelines 00000001400dea78     sfml-graphics-s:GLExtensions.obj
 0003:00001a80       sf_glad_glGenProgramsARB   00000001400dea80     sfml-graphics-s:GLExtensions.obj
 0003:00001a88       sf_glad_glGenProgramsNV    00000001400dea88     sfml-graphics-s:GLExtensions.obj
 0003:00001a90       sf_glad_glGenQueries       00000001400dea90     sfml-graphics-s:GLExtensions.obj
 0003:00001a98       sf_glad_glGenRenderbuffers 00000001400dea98     sfml-graphics-s:GLExtensions.obj
 0003:00001aa0       sf_glad_glGenRenderbuffersEXT 00000001400deaa0     sfml-graphics-s:GLExtensions.obj
 0003:00001aa8       sf_glad_glGenSamplers      00000001400deaa8     sfml-graphics-s:GLExtensions.obj
 0003:00001ab0       sf_glad_glGenTextures      00000001400deab0     sfml-graphics-s:GLExtensions.obj
 0003:00001ab8       sf_glad_glGenTexturesEXT   00000001400deab8     sfml-graphics-s:GLExtensions.obj
 0003:00001ac0       sf_glad_glGenTransformFeedbacks 00000001400deac0     sfml-graphics-s:GLExtensions.obj
 0003:00001ac8       sf_glad_glGenVertexArrays  00000001400deac8     sfml-graphics-s:GLExtensions.obj
 0003:00001ad0       sf_glad_glGenerateMipmap   00000001400dead0     sfml-graphics-s:GLExtensions.obj
 0003:00001ad8       sf_glad_glGenerateMipmapEXT 00000001400dead8     sfml-graphics-s:GLExtensions.obj
 0003:00001ae0       sf_glad_glGenerateTextureMipmap 00000001400deae0     sfml-graphics-s:GLExtensions.obj
 0003:00001ae8       sf_glad_glGetActiveAtomicCounterBufferiv 00000001400deae8     sfml-graphics-s:GLExtensions.obj
 0003:00001af0       sf_glad_glGetActiveAttrib  00000001400deaf0     sfml-graphics-s:GLExtensions.obj
 0003:00001af8       sf_glad_glGetActiveAttribARB 00000001400deaf8     sfml-graphics-s:GLExtensions.obj
 0003:00001b00       sf_glad_glGetActiveSubroutineName 00000001400deb00     sfml-graphics-s:GLExtensions.obj
 0003:00001b08       sf_glad_glGetActiveSubroutineUniformName 00000001400deb08     sfml-graphics-s:GLExtensions.obj
 0003:00001b10       sf_glad_glGetActiveSubroutineUniformiv 00000001400deb10     sfml-graphics-s:GLExtensions.obj
 0003:00001b18       sf_glad_glGetActiveUniform 00000001400deb18     sfml-graphics-s:GLExtensions.obj
 0003:00001b20       sf_glad_glGetActiveUniformARB 00000001400deb20     sfml-graphics-s:GLExtensions.obj
 0003:00001b28       sf_glad_glGetActiveUniformBlockName 00000001400deb28     sfml-graphics-s:GLExtensions.obj
 0003:00001b30       sf_glad_glGetActiveUniformBlockiv 00000001400deb30     sfml-graphics-s:GLExtensions.obj
 0003:00001b38       sf_glad_glGetActiveUniformName 00000001400deb38     sfml-graphics-s:GLExtensions.obj
 0003:00001b40       sf_glad_glGetActiveUniformsiv 00000001400deb40     sfml-graphics-s:GLExtensions.obj
 0003:00001b48       sf_glad_glGetAttachedObjectsARB 00000001400deb48     sfml-graphics-s:GLExtensions.obj
 0003:00001b50       sf_glad_glGetAttachedShaders 00000001400deb50     sfml-graphics-s:GLExtensions.obj
 0003:00001b58       sf_glad_glGetAttribLocation 00000001400deb58     sfml-graphics-s:GLExtensions.obj
 0003:00001b60       sf_glad_glGetAttribLocationARB 00000001400deb60     sfml-graphics-s:GLExtensions.obj
 0003:00001b68       sf_glad_glGetBooleani_v    00000001400deb68     sfml-graphics-s:GLExtensions.obj
 0003:00001b70       sf_glad_glGetBooleanv      00000001400deb70     sfml-graphics-s:GLExtensions.obj
 0003:00001b78       sf_glad_glGetBufferParameteri64v 00000001400deb78     sfml-graphics-s:GLExtensions.obj
 0003:00001b80       sf_glad_glGetBufferParameteriv 00000001400deb80     sfml-graphics-s:GLExtensions.obj
 0003:00001b88       sf_glad_glGetBufferParameterivARB 00000001400deb88     sfml-graphics-s:GLExtensions.obj
 0003:00001b90       sf_glad_glGetBufferPointerv 00000001400deb90     sfml-graphics-s:GLExtensions.obj
 0003:00001b98       sf_glad_glGetBufferPointervARB 00000001400deb98     sfml-graphics-s:GLExtensions.obj
 0003:00001ba0       sf_glad_glGetBufferSubData 00000001400deba0     sfml-graphics-s:GLExtensions.obj
 0003:00001ba8       sf_glad_glGetBufferSubDataARB 00000001400deba8     sfml-graphics-s:GLExtensions.obj
 0003:00001bb0       sf_glad_glGetClipPlane     00000001400debb0     sfml-graphics-s:GLExtensions.obj
 0003:00001bb8       sf_glad_glGetClipPlanefOES 00000001400debb8     sfml-graphics-s:GLExtensions.obj
 0003:00001bc0       sf_glad_glGetColorTable    00000001400debc0     sfml-graphics-s:GLExtensions.obj
 0003:00001bc8       sf_glad_glGetColorTableParameterfv 00000001400debc8     sfml-graphics-s:GLExtensions.obj
 0003:00001bd0       sf_glad_glGetColorTableParameteriv 00000001400debd0     sfml-graphics-s:GLExtensions.obj
 0003:00001bd8       sf_glad_glGetCompressedTexImage 00000001400debd8     sfml-graphics-s:GLExtensions.obj
 0003:00001be0       sf_glad_glGetCompressedTextureImage 00000001400debe0     sfml-graphics-s:GLExtensions.obj
 0003:00001be8       sf_glad_glGetCompressedTextureSubImage 00000001400debe8     sfml-graphics-s:GLExtensions.obj
 0003:00001bf0       sf_glad_glGetConvolutionFilter 00000001400debf0     sfml-graphics-s:GLExtensions.obj
 0003:00001bf8       sf_glad_glGetConvolutionParameterfv 00000001400debf8     sfml-graphics-s:GLExtensions.obj
 0003:00001c00       sf_glad_glGetConvolutionParameteriv 00000001400dec00     sfml-graphics-s:GLExtensions.obj
 0003:00001c08       sf_glad_glGetDebugMessageLog 00000001400dec08     sfml-graphics-s:GLExtensions.obj
 0003:00001c10       sf_glad_glGetDoublei_v     00000001400dec10     sfml-graphics-s:GLExtensions.obj
 0003:00001c18       sf_glad_glGetDoublev       00000001400dec18     sfml-graphics-s:GLExtensions.obj
 0003:00001c20       sf_glad_glGetError         00000001400dec20     sfml-graphics-s:GLExtensions.obj
 0003:00001c28       sf_glad_glGetFloati_v      00000001400dec28     sfml-graphics-s:GLExtensions.obj
 0003:00001c30       sf_glad_glGetFloatv        00000001400dec30     sfml-graphics-s:GLExtensions.obj
 0003:00001c38       sf_glad_glGetFragDataIndex 00000001400dec38     sfml-graphics-s:GLExtensions.obj
